---
triple:          'arm64-apple-darwin'
binary-path:     '/Users/rwalsh/sourcecode/cabbage3/icabbage/cabbage/build/Debug/Cabbage.app/Contents/MacOS/Cabbage'
relocations:
  - { offsetInCU: 0x5C, offset: 0x5C, size: 0x8, addend: 0x0, symName: __ZNSt3__1L19piecewise_constructE, symObjAddr: 0x653E6, symBinAddr: 0x1001724C6, symSize: 0x0 }
  - { offsetInCU: 0x1078B, offset: 0x1078B, size: 0x8, addend: 0x0, symName: __ZNSt3__14__fs10filesystem12is_directoryB7v160006ERKNS1_4pathE, symObjAddr: 0x407C, symBinAddr: 0x10000C170, symSize: 0x50 }
  - { offsetInCU: 0x107B7, offset: 0x107B7, size: 0x8, addend: 0x0, symName: __ZNSt3__14__fs10filesystem12is_directoryB7v160006ENS1_11file_statusE, symObjAddr: 0x29224, symBinAddr: 0x100031318, symSize: 0x34 }
  - { offsetInCU: 0x174ED, offset: 0x174ED, size: 0x8, addend: 0x0, symName: __ZNSt3__115regex_constants13__get_grammarB7v160006ENS0_18syntax_option_typeE, symObjAddr: 0x2D2D8, symBinAddr: 0x1000353CC, symSize: 0x18 }
  - { offsetInCU: 0x1751B, offset: 0x1751B, size: 0x8, addend: 0x0, symName: __ZNSt3__115regex_constantsoRB7v160006ERNS0_18syntax_option_typeES1_, symObjAddr: 0x2D2F0, symBinAddr: 0x1000353E4, symSize: 0x3C }
  - { offsetInCU: 0x17558, offset: 0x17558, size: 0x8, addend: 0x0, symName: __ZNSt3__115regex_constantsorB7v160006ENS0_18syntax_option_typeES1_, symObjAddr: 0x2D5A8, symBinAddr: 0x10003569C, symSize: 0x20 }
  - { offsetInCU: 0x17595, offset: 0x17595, size: 0x8, addend: 0x0, symName: __ZNSt3__115regex_constantsanB7v160006ENS0_18syntax_option_typeES1_, symObjAddr: 0x30800, symBinAddr: 0x1000388F4, symSize: 0x20 }
  - { offsetInCU: 0x175D2, offset: 0x175D2, size: 0x8, addend: 0x0, symName: __ZNSt3__115regex_constantsanB7v160006ENS0_15match_flag_typeES1_, symObjAddr: 0x30A20, symBinAddr: 0x100038B14, symSize: 0x20 }
  - { offsetInCU: 0x1760F, offset: 0x1760F, size: 0x8, addend: 0x0, symName: __ZNSt3__115regex_constantsorB7v160006ENS0_15match_flag_typeES1_, symObjAddr: 0x32028, symBinAddr: 0x10003A11C, symSize: 0x20 }
  - { offsetInCU: 0x1764C, offset: 0x1764C, size: 0x8, addend: 0x0, symName: __ZNSt3__115regex_constantscoB7v160006ENS0_15match_flag_typeE, symObjAddr: 0x32048, symBinAddr: 0x10003A13C, symSize: 0x1C }
  - { offsetInCU: 0x1767A, offset: 0x1767A, size: 0x8, addend: 0x0, symName: __ZNSt3__115regex_constantsaNB7v160006ERNS0_15match_flag_typeES1_, symObjAddr: 0x47FC0, symBinAddr: 0x1000500B4, symSize: 0x3C }
  - { offsetInCU: 0x176B7, offset: 0x176B7, size: 0x8, addend: 0x0, symName: __ZNSt3__115regex_constantsoRB7v160006ERNS0_15match_flag_typeES1_, symObjAddr: 0x48174, symBinAddr: 0x100050268, symSize: 0x3C }
  - { offsetInCU: 0x1BF67, offset: 0x1BF67, size: 0x8, addend: 0x0, symName: __ZNSt3__17advanceB7v160006INS_11__wrap_iterIPKcEEiivEEvRT_T0_, symObjAddr: 0x79FC, symBinAddr: 0x10000FAF0, symSize: 0x58 }
  - { offsetInCU: 0x1D584, offset: 0x1D584, size: 0x8, addend: 0x0, symName: __ZNSt3__114__copy_alignedB7v160006INS_6vectorIbNS_9allocatorIbEEEELb0EEENS_14__bit_iteratorIT_Lb0EXLi0EEEENS5_IS6_XT0_EXLi0EEEES8_S7_, symObjAddr: 0xEDF0, symBinAddr: 0x100016EE4, symSize: 0x278 }
  - { offsetInCU: 0x1D6B2, offset: 0x1D6B2, size: 0x8, addend: 0x0, symName: __ZNSt3__16copy_nB7v160006IPmmS1_EENS_9enable_ifIXsr33__is_cpp17_random_access_iteratorIT_EE5valueET1_E4typeES3_T0_S4_, symObjAddr: 0xF5D4, symBinAddr: 0x1000176C8, symSize: 0x44 }
  - { offsetInCU: 0x1D759, offset: 0x1D759, size: 0x8, addend: 0x0, symName: __ZNSt3__116__copy_unalignedB7v160006INS_6vectorIbNS_9allocatorIbEEEELb0EEENS_14__bit_iteratorIT_Lb0EXLi0EEEENS5_IS6_XT0_EXLi0EEEES8_S7_, symObjAddr: 0xF068, symBinAddr: 0x10001715C, symSize: 0x540 }
  - { offsetInCU: 0x1F6B1, offset: 0x1F6B1, size: 0x8, addend: 0x0, symName: __ZNSt3__17advanceB7v160006INS_21__tree_const_iteratorINS_12__value_typeINS_12basic_stringIcNS_11char_traitsIcEENS_9allocatorIcEEEEN8nlohmann16json_abi_v3_11_210basic_jsonINS_3mapENS_6vectorES8_bxydS6_NSA_14adl_serializerENSD_IhNS6_IhEEEEEEEEPNS_11__tree_nodeISI_PvEElEEllvEEvRT_T0_, symObjAddr: 0x18200, symBinAddr: 0x1000202F4, symSize: 0x50 }
  - { offsetInCU: 0x1FB60, offset: 0x1FB60, size: 0x8, addend: 0x0, symName: __ZNSt3__17advanceB7v160006INS_14__map_iteratorINS_15__tree_iteratorINS_12__value_typeINS_12basic_stringIcNS_11char_traitsIcEENS_9allocatorIcEEEEN8nlohmann16json_abi_v3_11_210basic_jsonINS_3mapENS_6vectorES9_bxydS7_NSB_14adl_serializerENSE_IhNS7_IhEEEEEEEEPNS_11__tree_nodeISJ_PvEElEEEEiivEEvRT_T0_, symObjAddr: 0x1ED38, symBinAddr: 0x100026E2C, symSize: 0x58 }
  - { offsetInCU: 0x1FBF1, offset: 0x1FBF1, size: 0x8, addend: 0x0, symName: __ZNSt3__17advanceB7v160006INS_11__wrap_iterIPN8nlohmann16json_abi_v3_11_210basic_jsonINS_3mapENS_6vectorENS_12basic_stringIcNS_11char_traitsIcEENS_9allocatorIcEEEEbxydSA_NS3_14adl_serializerENS6_IhNSA_IhEEEEEEEEiivEEvRT_T0_, symObjAddr: 0x1ED90, symBinAddr: 0x100026E84, symSize: 0x58 }
  - { offsetInCU: 0x23369, offset: 0x23369, size: 0x8, addend: 0x0, symName: __ZNSt3__17advanceB7v160006IPKcllvEEvRT_T0_, symObjAddr: 0x30AD8, symBinAddr: 0x100038BCC, symSize: 0x50 }
  - { offsetInCU: 0x2A939, offset: 0x2A939, size: 0x8, addend: 0x0, symName: __ZNSt3__17advanceB7v160006IPNS_9sub_matchIPKcEEmmvEEvRT_T0_, symObjAddr: 0x4D118, symBinAddr: 0x10005520C, symSize: 0x50 }
  - { offsetInCU: 0x2A9A4, offset: 0x2A9A4, size: 0x8, addend: 0x0, symName: __ZNSt3__17advanceB7v160006IPNS_4pairImPKcEEmmvEEvRT_T0_, symObjAddr: 0x4D7BC, symBinAddr: 0x1000558B0, symSize: 0x50 }
  - { offsetInCU: 0x2AF44, offset: 0x2AF44, size: 0x8, addend: 0x0, symName: __ZNSt3__17advanceB7v160006INS_11__wrap_iterIPKcEEllvEEvRT_T0_, symObjAddr: 0x4F638, symBinAddr: 0x10005772C, symSize: 0x50 }
  - { offsetInCU: 0x2C253, offset: 0x2C253, size: 0x8, addend: 0x0, symName: __ZNSt3__17advanceB7v160006INS_20__map_const_iteratorINS_21__tree_const_iteratorINS_12__value_typeINS_12basic_stringIcNS_11char_traitsIcEENS_9allocatorIcEEEEN8nlohmann16json_abi_v3_11_210basic_jsonINS_3mapENS_6vectorES9_bxydS7_NSB_14adl_serializerENSE_IhNS7_IhEEEEEEEEPNS_11__tree_nodeISJ_PvEElEEEEllvEEvRT_T0_, symObjAddr: 0x57740, symBinAddr: 0x10005F834, symSize: 0x50 }
  - { offsetInCU: 0x2C2E4, offset: 0x2C2E4, size: 0x8, addend: 0x0, symName: __ZNSt3__124__put_character_sequenceB7v160006IcNS_11char_traitsIcEEEERNS_13basic_ostreamIT_T0_EES7_PKS4_m, symObjAddr: 0x59940, symBinAddr: 0x100061A34, symSize: 0x1EC }
  - { offsetInCU: 0x35791, offset: 0x35791, size: 0x8, addend: 0x0, symName: __ZNSt3__17getlineB7v160006IcNS_11char_traitsIcEENS_9allocatorIcEEEERNS_13basic_istreamIT_T0_EES9_RNS_12basic_stringIS6_S7_T1_EE, symObjAddr: 0xB34, symBinAddr: 0x100008C28, symSize: 0x5C }
  - { offsetInCU: 0x357E9, offset: 0x357E9, size: 0x8, addend: 0x0, symName: __ZNSt3__1eqB7v160006IcNS_11char_traitsIcEENS_9allocatorIcEEEEbRKNS_12basic_stringIT_T0_T1_EEPKS6_, symObjAddr: 0xC08, symBinAddr: 0x100008CFC, symSize: 0xAC }
  - { offsetInCU: 0x35850, offset: 0x35850, size: 0x8, addend: 0x0, symName: __ZNSt3__1lsB7v160006IcNS_11char_traitsIcEENS_9allocatorIcEEEERNS_13basic_ostreamIT_T0_EES9_RKNS_12basic_stringIS6_S7_T1_EE, symObjAddr: 0x16B8, symBinAddr: 0x1000097AC, symSize: 0x4C }
  - { offsetInCU: 0x358C9, offset: 0x358C9, size: 0x8, addend: 0x0, symName: __ZNSt3__1neB7v160006IPN8nlohmann16json_abi_v3_11_210basic_jsonINS_3mapENS_6vectorENS_12basic_stringIcNS_11char_traitsIcEENS_9allocatorIcEEEEbxydS9_NS2_14adl_serializerENS5_IhNS9_IhEEEEEEEEbRKNS_11__wrap_iterIT_EESL_, symObjAddr: 0x1BCC, symBinAddr: 0x100009CC0, symSize: 0x34 }
  - { offsetInCU: 0x3590C, offset: 0x3590C, size: 0x8, addend: 0x0, symName: __ZNSt3__1lsB7v160006INS_11char_traitsIcEEEERNS_13basic_ostreamIcT_EES6_PKc, symObjAddr: 0x2448, symBinAddr: 0x10000A53C, symSize: 0x48 }
  - { offsetInCU: 0x35952, offset: 0x35952, size: 0x8, addend: 0x0, symName: __ZNSt3__14endlB7v160006IcNS_11char_traitsIcEEEERNS_13basic_ostreamIT_T0_EES7_, symObjAddr: 0x24BC, symBinAddr: 0x10000A5B0, symSize: 0x58 }
  - { offsetInCU: 0x35CC0, offset: 0x35CC0, size: 0x8, addend: 0x0, symName: __ZNSt3__112regex_searchB7v160006IPKcNS_9allocatorINS_9sub_matchINS_11__wrap_iterIS2_EEEEEEcNS_12regex_traitsIcEEEEbNS5_IT_EESC_RNS_13match_resultsISC_T0_EERKNS_11basic_regexIT1_T2_EENS_15regex_constants15match_flag_typeE, symObjAddr: 0x26A8, symBinAddr: 0x10000A79C, symSize: 0x124 }
  - { offsetInCU: 0x35F2D, offset: 0x35F2D, size: 0x8, addend: 0x0, symName: __ZNSt3__1rsB7v160006IcNS_11char_traitsIcEENS_9allocatorIcEEEERNS_13basic_istreamIT_T0_EES9_RNS_12basic_stringIS6_S7_T1_EE, symObjAddr: 0x2D74, symBinAddr: 0x10000AE68, symSize: 0x31C }
  - { offsetInCU: 0x36008, offset: 0x36008, size: 0x8, addend: 0x0, symName: __ZNSt3__12wsB7v160006IcNS_11char_traitsIcEEEERNS_13basic_istreamIT_T0_EES7_, symObjAddr: 0x3288, symBinAddr: 0x10000B37C, symSize: 0x238 }
  - { offsetInCU: 0x36090, offset: 0x36090, size: 0x8, addend: 0x0, symName: __ZNSt3__111make_uniqueB7v160006I6CsoundJEEENS_11__unique_ifIT_E15__unique_singleEDpOT0_, symObjAddr: 0x3E7C, symBinAddr: 0x10000BF70, symSize: 0x64 }
  - { offsetInCU: 0x360BD, offset: 0x360BD, size: 0x8, addend: 0x0, symName: __ZNSt3__111make_uniqueB7v160006I13CSOUND_PARAMSJEEENS_11__unique_ifIT_E15__unique_singleEDpOT0_, symObjAddr: 0x3F58, symBinAddr: 0x10000C04C, symSize: 0x48 }
  - { offsetInCU: 0x360EA, offset: 0x360EA, size: 0x8, addend: 0x0, symName: __ZNSt3__1plB7v160006IcNS_11char_traitsIcEENS_9allocatorIcEEEENS_12basic_stringIT_T0_T1_EEOS9_PKS6_, symObjAddr: 0x4300, symBinAddr: 0x10000C3F4, symSize: 0x40 }
  - { offsetInCU: 0x38925, offset: 0x38925, size: 0x8, addend: 0x0, symName: __ZNSt3__119__debug_db_insert_cB7v160006INS_6vectorIcNS_9allocatorIcEEEEEEvPT_, symObjAddr: 0x5570, symBinAddr: 0x10000D664, symSize: 0x10 }
  - { offsetInCU: 0x38EDC, offset: 0x38EDC, size: 0x8, addend: 0x0, symName: __ZNSt3__1neB7v160006IPKcEEbRKNS_11__wrap_iterIT_EES7_, symObjAddr: 0x799C, symBinAddr: 0x10000FA90, symSize: 0x34 }
  - { offsetInCU: 0x38F1F, offset: 0x38F1F, size: 0x8, addend: 0x0, symName: __ZNSt3__1eqB7v160006IPKcEEbRKNS_11__wrap_iterIT_EES7_, symObjAddr: 0x7A54, symBinAddr: 0x10000FB48, symSize: 0x48 }
  - { offsetInCU: 0x38F63, offset: 0x38F63, size: 0x8, addend: 0x0, symName: __ZNSt3__121__convert_to_integralB7v160006Ei, symObjAddr: 0x7AB4, symBinAddr: 0x10000FBA8, symSize: 0x14 }
  - { offsetInCU: 0x38F8F, offset: 0x38F8F, size: 0x8, addend: 0x0, symName: __ZNSt3__19__advanceB7v160006INS_11__wrap_iterIPKcEEEEvRT_NS_15iterator_traitsIS5_E15difference_typeENS_26random_access_iterator_tagE, symObjAddr: 0x7AC8, symBinAddr: 0x10000FBBC, symSize: 0x2C }
  - { offsetInCU: 0x38FDA, offset: 0x38FDA, size: 0x8, addend: 0x0, symName: __ZNSt3__112__to_addressB7v160006IcEEPT_S2_, symObjAddr: 0x7D7C, symBinAddr: 0x10000FE70, symSize: 0x14 }
  - { offsetInCU: 0x3900F, offset: 0x3900F, size: 0x8, addend: 0x0, symName: __ZNSt3__13maxB7v160006ImEERKT_S3_S3_, symObjAddr: 0x8190, symBinAddr: 0x100010284, symSize: 0x2C }
  - { offsetInCU: 0x39052, offset: 0x39052, size: 0x8, addend: 0x0, symName: __ZNSt3__13minB7v160006ImEERKT_S3_S3_, symObjAddr: 0x81BC, symBinAddr: 0x1000102B0, symSize: 0x2C }
  - { offsetInCU: 0x3927F, offset: 0x3927F, size: 0x8, addend: 0x0, symName: __ZNSt3__13minB7v160006ImNS_6__lessImmEEEERKT_S5_S5_T0_, symObjAddr: 0x8248, symBinAddr: 0x10001033C, symSize: 0x54 }
  - { offsetInCU: 0x39315, offset: 0x39315, size: 0x8, addend: 0x0, symName: __ZNSt3__120__throw_length_errorB7v160006EPKc, symObjAddr: 0x8324, symBinAddr: 0x100010418, symSize: 0x64 }
  - { offsetInCU: 0x3933D, offset: 0x3933D, size: 0x8, addend: 0x0, symName: __ZNSt3__13maxB7v160006ImNS_6__lessImmEEEERKT_S5_S5_T0_, symObjAddr: 0x8468, symBinAddr: 0x10001055C, symSize: 0x54 }
  - { offsetInCU: 0x39397, offset: 0x39397, size: 0x8, addend: 0x0, symName: __ZNSt3__119__allocate_at_leastB7v160006INS_9allocatorIcEEEENS_19__allocation_resultINS_16allocator_traitsIT_E7pointerEEERS5_m, symObjAddr: 0x85CC, symBinAddr: 0x1000106C0, symSize: 0x40 }
  - { offsetInCU: 0x393DA, offset: 0x393DA, size: 0x8, addend: 0x0, symName: __ZNSt3__117__libcpp_allocateB7v160006Emm, symObjAddr: 0x8750, symBinAddr: 0x100010844, symSize: 0x60 }
  - { offsetInCU: 0x39434, offset: 0x39434, size: 0x8, addend: 0x0, symName: __ZNSt3__124__is_overaligned_for_newB7v160006Em, symObjAddr: 0x87B0, symBinAddr: 0x1000108A4, symSize: 0x20 }
  - { offsetInCU: 0x39462, offset: 0x39462, size: 0x8, addend: 0x0, symName: __ZNSt3__121__libcpp_operator_newB7v160006IJmSt11align_val_tEEEPvDpT_, symObjAddr: 0x87D0, symBinAddr: 0x1000108C4, symSize: 0x2C }
  - { offsetInCU: 0x394AF, offset: 0x394AF, size: 0x8, addend: 0x0, symName: __ZNSt3__121__libcpp_operator_newB7v160006IJmEEEPvDpT_, symObjAddr: 0x87FC, symBinAddr: 0x1000108F0, symSize: 0x24 }
  - { offsetInCU: 0x394E8, offset: 0x394E8, size: 0x8, addend: 0x0, symName: __ZNSt3__142__uninitialized_allocator_move_if_noexceptB7v160006INS_9allocatorIcEENS_16reverse_iteratorIPcEES5_cvEET1_RT_T0_S9_S6_, symObjAddr: 0x893C, symBinAddr: 0x100010A30, symSize: 0x78 }
  - { offsetInCU: 0x39567, offset: 0x39567, size: 0x8, addend: 0x0, symName: __ZNSt3__14swapB7v160006IPcEENS_9enable_ifIXaasr21is_move_constructibleIT_EE5valuesr18is_move_assignableIS3_EE5valueEvE4typeERS3_S6_, symObjAddr: 0x8A00, symBinAddr: 0x100010AF4, symSize: 0x3C }
  - { offsetInCU: 0x395B9, offset: 0x395B9, size: 0x8, addend: 0x0, symName: __ZNSt3__125__debug_db_invalidate_allB7v160006INS_6vectorIcNS_9allocatorIcEEEEEEvPT_, symObjAddr: 0x8AE8, symBinAddr: 0x100010BDC, symSize: 0x10 }
  - { offsetInCU: 0x395EA, offset: 0x395EA, size: 0x8, addend: 0x0, symName: __ZNSt3__14moveB7v160006INS_16reverse_iteratorIPcEES3_EET0_T_S5_S4_, symObjAddr: 0x8B40, symBinAddr: 0x100010C34, symSize: 0x78 }
  - { offsetInCU: 0x39644, offset: 0x39644, size: 0x8, addend: 0x0, symName: __ZNSt3__16__moveB7v160006INS_17_ClassicAlgPolicyENS_16reverse_iteratorIPcEES4_S4_EENS_4pairIT0_T2_EES6_T1_S7_, symObjAddr: 0x8BB8, symBinAddr: 0x100010CAC, symSize: 0x64 }
  - { offsetInCU: 0x396B0, offset: 0x396B0, size: 0x8, addend: 0x0, symName: __ZNSt3__123__dispatch_copy_or_moveB7v160006INS_17_ClassicAlgPolicyENS_11__move_loopIS1_EENS_14__move_trivialENS_16reverse_iteratorIPcEES7_S7_EENS_4pairIT2_T4_EES9_T3_SA_, symObjAddr: 0x8C1C, symBinAddr: 0x100010D10, symSize: 0x64 }
  - { offsetInCU: 0x3972E, offset: 0x3972E, size: 0x8, addend: 0x0, symName: __ZNSt3__121__unwrap_and_dispatchB7v160006INS_10__overloadINS_11__move_loopINS_17_ClassicAlgPolicyEEENS_14__move_trivialEEENS_16reverse_iteratorIPcEES9_S9_Li0EEENS_4pairIT0_T2_EESB_T1_SC_, symObjAddr: 0x8C80, symBinAddr: 0x100010D74, symSize: 0x12C }
  - { offsetInCU: 0x397BE, offset: 0x397BE, size: 0x8, addend: 0x0, symName: __ZNSt3__114__unwrap_rangeB7v160006INS_16reverse_iteratorIPcEES3_EENS_4pairIT0_S5_EET_S7_, symObjAddr: 0x8DAC, symBinAddr: 0x100010EA0, symSize: 0x84 }
  - { offsetInCU: 0x39A35, offset: 0x39A35, size: 0x8, addend: 0x0, symName: __ZNSt3__113__unwrap_iterB7v160006INS_16reverse_iteratorIPcEENS_18__unwrap_iter_implIS3_Lb0EEELi0EEEDTclsrT0_8__unwrapclsr3stdE7declvalIT_EEEES7_, symObjAddr: 0x8ED0, symBinAddr: 0x100010FC4, symSize: 0x44 }
  - { offsetInCU: 0x39A79, offset: 0x39A79, size: 0x8, addend: 0x0, symName: __ZNSt3__19make_pairB7v160006INS_16reverse_iteratorIPcEES3_EENS_4pairINS_18__unwrap_ref_decayIT_E4typeENS5_IT0_E4typeEEEOS6_OS9_, symObjAddr: 0x8F14, symBinAddr: 0x100011008, symSize: 0x38 }
  - { offsetInCU: 0x39AC8, offset: 0x39AC8, size: 0x8, addend: 0x0, symName: __ZNSt3__114__rewrap_rangeB7v160006INS_16reverse_iteratorIPcEES3_EET_S4_T0_, symObjAddr: 0x8F4C, symBinAddr: 0x100011040, symSize: 0x5C }
  - { offsetInCU: 0x39B14, offset: 0x39B14, size: 0x8, addend: 0x0, symName: __ZNSt3__113__rewrap_iterB7v160006INS_16reverse_iteratorIPcEES3_NS_18__unwrap_iter_implIS3_Lb0EEEEET_S6_T0_, symObjAddr: 0x8FA8, symBinAddr: 0x10001109C, symSize: 0x74 }
  - { offsetInCU: 0x39B69, offset: 0x39B69, size: 0x8, addend: 0x0, symName: __ZNSt3__1neB7v160006IPcS1_EEbRKNS_16reverse_iteratorIT_EERKNS2_IT0_EE, symObjAddr: 0x901C, symBinAddr: 0x100011110, symSize: 0x48 }
  - { offsetInCU: 0x39D20, offset: 0x39D20, size: 0x8, addend: 0x0, symName: __ZNSt3__119__libcpp_deallocateB7v160006EPvmm, symObjAddr: 0x940C, symBinAddr: 0x100011500, symSize: 0x60 }
  - { offsetInCU: 0x39D86, offset: 0x39D86, size: 0x8, addend: 0x0, symName: __ZNSt3__127__do_deallocate_handle_sizeB7v160006IJSt11align_val_tEEEvPvmDpT_, symObjAddr: 0x946C, symBinAddr: 0x100011560, symSize: 0x30 }
  - { offsetInCU: 0x39DDA, offset: 0x39DDA, size: 0x8, addend: 0x0, symName: __ZNSt3__127__do_deallocate_handle_sizeB7v160006IJEEEvPvmDpT_, symObjAddr: 0x949C, symBinAddr: 0x100011590, symSize: 0x28 }
  - { offsetInCU: 0x39E19, offset: 0x39E19, size: 0x8, addend: 0x0, symName: __ZNSt3__124__libcpp_operator_deleteB7v160006IJPvSt11align_val_tEEEvDpT_, symObjAddr: 0x94C4, symBinAddr: 0x1000115B8, symSize: 0x2C }
  - { offsetInCU: 0x39E63, offset: 0x39E63, size: 0x8, addend: 0x0, symName: __ZNSt3__124__libcpp_operator_deleteB7v160006IJPvEEEvDpT_, symObjAddr: 0x94F0, symBinAddr: 0x1000115E4, symSize: 0x24 }
  - { offsetInCU: 0x39E99, offset: 0x39E99, size: 0x8, addend: 0x0, symName: __ZNSt3__125__debug_db_invalidate_allB7v160006INS_12basic_stringIcNS_11char_traitsIcEENS_9allocatorIcEEEEEEvPT_, symObjAddr: 0x9D40, symBinAddr: 0x100011E34, symSize: 0x10 }
  - { offsetInCU: 0x39EFE, offset: 0x39EFE, size: 0x8, addend: 0x0, symName: __ZNSt3__118__debug_db_erase_cB7v160006INS_6vectorIcNS_9allocatorIcEEEEEEvPT_, symObjAddr: 0xA2F0, symBinAddr: 0x1000123E4, symSize: 0x10 }
  - { offsetInCU: 0x39F2F, offset: 0x39F2F, size: 0x8, addend: 0x0, symName: __ZNSt3__15beginB7v160006INS_12basic_stringIcNS_11char_traitsIcEENS_9allocatorIcEEEEEEDTcldtfp_5beginEERKT_, symObjAddr: 0xA39C, symBinAddr: 0x100012490, symSize: 0x2C }
  - { offsetInCU: 0x39F64, offset: 0x39F64, size: 0x8, addend: 0x0, symName: __ZNSt3__13endB7v160006INS_12basic_stringIcNS_11char_traitsIcEENS_9allocatorIcEEEEEEDTcldtfp_3endEERKT_, symObjAddr: 0xA3C8, symBinAddr: 0x1000124BC, symSize: 0x2C }
  - { offsetInCU: 0x39FCD, offset: 0x39FCD, size: 0x8, addend: 0x0, symName: __ZNSt3__119__debug_db_insert_cB7v160006INS_6vectorIPN8nlohmann16json_abi_v3_11_210basic_jsonINS_3mapES1_NS_12basic_stringIcNS_11char_traitsIcEENS_9allocatorIcEEEEbxydS9_NS3_14adl_serializerENS1_IhNS9_IhEEEEEENS9_ISG_EEEEEEvPT_, symObjAddr: 0xDE14, symBinAddr: 0x100015F08, symSize: 0x10 }
  - { offsetInCU: 0x39FFF, offset: 0x39FFF, size: 0x8, addend: 0x0, symName: __ZNSt3__125__debug_db_invalidate_allB7v160006INS_6vectorIbNS_9allocatorIbEEEEEEvPT_, symObjAddr: 0xE744, symBinAddr: 0x100016838, symSize: 0x10 }
  - { offsetInCU: 0x3A21C, offset: 0x3A21C, size: 0x8, addend: 0x0, symName: __ZNSt3__119__allocate_at_leastB7v160006INS_9allocatorImEEEENS_19__allocation_resultINS_16allocator_traitsIT_E7pointerEEERS5_m, symObjAddr: 0xE9E8, symBinAddr: 0x100016ADC, symSize: 0x40 }
  - { offsetInCU: 0x3A25F, offset: 0x3A25F, size: 0x8, addend: 0x0, symName: __ZNSt3__18distanceB7v160006INS_14__bit_iteratorINS_6vectorIbNS_9allocatorIbEEEELb0ELm0EEEEENS_15iterator_traitsIT_E15difference_typeES8_S8_, symObjAddr: 0xEB64, symBinAddr: 0x100016C58, symSize: 0x5C }
  - { offsetInCU: 0x3A2A4, offset: 0x3A2A4, size: 0x8, addend: 0x0, symName: __ZNSt3__14copyB7v160006INS_6vectorIbNS_9allocatorIbEEEELb0EEENS_14__bit_iteratorIT_Lb0EXLi0EEEENS5_IS6_XT0_EXLi0EEEES8_S7_, symObjAddr: 0xEBF4, symBinAddr: 0x100016CE8, symSize: 0xE8 }
  - { offsetInCU: 0x3A306, offset: 0x3A306, size: 0x8, addend: 0x0, symName: __ZNSt3__110__distanceB7v160006INS_14__bit_iteratorINS_6vectorIbNS_9allocatorIbEEEELb0ELm0EEEEENS_15iterator_traitsIT_E15difference_typeES8_S8_NS_26random_access_iterator_tagE, symObjAddr: 0xED40, symBinAddr: 0x100016E34, symSize: 0x38 }
  - { offsetInCU: 0x3A356, offset: 0x3A356, size: 0x8, addend: 0x0, symName: __ZNSt3__1miB7v160006ERKNS_14__bit_iteratorINS_6vectorIbNS_9allocatorIbEEEELb0ELm0EEES7_, symObjAddr: 0xED78, symBinAddr: 0x100016E6C, symSize: 0x48 }
  - { offsetInCU: 0x3A393, offset: 0x3A393, size: 0x8, addend: 0x0, symName: __ZNSt3__13minB7v160006IlEERKT_S3_S3_, symObjAddr: 0xF5A8, symBinAddr: 0x10001769C, symSize: 0x2C }
  - { offsetInCU: 0x3A3D7, offset: 0x3A3D7, size: 0x8, addend: 0x0, symName: __ZNSt3__112__to_addressB7v160006ImEEPT_S2_, symObjAddr: 0xF618, symBinAddr: 0x10001770C, symSize: 0x14 }
  - { offsetInCU: 0x3A40C, offset: 0x3A40C, size: 0x8, addend: 0x0, symName: __ZNSt3__13minB7v160006IlNS_6__lessIllEEEERKT_S5_S5_T0_, symObjAddr: 0xF62C, symBinAddr: 0x100017720, symSize: 0x54 }
  - { offsetInCU: 0x3A4A1, offset: 0x3A4A1, size: 0x8, addend: 0x0, symName: __ZNSt3__14copyB7v160006IPmS1_EET0_T_S3_S2_, symObjAddr: 0xF6B4, symBinAddr: 0x1000177A8, symSize: 0x40 }
  - { offsetInCU: 0x3A4FB, offset: 0x3A4FB, size: 0x8, addend: 0x0, symName: __ZNSt3__16__copyB7v160006INS_17_ClassicAlgPolicyEPmS2_S2_EENS_4pairIT0_T2_EES4_T1_S5_, symObjAddr: 0xF6F4, symBinAddr: 0x1000177E8, symSize: 0x44 }
  - { offsetInCU: 0x3A567, offset: 0x3A567, size: 0x8, addend: 0x0, symName: __ZNSt3__123__dispatch_copy_or_moveB7v160006INS_17_ClassicAlgPolicyENS_11__copy_loopIS1_EENS_14__copy_trivialEPmS5_S5_EENS_4pairIT2_T4_EES7_T3_S8_, symObjAddr: 0xF738, symBinAddr: 0x10001782C, symSize: 0x44 }
  - { offsetInCU: 0x3A5E5, offset: 0x3A5E5, size: 0x8, addend: 0x0, symName: __ZNSt3__121__unwrap_and_dispatchB7v160006INS_10__overloadINS_11__copy_loopINS_17_ClassicAlgPolicyEEENS_14__copy_trivialEEEPmS7_S7_Li0EEENS_4pairIT0_T2_EES9_T1_SA_, symObjAddr: 0xF77C, symBinAddr: 0x100017870, symSize: 0xB4 }
  - { offsetInCU: 0x3A673, offset: 0x3A673, size: 0x8, addend: 0x0, symName: __ZNSt3__114__unwrap_rangeB7v160006IPmS1_EENS_4pairIT0_S3_EET_S5_, symObjAddr: 0xF830, symBinAddr: 0x100017924, symSize: 0x60 }
  - { offsetInCU: 0x3A808, offset: 0x3A808, size: 0x8, addend: 0x0, symName: __ZNSt3__113__unwrap_iterB7v160006IPmNS_18__unwrap_iter_implIS1_Lb1EEELi0EEEDTclsrT0_8__unwrapclsr3stdE7declvalIT_EEEES5_, symObjAddr: 0xF8D8, symBinAddr: 0x1000179CC, symSize: 0x24 }
  - { offsetInCU: 0x3A84C, offset: 0x3A84C, size: 0x8, addend: 0x0, symName: __ZNSt3__19make_pairB7v160006IPmS1_EENS_4pairINS_18__unwrap_ref_decayIT_E4typeENS3_IT0_E4typeEEEOS4_OS7_, symObjAddr: 0xF8FC, symBinAddr: 0x1000179F0, symSize: 0x38 }
  - { offsetInCU: 0x3A89B, offset: 0x3A89B, size: 0x8, addend: 0x0, symName: __ZNSt3__114__rewrap_rangeB7v160006IPmS1_EET_S2_T0_, symObjAddr: 0xF934, symBinAddr: 0x100017A28, symSize: 0x2C }
  - { offsetInCU: 0x3A8E7, offset: 0x3A8E7, size: 0x8, addend: 0x0, symName: __ZNSt3__113__rewrap_iterB7v160006IPmS1_NS_18__unwrap_iter_implIS1_Lb1EEEEET_S4_T0_, symObjAddr: 0xF960, symBinAddr: 0x100017A54, symSize: 0x3C }
  - { offsetInCU: 0x3A93C, offset: 0x3A93C, size: 0x8, addend: 0x0, symName: __ZNSt3__119__copy_trivial_implB7v160006ImmEENS_4pairIPT_PT0_EES3_S3_S5_, symObjAddr: 0xF99C, symBinAddr: 0x100017A90, symSize: 0x84 }
  - { offsetInCU: 0x3A9A4, offset: 0x3A9A4, size: 0x8, addend: 0x0, symName: __ZNSt3__19make_pairB7v160006IRPmS1_EENS_4pairINS_18__unwrap_ref_decayIT_E4typeENS4_IT0_E4typeEEEOS5_OS8_, symObjAddr: 0xFA20, symBinAddr: 0x100017B14, symSize: 0x38 }
  - { offsetInCU: 0x3AA47, offset: 0x3AA47, size: 0x8, addend: 0x0, symName: __ZNSt3__14swapB7v160006IPmEENS_9enable_ifIXaasr21is_move_constructibleIT_EE5valuesr18is_move_assignableIS3_EE5valueEvE4typeERS3_S6_, symObjAddr: 0xFC14, symBinAddr: 0x100017D08, symSize: 0x3C }
  - { offsetInCU: 0x3AA99, offset: 0x3AA99, size: 0x8, addend: 0x0, symName: __ZNSt3__14swapB7v160006ImEENS_9enable_ifIXaasr21is_move_constructibleIT_EE5valuesr18is_move_assignableIS2_EE5valueEvE4typeERS2_S5_, symObjAddr: 0xFC50, symBinAddr: 0x100017D44, symSize: 0x3C }
  - { offsetInCU: 0x3AAEB, offset: 0x3AAEB, size: 0x8, addend: 0x0, symName: __ZNSt3__116__swap_allocatorB7v160006INS_9allocatorImEEEEvRT_S4_NS_17integral_constantIbLb0EEE, symObjAddr: 0xFC8C, symBinAddr: 0x100017D80, symSize: 0x14 }
  - { offsetInCU: 0x3AB30, offset: 0x3AB30, size: 0x8, addend: 0x0, symName: __ZNSt3__125__debug_db_invalidate_allB7v160006INS_6vectorIbNS_9allocatorIbEEE16__destroy_vectorEEEvPT_, symObjAddr: 0xFED4, symBinAddr: 0x100017FC8, symSize: 0x10 }
  - { offsetInCU: 0x3AB62, offset: 0x3AB62, size: 0x8, addend: 0x0, symName: __ZNSt3__118__debug_db_erase_cB7v160006INS_6vectorIPN8nlohmann16json_abi_v3_11_210basic_jsonINS_3mapES1_NS_12basic_stringIcNS_11char_traitsIcEENS_9allocatorIcEEEEbxydS9_NS3_14adl_serializerENS1_IhNS9_IhEEEEEENS9_ISG_EEEEEEvPT_, symObjAddr: 0x10110, symBinAddr: 0x100018204, symSize: 0x10 }
  - { offsetInCU: 0x3AB94, offset: 0x3AB94, size: 0x8, addend: 0x0, symName: __ZNSt3__112__to_addressB7v160006IPN8nlohmann16json_abi_v3_11_210basic_jsonINS_3mapENS_6vectorENS_12basic_stringIcNS_11char_traitsIcEENS_9allocatorIcEEEEbxydS9_NS2_14adl_serializerENS5_IhNS9_IhEEEEEEEEPT_SI_, symObjAddr: 0x10254, symBinAddr: 0x100018348, symSize: 0x14 }
  - { offsetInCU: 0x3ACFC, offset: 0x3ACFC, size: 0x8, addend: 0x0, symName: __ZNSt3__125__throw_bad_function_callB7v160006Ev, symObjAddr: 0x11C6C, symBinAddr: 0x100019D60, symSize: 0x38 }
  - { offsetInCU: 0x3AD4E, offset: 0x3AD4E, size: 0x8, addend: 0x0, symName: __ZNSt3__112__to_addressB7v160006IN8nlohmann16json_abi_v3_11_210basic_jsonINS_3mapENS_6vectorENS_12basic_stringIcNS_11char_traitsIcEENS_9allocatorIcEEEEbxydS9_NS2_14adl_serializerENS5_IhNS9_IhEEEEEEEEPT_SH_, symObjAddr: 0x1230C, symBinAddr: 0x10001A400, symSize: 0x14 }
  - { offsetInCU: 0x3AD83, offset: 0x3AD83, size: 0x8, addend: 0x0, symName: __ZNSt3__119__allocate_at_leastB7v160006INS_9allocatorIN8nlohmann16json_abi_v3_11_210basic_jsonINS_3mapENS_6vectorENS_12basic_stringIcNS_11char_traitsIcEENS1_IcEEEEbxydS1_NS3_14adl_serializerENS6_IhNS1_IhEEEEEEEEEENS_19__allocation_resultINS_16allocator_traitsIT_E7pointerEEERSJ_m, symObjAddr: 0x12940, symBinAddr: 0x10001AA34, symSize: 0x40 }
  - { offsetInCU: 0x3ADC6, offset: 0x3ADC6, size: 0x8, addend: 0x0, symName: __ZNSt3__142__uninitialized_allocator_move_if_noexceptB7v160006INS_9allocatorIN8nlohmann16json_abi_v3_11_210basic_jsonINS_3mapENS_6vectorENS_12basic_stringIcNS_11char_traitsIcEENS1_IcEEEEbxydS1_NS3_14adl_serializerENS6_IhNS1_IhEEEEEEEENS_16reverse_iteratorIPSF_EESJ_SJ_EET2_RT_T0_T1_SK_, symObjAddr: 0x12BC8, symBinAddr: 0x10001ACBC, symSize: 0x12C }
  - { offsetInCU: 0x3AE67, offset: 0x3AE67, size: 0x8, addend: 0x0, symName: __ZNSt3__14swapB7v160006IPN8nlohmann16json_abi_v3_11_210basic_jsonINS_3mapENS_6vectorENS_12basic_stringIcNS_11char_traitsIcEENS_9allocatorIcEEEEbxydS9_NS2_14adl_serializerENS5_IhNS9_IhEEEEEEEENS_9enable_ifIXaasr21is_move_constructibleIT_EE5valuesr18is_move_assignableISI_EE5valueEvE4typeERSI_SL_, symObjAddr: 0x12D40, symBinAddr: 0x10001AE34, symSize: 0x3C }
  - { offsetInCU: 0x3AEB9, offset: 0x3AEB9, size: 0x8, addend: 0x0, symName: __ZNSt3__125__debug_db_invalidate_allB7v160006INS_6vectorIN8nlohmann16json_abi_v3_11_210basic_jsonINS_3mapES1_NS_12basic_stringIcNS_11char_traitsIcEENS_9allocatorIcEEEEbxydS9_NS3_14adl_serializerENS1_IhNS9_IhEEEEEENS9_ISF_EEEEEEvPT_, symObjAddr: 0x12E28, symBinAddr: 0x10001AF1C, symSize: 0x10 }
  - { offsetInCU: 0x3AEEA, offset: 0x3AEEA, size: 0x8, addend: 0x0, symName: __ZNSt3__122__make_exception_guardB7v160006INS_29_AllocatorDestroyRangeReverseINS_9allocatorIN8nlohmann16json_abi_v3_11_210basic_jsonINS_3mapENS_6vectorENS_12basic_stringIcNS_11char_traitsIcEENS2_IcEEEEbxydS2_NS4_14adl_serializerENS7_IhNS2_IhEEEEEEEENS_16reverse_iteratorIPSG_EEEEEENS_28__exception_guard_exceptionsIT_EESN_, symObjAddr: 0x12E80, symBinAddr: 0x10001AF74, symSize: 0x4C }
  - { offsetInCU: 0x3AF20, offset: 0x3AF20, size: 0x8, addend: 0x0, symName: __ZNSt3__1neB7v160006IPN8nlohmann16json_abi_v3_11_210basic_jsonINS_3mapENS_6vectorENS_12basic_stringIcNS_11char_traitsIcEENS_9allocatorIcEEEEbxydS9_NS2_14adl_serializerENS5_IhNS9_IhEEEEEESG_EEbRKNS_16reverse_iteratorIT_EERKNSH_IT0_EE, symObjAddr: 0x12F10, symBinAddr: 0x10001B004, symSize: 0x48 }
  - { offsetInCU: 0x3AF6C, offset: 0x3AF6C, size: 0x8, addend: 0x0, symName: __ZNSt3__112__to_addressB7v160006INS_16reverse_iteratorIPN8nlohmann16json_abi_v3_11_210basic_jsonINS_3mapENS_6vectorENS_12basic_stringIcNS_11char_traitsIcEENS_9allocatorIcEEEEbxydSA_NS3_14adl_serializerENS6_IhNSA_IhEEEEEEEEvEENS_5decayIDTclsr19__to_address_helperIT_EE6__callclsr3stdE7declvalIRKSK_EEEEE4typeESM_, symObjAddr: 0x12F58, symBinAddr: 0x10001B04C, symSize: 0x24 }
  - { offsetInCU: 0x3AFCC, offset: 0x3AFCC, size: 0x8, addend: 0x0, symName: __ZNSt3__119__allocator_destroyB7v160006INS_9allocatorIN8nlohmann16json_abi_v3_11_210basic_jsonINS_3mapENS_6vectorENS_12basic_stringIcNS_11char_traitsIcEENS1_IcEEEEbxydS1_NS3_14adl_serializerENS6_IhNS1_IhEEEEEEEENS_16reverse_iteratorINSH_IPSF_EEEESK_EEvRT_T0_T1_, symObjAddr: 0x13208, symBinAddr: 0x10001B2FC, symSize: 0x70 }
  - { offsetInCU: 0x3B031, offset: 0x3B031, size: 0x8, addend: 0x0, symName: __ZNSt3__1neB7v160006INS_16reverse_iteratorIPN8nlohmann16json_abi_v3_11_210basic_jsonINS_3mapENS_6vectorENS_12basic_stringIcNS_11char_traitsIcEENS_9allocatorIcEEEEbxydSA_NS3_14adl_serializerENS6_IhNSA_IhEEEEEEEESI_EEbRKNS1_IT_EERKNS1_IT0_EE, symObjAddr: 0x132B4, symBinAddr: 0x10001B3A8, symSize: 0x60 }
  - { offsetInCU: 0x3B07D, offset: 0x3B07D, size: 0x8, addend: 0x0, symName: __ZNSt3__112__to_addressB7v160006INS_16reverse_iteratorINS1_IPN8nlohmann16json_abi_v3_11_210basic_jsonINS_3mapENS_6vectorENS_12basic_stringIcNS_11char_traitsIcEENS_9allocatorIcEEEEbxydSA_NS3_14adl_serializerENS6_IhNSA_IhEEEEEEEEEEvEENS_5decayIDTclsr19__to_address_helperIT_EE6__callclsr3stdE7declvalIRKSL_EEEEE4typeESN_, symObjAddr: 0x13340, symBinAddr: 0x10001B434, symSize: 0x24 }
  - { offsetInCU: 0x3B0DC, offset: 0x3B0DC, size: 0x8, addend: 0x0, symName: __ZNSt3__119__allocate_at_leastB7v160006INS_9allocatorIPN8nlohmann16json_abi_v3_11_210basic_jsonINS_3mapENS_6vectorENS_12basic_stringIcNS_11char_traitsIcEENS1_IcEEEEbxydS1_NS3_14adl_serializerENS6_IhNS1_IhEEEEEEEEEENS_19__allocation_resultINS_16allocator_traitsIT_E7pointerEEERSK_m, symObjAddr: 0x13ECC, symBinAddr: 0x10001BFC0, symSize: 0x40 }
  - { offsetInCU: 0x3B11F, offset: 0x3B11F, size: 0x8, addend: 0x0, symName: __ZNSt3__142__uninitialized_allocator_move_if_noexceptB7v160006INS_9allocatorIPN8nlohmann16json_abi_v3_11_210basic_jsonINS_3mapENS_6vectorENS_12basic_stringIcNS_11char_traitsIcEENS1_IcEEEEbxydS1_NS3_14adl_serializerENS6_IhNS1_IhEEEEEEEENS_16reverse_iteratorIPSG_EESK_SG_vEET1_RT_T0_SO_SL_, symObjAddr: 0x14080, symBinAddr: 0x10001C174, symSize: 0x78 }
  - { offsetInCU: 0x3B19E, offset: 0x3B19E, size: 0x8, addend: 0x0, symName: __ZNSt3__14swapB7v160006IPPN8nlohmann16json_abi_v3_11_210basic_jsonINS_3mapENS_6vectorENS_12basic_stringIcNS_11char_traitsIcEENS_9allocatorIcEEEEbxydS9_NS2_14adl_serializerENS5_IhNS9_IhEEEEEEEENS_9enable_ifIXaasr21is_move_constructibleIT_EE5valuesr18is_move_assignableISJ_EE5valueEvE4typeERSJ_SM_, symObjAddr: 0x14144, symBinAddr: 0x10001C238, symSize: 0x3C }
  - { offsetInCU: 0x3B1F0, offset: 0x3B1F0, size: 0x8, addend: 0x0, symName: __ZNSt3__125__debug_db_invalidate_allB7v160006INS_6vectorIPN8nlohmann16json_abi_v3_11_210basic_jsonINS_3mapES1_NS_12basic_stringIcNS_11char_traitsIcEENS_9allocatorIcEEEEbxydS9_NS3_14adl_serializerENS1_IhNS9_IhEEEEEENS9_ISG_EEEEEEvPT_, symObjAddr: 0x1422C, symBinAddr: 0x10001C320, symSize: 0x10 }
  - { offsetInCU: 0x3B221, offset: 0x3B221, size: 0x8, addend: 0x0, symName: __ZNSt3__14moveB7v160006INS_16reverse_iteratorIPPN8nlohmann16json_abi_v3_11_210basic_jsonINS_3mapENS_6vectorENS_12basic_stringIcNS_11char_traitsIcEENS_9allocatorIcEEEEbxydSA_NS3_14adl_serializerENS6_IhNSA_IhEEEEEEEESJ_EET0_T_SL_SK_, symObjAddr: 0x1423C, symBinAddr: 0x10001C330, symSize: 0x78 }
  - { offsetInCU: 0x3B27B, offset: 0x3B27B, size: 0x8, addend: 0x0, symName: __ZNSt3__16__moveB7v160006INS_17_ClassicAlgPolicyENS_16reverse_iteratorIPPN8nlohmann16json_abi_v3_11_210basic_jsonINS_3mapENS_6vectorENS_12basic_stringIcNS_11char_traitsIcEENS_9allocatorIcEEEEbxydSB_NS4_14adl_serializerENS7_IhNSB_IhEEEEEEEESK_SK_EENS_4pairIT0_T2_EESM_T1_SN_, symObjAddr: 0x142B4, symBinAddr: 0x10001C3A8, symSize: 0x64 }
  - { offsetInCU: 0x3B2E7, offset: 0x3B2E7, size: 0x8, addend: 0x0, symName: __ZNSt3__123__dispatch_copy_or_moveB7v160006INS_17_ClassicAlgPolicyENS_11__move_loopIS1_EENS_14__move_trivialENS_16reverse_iteratorIPPN8nlohmann16json_abi_v3_11_210basic_jsonINS_3mapENS_6vectorENS_12basic_stringIcNS_11char_traitsIcEENS_9allocatorIcEEEEbxydSE_NS7_14adl_serializerENSA_IhNSE_IhEEEEEEEESN_SN_EENS_4pairIT2_T4_EESP_T3_SQ_, symObjAddr: 0x14318, symBinAddr: 0x10001C40C, symSize: 0x64 }
  - { offsetInCU: 0x3B365, offset: 0x3B365, size: 0x8, addend: 0x0, symName: __ZNSt3__121__unwrap_and_dispatchB7v160006INS_10__overloadINS_11__move_loopINS_17_ClassicAlgPolicyEEENS_14__move_trivialEEENS_16reverse_iteratorIPPN8nlohmann16json_abi_v3_11_210basic_jsonINS_3mapENS_6vectorENS_12basic_stringIcNS_11char_traitsIcEENS_9allocatorIcEEEEbxydSG_NS9_14adl_serializerENSC_IhNSG_IhEEEEEEEESP_SP_Li0EEENS_4pairIT0_T2_EESR_T1_SS_, symObjAddr: 0x1437C, symBinAddr: 0x10001C470, symSize: 0x12C }
  - { offsetInCU: 0x3B3F5, offset: 0x3B3F5, size: 0x8, addend: 0x0, symName: __ZNSt3__114__unwrap_rangeB7v160006INS_16reverse_iteratorIPPN8nlohmann16json_abi_v3_11_210basic_jsonINS_3mapENS_6vectorENS_12basic_stringIcNS_11char_traitsIcEENS_9allocatorIcEEEEbxydSA_NS3_14adl_serializerENS6_IhNSA_IhEEEEEEEESJ_EENS_4pairIT0_SL_EET_SN_, symObjAddr: 0x144A8, symBinAddr: 0x10001C59C, symSize: 0x84 }
  - { offsetInCU: 0x3B515, offset: 0x3B515, size: 0x8, addend: 0x0, symName: __ZNSt3__113__unwrap_iterB7v160006INS_16reverse_iteratorIPPN8nlohmann16json_abi_v3_11_210basic_jsonINS_3mapENS_6vectorENS_12basic_stringIcNS_11char_traitsIcEENS_9allocatorIcEEEEbxydSA_NS3_14adl_serializerENS6_IhNSA_IhEEEEEEEENS_18__unwrap_iter_implISJ_Lb0EEELi0EEEDTclsrT0_8__unwrapclsr3stdE7declvalIT_EEEESN_, symObjAddr: 0x145CC, symBinAddr: 0x10001C6C0, symSize: 0x44 }
  - { offsetInCU: 0x3B559, offset: 0x3B559, size: 0x8, addend: 0x0, symName: __ZNSt3__19make_pairB7v160006INS_16reverse_iteratorIPPN8nlohmann16json_abi_v3_11_210basic_jsonINS_3mapENS_6vectorENS_12basic_stringIcNS_11char_traitsIcEENS_9allocatorIcEEEEbxydSA_NS3_14adl_serializerENS6_IhNSA_IhEEEEEEEESJ_EENS_4pairINS_18__unwrap_ref_decayIT_E4typeENSL_IT0_E4typeEEEOSM_OSP_, symObjAddr: 0x14610, symBinAddr: 0x10001C704, symSize: 0x38 }
  - { offsetInCU: 0x3B5A8, offset: 0x3B5A8, size: 0x8, addend: 0x0, symName: __ZNSt3__114__rewrap_rangeB7v160006INS_16reverse_iteratorIPPN8nlohmann16json_abi_v3_11_210basic_jsonINS_3mapENS_6vectorENS_12basic_stringIcNS_11char_traitsIcEENS_9allocatorIcEEEEbxydSA_NS3_14adl_serializerENS6_IhNSA_IhEEEEEEEESJ_EET_SK_T0_, symObjAddr: 0x14648, symBinAddr: 0x10001C73C, symSize: 0x5C }
  - { offsetInCU: 0x3B5F4, offset: 0x3B5F4, size: 0x8, addend: 0x0, symName: __ZNSt3__113__rewrap_iterB7v160006INS_16reverse_iteratorIPPN8nlohmann16json_abi_v3_11_210basic_jsonINS_3mapENS_6vectorENS_12basic_stringIcNS_11char_traitsIcEENS_9allocatorIcEEEEbxydSA_NS3_14adl_serializerENS6_IhNSA_IhEEEEEEEESJ_NS_18__unwrap_iter_implISJ_Lb0EEEEET_SM_T0_, symObjAddr: 0x146A4, symBinAddr: 0x10001C798, symSize: 0x74 }
  - { offsetInCU: 0x3B649, offset: 0x3B649, size: 0x8, addend: 0x0, symName: __ZNSt3__1neB7v160006IPPN8nlohmann16json_abi_v3_11_210basic_jsonINS_3mapENS_6vectorENS_12basic_stringIcNS_11char_traitsIcEENS_9allocatorIcEEEEbxydS9_NS2_14adl_serializerENS5_IhNS9_IhEEEEEESH_EEbRKNS_16reverse_iteratorIT_EERKNSI_IT0_EE, symObjAddr: 0x14718, symBinAddr: 0x10001C80C, symSize: 0x48 }
  - { offsetInCU: 0x3B702, offset: 0x3B702, size: 0x8, addend: 0x0, symName: __ZNSt3__112__to_addressB7v160006IKcEEPT_S3_, symObjAddr: 0x150BC, symBinAddr: 0x10001D1B0, symSize: 0x14 }
  - { offsetInCU: 0x3BDD5, offset: 0x3BDD5, size: 0x8, addend: 0x0, symName: __ZNSt3__1neB7v160006INS_3mapINS_12basic_stringIcNS_11char_traitsIcEENS_9allocatorIcEEEEN8nlohmann16json_abi_v3_11_210basic_jsonIS1_NS_6vectorES7_bxydS5_NS9_14adl_serializerENSB_IhNS5_IhEEEEEENS_4lessIvEENS5_INS_4pairIKS7_SF_EEEEEEZNSF_6createISM_JRKSM_EEEPT_DpOT0_EUlPSM_E_EEbRKNS_10unique_ptrISQ_T0_EEDn, symObjAddr: 0x166B4, symBinAddr: 0x10001E7A8, symSize: 0x2C }
  - { offsetInCU: 0x3BE54, offset: 0x3BE54, size: 0x8, addend: 0x0, symName: __ZNSt3__1neB7v160006ERKNS_20__map_const_iteratorINS_21__tree_const_iteratorINS_12__value_typeINS_12basic_stringIcNS_11char_traitsIcEENS_9allocatorIcEEEEN8nlohmann16json_abi_v3_11_210basic_jsonINS_3mapENS_6vectorES8_bxydS6_NSA_14adl_serializerENSD_IhNS6_IhEEEEEEEEPNS_11__tree_nodeISI_PvEElEEEESQ_, symObjAddr: 0x16EE4, symBinAddr: 0x10001EFD8, symSize: 0x30 }
  - { offsetInCU: 0x3BE91, offset: 0x3BE91, size: 0x8, addend: 0x0, symName: __ZNSt3__1neB7v160006ERKNS_21__tree_const_iteratorINS_12__value_typeINS_12basic_stringIcNS_11char_traitsIcEENS_9allocatorIcEEEEN8nlohmann16json_abi_v3_11_210basic_jsonINS_3mapENS_6vectorES7_bxydS5_NS9_14adl_serializerENSC_IhNS5_IhEEEEEEEEPNS_11__tree_nodeISH_PvEElEESO_, symObjAddr: 0x16FEC, symBinAddr: 0x10001F0E0, symSize: 0x34 }
  - { offsetInCU: 0x3BECE, offset: 0x3BECE, size: 0x8, addend: 0x0, symName: __ZNSt3__1eqB7v160006ERKNS_21__tree_const_iteratorINS_12__value_typeINS_12basic_stringIcNS_11char_traitsIcEENS_9allocatorIcEEEEN8nlohmann16json_abi_v3_11_210basic_jsonINS_3mapENS_6vectorES7_bxydS5_NS9_14adl_serializerENSC_IhNS5_IhEEEEEEEEPNS_11__tree_nodeISH_PvEElEESO_, symObjAddr: 0x17020, symBinAddr: 0x10001F114, symSize: 0x30 }
  - { offsetInCU: 0x3BF2F, offset: 0x3BF2F, size: 0x8, addend: 0x0, symName: __ZNSt3__14nextB7v160006INS_21__tree_const_iteratorINS_12__value_typeINS_12basic_stringIcNS_11char_traitsIcEENS_9allocatorIcEEEEN8nlohmann16json_abi_v3_11_210basic_jsonINS_3mapENS_6vectorES8_bxydS6_NSA_14adl_serializerENSD_IhNS6_IhEEEEEEEEPNS_11__tree_nodeISI_PvEElEEEENS_9enable_ifIXsr25__is_cpp17_input_iteratorIT_EE5valueESP_E4typeESP_NS_15iterator_traitsISP_E15difference_typeE, symObjAddr: 0x17B28, symBinAddr: 0x10001FC1C, symSize: 0x50 }
  - { offsetInCU: 0x3BF72, offset: 0x3BF72, size: 0x8, addend: 0x0, symName: __ZNSt3__1ltB7v160006IcNS_11char_traitsIcEENS_9allocatorIcEEEEbRKNS_12basic_stringIT_T0_T1_EESB_, symObjAddr: 0x17C94, symBinAddr: 0x10001FD88, symSize: 0x38 }
  - { offsetInCU: 0x3BFEE, offset: 0x3BFEE, size: 0x8, addend: 0x0, symName: __ZNSt3__118__constexpr_memcmpB7v160006IcEEiPKT_S3_m, symObjAddr: 0x17F30, symBinAddr: 0x100020024, symSize: 0x34 }
  - { offsetInCU: 0x3C03F, offset: 0x3C03F, size: 0x8, addend: 0x0, symName: __ZNSt3__17launderB7v160006IKNS_4pairIKNS_12basic_stringIcNS_11char_traitsIcEENS_9allocatorIcEEEEN8nlohmann16json_abi_v3_11_210basic_jsonINS_3mapENS_6vectorES7_bxydS5_NSA_14adl_serializerENSD_IhNS5_IhEEEEEEEEEEPT_SL_, symObjAddr: 0x17FF0, symBinAddr: 0x1000200E4, symSize: 0x24 }
  - { offsetInCU: 0x3C076, offset: 0x3C076, size: 0x8, addend: 0x0, symName: __ZNSt3__19__launderB7v160006IKNS_4pairIKNS_12basic_stringIcNS_11char_traitsIcEENS_9allocatorIcEEEEN8nlohmann16json_abi_v3_11_210basic_jsonINS_3mapENS_6vectorES7_bxydS5_NSA_14adl_serializerENSD_IhNS5_IhEEEEEEEEEEPT_SL_, symObjAddr: 0x18014, symBinAddr: 0x100020108, symSize: 0x14 }
  - { offsetInCU: 0x3C0AD, offset: 0x3C0AD, size: 0x8, addend: 0x0, symName: __ZNSt3__116__tree_prev_iterB7v160006IPNS_16__tree_node_baseIPvEEPNS_15__tree_end_nodeIS4_EEEET_T0_, symObjAddr: 0x18028, symBinAddr: 0x10002011C, symSize: 0xA4 }
  - { offsetInCU: 0x3C0FA, offset: 0x3C0FA, size: 0x8, addend: 0x0, symName: __ZNSt3__110__tree_maxB7v160006IPNS_16__tree_node_baseIPvEEEET_S5_, symObjAddr: 0x180CC, symBinAddr: 0x1000201C0, symSize: 0x40 }
  - { offsetInCU: 0x3C130, offset: 0x3C130, size: 0x8, addend: 0x0, symName: __ZNSt3__120__tree_is_left_childB7v160006IPNS_16__tree_node_baseIPvEEEEbT_, symObjAddr: 0x1810C, symBinAddr: 0x100020200, symSize: 0x2C }
  - { offsetInCU: 0x3C166, offset: 0x3C166, size: 0x8, addend: 0x0, symName: __ZNSt3__121__convert_to_integralB7v160006El, symObjAddr: 0x18250, symBinAddr: 0x100020344, symSize: 0x14 }
  - { offsetInCU: 0x3C192, offset: 0x3C192, size: 0x8, addend: 0x0, symName: __ZNSt3__19__advanceB7v160006INS_21__tree_const_iteratorINS_12__value_typeINS_12basic_stringIcNS_11char_traitsIcEENS_9allocatorIcEEEEN8nlohmann16json_abi_v3_11_210basic_jsonINS_3mapENS_6vectorES8_bxydS6_NSA_14adl_serializerENSD_IhNS6_IhEEEEEEEEPNS_11__tree_nodeISI_PvEElEEEEvRT_NS_15iterator_traitsISO_E15difference_typeENS_26bidirectional_iterator_tagE, symObjAddr: 0x18264, symBinAddr: 0x100020358, symSize: 0xA4 }
  - { offsetInCU: 0x3C1DC, offset: 0x3C1DC, size: 0x8, addend: 0x0, symName: __ZNSt3__116__tree_next_iterB7v160006IPNS_15__tree_end_nodeIPNS_16__tree_node_baseIPvEEEES5_EET_T0_, symObjAddr: 0x18340, symBinAddr: 0x100020434, symSize: 0x80 }
  - { offsetInCU: 0x3C21B, offset: 0x3C21B, size: 0x8, addend: 0x0, symName: __ZNSt3__110__tree_minB7v160006IPNS_16__tree_node_baseIPvEEEET_S5_, symObjAddr: 0x183C0, symBinAddr: 0x1000204B4, symSize: 0x40 }
  - { offsetInCU: 0x3C26E, offset: 0x3C26E, size: 0x8, addend: 0x0, symName: __ZNSt3__17launderB7v160006INS_4pairIKNS_12basic_stringIcNS_11char_traitsIcEENS_9allocatorIcEEEEN8nlohmann16json_abi_v3_11_210basic_jsonINS_3mapENS_6vectorES7_bxydS5_NSA_14adl_serializerENSD_IhNS5_IhEEEEEEEEEEPT_SK_, symObjAddr: 0x18854, symBinAddr: 0x100020948, symSize: 0x24 }
  - { offsetInCU: 0x3C2A5, offset: 0x3C2A5, size: 0x8, addend: 0x0, symName: __ZNSt3__19__launderB7v160006INS_4pairIKNS_12basic_stringIcNS_11char_traitsIcEENS_9allocatorIcEEEEN8nlohmann16json_abi_v3_11_210basic_jsonINS_3mapENS_6vectorES7_bxydS5_NSA_14adl_serializerENSD_IhNS5_IhEEEEEEEEEEPT_SK_, symObjAddr: 0x18878, symBinAddr: 0x10002096C, symSize: 0x14 }
  - { offsetInCU: 0x3C2DD, offset: 0x3C2DD, size: 0x8, addend: 0x0, symName: __ZNSt3__127__tree_balance_after_insertB7v160006IPNS_16__tree_node_baseIPvEEEEvT_S5_, symObjAddr: 0x18900, symBinAddr: 0x1000209F4, symSize: 0x27C }
  - { offsetInCU: 0x3C35A, offset: 0x3C35A, size: 0x8, addend: 0x0, symName: __ZNSt3__118__tree_left_rotateB7v160006IPNS_16__tree_node_baseIPvEEEEvT_, symObjAddr: 0x18BA4, symBinAddr: 0x100020C98, symSize: 0xD8 }
  - { offsetInCU: 0x3C39D, offset: 0x3C39D, size: 0x8, addend: 0x0, symName: __ZNSt3__119__tree_right_rotateB7v160006IPNS_16__tree_node_baseIPvEEEEvT_, symObjAddr: 0x18C7C, symBinAddr: 0x100020D70, symSize: 0xCC }
  - { offsetInCU: 0x3CAB0, offset: 0x3CAB0, size: 0x8, addend: 0x0, symName: __ZNSt3__1neB7v160006INS_6vectorIN8nlohmann16json_abi_v3_11_210basic_jsonINS_3mapES1_NS_12basic_stringIcNS_11char_traitsIcEENS_9allocatorIcEEEEbxydS9_NS3_14adl_serializerENS1_IhNS9_IhEEEEEENS9_ISF_EEEEZNSF_6createISH_JRKSH_EEEPT_DpOT0_EUlPSH_E_EEbRKNS_10unique_ptrISL_T0_EEDn, symObjAddr: 0x196EC, symBinAddr: 0x1000217E0, symSize: 0x2C }
  - { offsetInCU: 0x3CAFC, offset: 0x3CAFC, size: 0x8, addend: 0x0, symName: __ZNSt3__122__make_exception_guardB7v160006INS_6vectorIN8nlohmann16json_abi_v3_11_210basic_jsonINS_3mapES1_NS_12basic_stringIcNS_11char_traitsIcEENS_9allocatorIcEEEEbxydS9_NS3_14adl_serializerENS1_IhNS9_IhEEEEEENS9_ISF_EEE16__destroy_vectorEEENS_28__exception_guard_exceptionsIT_EESK_, symObjAddr: 0x19B38, symBinAddr: 0x100021C2C, symSize: 0x40 }
  - { offsetInCU: 0x3CB32, offset: 0x3CB32, size: 0x8, addend: 0x0, symName: __ZNSt3__119__debug_db_insert_cB7v160006INS_6vectorIN8nlohmann16json_abi_v3_11_210basic_jsonINS_3mapES1_NS_12basic_stringIcNS_11char_traitsIcEENS_9allocatorIcEEEEbxydS9_NS3_14adl_serializerENS1_IhNS9_IhEEEEEENS9_ISF_EEEEEEvPT_, symObjAddr: 0x19BAC, symBinAddr: 0x100021CA0, symSize: 0x10 }
  - { offsetInCU: 0x3CB63, offset: 0x3CB63, size: 0x8, addend: 0x0, symName: __ZNSt3__130__uninitialized_allocator_copyB7v160006INS_9allocatorIN8nlohmann16json_abi_v3_11_210basic_jsonINS_3mapENS_6vectorENS_12basic_stringIcNS_11char_traitsIcEENS1_IcEEEEbxydS1_NS3_14adl_serializerENS6_IhNS1_IhEEEEEEEEPSF_SH_SH_EET2_RT_T0_T1_SI_, symObjAddr: 0x19E10, symBinAddr: 0x100021F04, symSize: 0xF4 }
  - { offsetInCU: 0x3CC01, offset: 0x3CC01, size: 0x8, addend: 0x0, symName: __ZNSt3__122__make_exception_guardB7v160006INS_29_AllocatorDestroyRangeReverseINS_9allocatorIN8nlohmann16json_abi_v3_11_210basic_jsonINS_3mapENS_6vectorENS_12basic_stringIcNS_11char_traitsIcEENS2_IcEEEEbxydS2_NS4_14adl_serializerENS7_IhNS2_IhEEEEEEEEPSG_EEEENS_28__exception_guard_exceptionsIT_EESL_, symObjAddr: 0x19F04, symBinAddr: 0x100021FF8, symSize: 0x4C }
  - { offsetInCU: 0x3CC38, offset: 0x3CC38, size: 0x8, addend: 0x0, symName: __ZNSt3__119__allocator_destroyB7v160006INS_9allocatorIN8nlohmann16json_abi_v3_11_210basic_jsonINS_3mapENS_6vectorENS_12basic_stringIcNS_11char_traitsIcEENS1_IcEEEEbxydS1_NS3_14adl_serializerENS6_IhNS1_IhEEEEEEEENS_16reverse_iteratorIPSF_EESJ_EEvRT_T0_T1_, symObjAddr: 0x1A194, symBinAddr: 0x100022288, symSize: 0x70 }
  - { offsetInCU: 0x3CC9C, offset: 0x3CC9C, size: 0x8, addend: 0x0, symName: __ZNSt3__118__debug_db_erase_cB7v160006INS_6vectorIN8nlohmann16json_abi_v3_11_210basic_jsonINS_3mapES1_NS_12basic_stringIcNS_11char_traitsIcEENS_9allocatorIcEEEEbxydS9_NS3_14adl_serializerENS1_IhNS9_IhEEEEEENS9_ISF_EEEEEEvPT_, symObjAddr: 0x1A2F0, symBinAddr: 0x1000223E4, symSize: 0x10 }
  - { offsetInCU: 0x3D018, offset: 0x3D018, size: 0x8, addend: 0x0, symName: __ZNSt3__1neB7v160006INS_12basic_stringIcNS_11char_traitsIcEENS_9allocatorIcEEEEZN8nlohmann16json_abi_v3_11_210basic_jsonINS_3mapENS_6vectorES6_bxydS4_NS8_14adl_serializerENSB_IhNS4_IhEEEEE6createIS6_JRKS6_EEEPT_DpOT0_EUlPS6_E_EEbRKNS_10unique_ptrISJ_T0_EEDn, symObjAddr: 0x1A810, symBinAddr: 0x100022904, symSize: 0x2C }
  - { offsetInCU: 0x3D702, offset: 0x3D702, size: 0x8, addend: 0x0, symName: __ZNSt3__1neB7v160006IN8nlohmann16json_abi_v3_11_227byte_container_with_subtypeINS_6vectorIhNS_9allocatorIhEEEEEEZNS2_10basic_jsonINS_3mapES4_NS_12basic_stringIcNS_11char_traitsIcEENS5_IcEEEEbxydS5_NS2_14adl_serializerES7_E6createIS8_JRKS8_EEEPT_DpOT0_EUlPS8_E_EEbRKNS_10unique_ptrISL_T0_EEDn, symObjAddr: 0x1AFB0, symBinAddr: 0x1000230A4, symSize: 0x2C }
  - { offsetInCU: 0x3D74E, offset: 0x3D74E, size: 0x8, addend: 0x0, symName: __ZNSt3__122__make_exception_guardB7v160006INS_6vectorIhNS_9allocatorIhEEE16__destroy_vectorEEENS_28__exception_guard_exceptionsIT_EES7_, symObjAddr: 0x1B46C, symBinAddr: 0x100023560, symSize: 0x40 }
  - { offsetInCU: 0x3D784, offset: 0x3D784, size: 0x8, addend: 0x0, symName: __ZNSt3__119__debug_db_insert_cB7v160006INS_6vectorIhNS_9allocatorIhEEEEEEvPT_, symObjAddr: 0x1B4E0, symBinAddr: 0x1000235D4, symSize: 0x10 }
  - { offsetInCU: 0x3D7B5, offset: 0x3D7B5, size: 0x8, addend: 0x0, symName: __ZNSt3__119__allocate_at_leastB7v160006INS_9allocatorIhEEEENS_19__allocation_resultINS_16allocator_traitsIT_E7pointerEEERS5_m, symObjAddr: 0x1B834, symBinAddr: 0x100023928, symSize: 0x40 }
  - { offsetInCU: 0x3D7F9, offset: 0x3D7F9, size: 0x8, addend: 0x0, symName: __ZNSt3__112__to_addressB7v160006IhEEPT_S2_, symObjAddr: 0x1BAF0, symBinAddr: 0x100023BE4, symSize: 0x14 }
  - { offsetInCU: 0x3D82E, offset: 0x3D82E, size: 0x8, addend: 0x0, symName: __ZNSt3__130__uninitialized_allocator_copyB7v160006INS_9allocatorIhEEPhS3_S3_EET2_RT_T0_T1_S4_, symObjAddr: 0x1BBA0, symBinAddr: 0x100023C94, symSize: 0xF4 }
  - { offsetInCU: 0x3D8CC, offset: 0x3D8CC, size: 0x8, addend: 0x0, symName: __ZNSt3__122__make_exception_guardB7v160006INS_29_AllocatorDestroyRangeReverseINS_9allocatorIhEEPhEEEENS_28__exception_guard_exceptionsIT_EES7_, symObjAddr: 0x1BD04, symBinAddr: 0x100023DF8, symSize: 0x4C }
  - { offsetInCU: 0x3D903, offset: 0x3D903, size: 0x8, addend: 0x0, symName: __ZNSt3__119__allocator_destroyB7v160006INS_9allocatorIhEENS_16reverse_iteratorIPhEES5_EEvRT_T0_T1_, symObjAddr: 0x1BF8C, symBinAddr: 0x100024080, symSize: 0x70 }
  - { offsetInCU: 0x3D966, offset: 0x3D966, size: 0x8, addend: 0x0, symName: __ZNSt3__1neB7v160006IPhS1_EEbRKNS_16reverse_iteratorIT_EERKNS2_IT0_EE, symObjAddr: 0x1C030, symBinAddr: 0x100024124, symSize: 0x48 }
  - { offsetInCU: 0x3D9B2, offset: 0x3D9B2, size: 0x8, addend: 0x0, symName: __ZNSt3__112__to_addressB7v160006INS_16reverse_iteratorIPhEEvEENS_5decayIDTclsr19__to_address_helperIT_EE6__callclsr3stdE7declvalIRKS5_EEEEE4typeES7_, symObjAddr: 0x1C0A4, symBinAddr: 0x100024198, symSize: 0x24 }
  - { offsetInCU: 0x3DA12, offset: 0x3DA12, size: 0x8, addend: 0x0, symName: __ZNSt3__118__debug_db_erase_cB7v160006INS_6vectorIhNS_9allocatorIhEEEEEEvPT_, symObjAddr: 0x1C384, symBinAddr: 0x100024478, symSize: 0x10 }
  - { offsetInCU: 0x3DA44, offset: 0x3DA44, size: 0x8, addend: 0x0, symName: __ZNSt3__119__debug_db_insert_iB7v160006INS_11__wrap_iterIPN8nlohmann16json_abi_v3_11_210basic_jsonINS_3mapENS_6vectorENS_12basic_stringIcNS_11char_traitsIcEENS_9allocatorIcEEEEbxydSA_NS3_14adl_serializerENS6_IhNSA_IhEEEEEEEEEEvPT_, symObjAddr: 0x1CC24, symBinAddr: 0x100024D18, symSize: 0x10 }
  - { offsetInCU: 0x3DA75, offset: 0x3DA75, size: 0x8, addend: 0x0, symName: __ZNSt3__1eqB7v160006ERKNS_14__map_iteratorINS_15__tree_iteratorINS_12__value_typeINS_12basic_stringIcNS_11char_traitsIcEENS_9allocatorIcEEEEN8nlohmann16json_abi_v3_11_210basic_jsonINS_3mapENS_6vectorES8_bxydS6_NSA_14adl_serializerENSD_IhNS6_IhEEEEEEEEPNS_11__tree_nodeISI_PvEElEEEESQ_, symObjAddr: 0x1D088, symBinAddr: 0x10002517C, symSize: 0x30 }
  - { offsetInCU: 0x3DAB2, offset: 0x3DAB2, size: 0x8, addend: 0x0, symName: __ZNSt3__1eqB7v160006IPN8nlohmann16json_abi_v3_11_210basic_jsonINS_3mapENS_6vectorENS_12basic_stringIcNS_11char_traitsIcEENS_9allocatorIcEEEEbxydS9_NS2_14adl_serializerENS5_IhNS9_IhEEEEEEEEbRKNS_11__wrap_iterIT_EESL_, symObjAddr: 0x1D0B8, symBinAddr: 0x1000251AC, symSize: 0x48 }
  - { offsetInCU: 0x3DAF5, offset: 0x3DAF5, size: 0x8, addend: 0x0, symName: __ZNSt3__1eqB7v160006ERKNS_15__tree_iteratorINS_12__value_typeINS_12basic_stringIcNS_11char_traitsIcEENS_9allocatorIcEEEEN8nlohmann16json_abi_v3_11_210basic_jsonINS_3mapENS_6vectorES7_bxydS5_NS9_14adl_serializerENSC_IhNS5_IhEEEEEEEEPNS_11__tree_nodeISH_PvEElEESO_, symObjAddr: 0x1D214, symBinAddr: 0x100025308, symSize: 0x30 }
  - { offsetInCU: 0x3DB32, offset: 0x3DB32, size: 0x8, addend: 0x0, symName: __ZNSt3__1neB7v160006ERKNS_14__map_iteratorINS_15__tree_iteratorINS_12__value_typeINS_12basic_stringIcNS_11char_traitsIcEENS_9allocatorIcEEEEN8nlohmann16json_abi_v3_11_210basic_jsonINS_3mapENS_6vectorES8_bxydS6_NSA_14adl_serializerENSD_IhNS6_IhEEEEEEEEPNS_11__tree_nodeISI_PvEElEEEESQ_, symObjAddr: 0x1D3C4, symBinAddr: 0x1000254B8, symSize: 0x30 }
  - { offsetInCU: 0x3DB6F, offset: 0x3DB6F, size: 0x8, addend: 0x0, symName: __ZNSt3__1neB7v160006ERKNS_15__tree_iteratorINS_12__value_typeINS_12basic_stringIcNS_11char_traitsIcEENS_9allocatorIcEEEEN8nlohmann16json_abi_v3_11_210basic_jsonINS_3mapENS_6vectorES7_bxydS5_NS9_14adl_serializerENSC_IhNS5_IhEEEEEEEEPNS_11__tree_nodeISH_PvEElEESO_, symObjAddr: 0x1D444, symBinAddr: 0x100025538, symSize: 0x34 }
  - { offsetInCU: 0x3DC13, offset: 0x3DC13, size: 0x8, addend: 0x0, symName: __ZNSt3__113__tree_removeB7v160006IPNS_16__tree_node_baseIPvEEEEvT_S5_, symObjAddr: 0x1DC58, symBinAddr: 0x100025D4C, symSize: 0x6E0 }
  - { offsetInCU: 0x3DC91, offset: 0x3DC91, size: 0x8, addend: 0x0, symName: __ZNSt3__111__tree_nextB7v160006IPNS_16__tree_node_baseIPvEEEET_S5_, symObjAddr: 0x1E338, symBinAddr: 0x10002642C, symSize: 0x80 }
  - { offsetInCU: 0x3DCC6, offset: 0x3DCC6, size: 0x8, addend: 0x0, symName: __ZNSt3__1miB7v160006IPKN8nlohmann16json_abi_v3_11_210basic_jsonINS_3mapENS_6vectorENS_12basic_stringIcNS_11char_traitsIcEENS_9allocatorIcEEEEbxydS9_NS2_14adl_serializerENS5_IhNS9_IhEEEEEESH_EEDTmicldtfp_4baseEcldtfp0_4baseEERKNS_11__wrap_iterIT_EERKNSJ_IT0_EE, symObjAddr: 0x1E3B8, symBinAddr: 0x1000264AC, symSize: 0x48 }
  - { offsetInCU: 0x3DD12, offset: 0x3DD12, size: 0x8, addend: 0x0, symName: __ZNSt3__14moveB7v160006IPN8nlohmann16json_abi_v3_11_210basic_jsonINS_3mapENS_6vectorENS_12basic_stringIcNS_11char_traitsIcEENS_9allocatorIcEEEEbxydS9_NS2_14adl_serializerENS5_IhNS9_IhEEEEEESG_EET0_T_SI_SH_, symObjAddr: 0x1E48C, symBinAddr: 0x100026580, symSize: 0x40 }
  - { offsetInCU: 0x3DD6C, offset: 0x3DD6C, size: 0x8, addend: 0x0, symName: __ZNSt3__16__moveB7v160006INS_17_ClassicAlgPolicyEPN8nlohmann16json_abi_v3_11_210basic_jsonINS_3mapENS_6vectorENS_12basic_stringIcNS_11char_traitsIcEENS_9allocatorIcEEEEbxydSA_NS3_14adl_serializerENS6_IhNSA_IhEEEEEESH_SH_EENS_4pairIT0_T2_EESJ_T1_SK_, symObjAddr: 0x1E6A4, symBinAddr: 0x100026798, symSize: 0x44 }
  - { offsetInCU: 0x3DDD8, offset: 0x3DDD8, size: 0x8, addend: 0x0, symName: __ZNSt3__123__dispatch_copy_or_moveB7v160006INS_17_ClassicAlgPolicyENS_11__move_loopIS1_EENS_14__move_trivialEPN8nlohmann16json_abi_v3_11_210basic_jsonINS_3mapENS_6vectorENS_12basic_stringIcNS_11char_traitsIcEENS_9allocatorIcEEEEbxydSD_NS6_14adl_serializerENS9_IhNSD_IhEEEEEESK_SK_EENS_4pairIT2_T4_EESM_T3_SN_, symObjAddr: 0x1E6E8, symBinAddr: 0x1000267DC, symSize: 0x44 }
  - { offsetInCU: 0x3DE56, offset: 0x3DE56, size: 0x8, addend: 0x0, symName: __ZNSt3__121__unwrap_and_dispatchB7v160006INS_10__overloadINS_11__move_loopINS_17_ClassicAlgPolicyEEENS_14__move_trivialEEEPN8nlohmann16json_abi_v3_11_210basic_jsonINS_3mapENS_6vectorENS_12basic_stringIcNS_11char_traitsIcEENS_9allocatorIcEEEEbxydSF_NS8_14adl_serializerENSB_IhNSF_IhEEEEEESM_SM_Li0EEENS_4pairIT0_T2_EESO_T1_SP_, symObjAddr: 0x1E72C, symBinAddr: 0x100026820, symSize: 0xB4 }
  - { offsetInCU: 0x3DEE4, offset: 0x3DEE4, size: 0x8, addend: 0x0, symName: __ZNSt3__114__unwrap_rangeB7v160006IPN8nlohmann16json_abi_v3_11_210basic_jsonINS_3mapENS_6vectorENS_12basic_stringIcNS_11char_traitsIcEENS_9allocatorIcEEEEbxydS9_NS2_14adl_serializerENS5_IhNS9_IhEEEEEESG_EENS_4pairIT0_SI_EET_SK_, symObjAddr: 0x1E7E0, symBinAddr: 0x1000268D4, symSize: 0x60 }
  - { offsetInCU: 0x3E004, offset: 0x3E004, size: 0x8, addend: 0x0, symName: __ZNSt3__113__unwrap_iterB7v160006IPN8nlohmann16json_abi_v3_11_210basic_jsonINS_3mapENS_6vectorENS_12basic_stringIcNS_11char_traitsIcEENS_9allocatorIcEEEEbxydS9_NS2_14adl_serializerENS5_IhNS9_IhEEEEEENS_18__unwrap_iter_implISG_Lb1EEELi0EEEDTclsrT0_8__unwrapclsr3stdE7declvalIT_EEEESK_, symObjAddr: 0x1E8E8, symBinAddr: 0x1000269DC, symSize: 0x24 }
  - { offsetInCU: 0x3E048, offset: 0x3E048, size: 0x8, addend: 0x0, symName: __ZNSt3__19make_pairB7v160006IPN8nlohmann16json_abi_v3_11_210basic_jsonINS_3mapENS_6vectorENS_12basic_stringIcNS_11char_traitsIcEENS_9allocatorIcEEEEbxydS9_NS2_14adl_serializerENS5_IhNS9_IhEEEEEESG_EENS_4pairINS_18__unwrap_ref_decayIT_E4typeENSI_IT0_E4typeEEEOSJ_OSM_, symObjAddr: 0x1E90C, symBinAddr: 0x100026A00, symSize: 0x38 }
  - { offsetInCU: 0x3E097, offset: 0x3E097, size: 0x8, addend: 0x0, symName: __ZNSt3__114__rewrap_rangeB7v160006IPN8nlohmann16json_abi_v3_11_210basic_jsonINS_3mapENS_6vectorENS_12basic_stringIcNS_11char_traitsIcEENS_9allocatorIcEEEEbxydS9_NS2_14adl_serializerENS5_IhNS9_IhEEEEEESG_EET_SH_T0_, symObjAddr: 0x1E944, symBinAddr: 0x100026A38, symSize: 0x2C }
  - { offsetInCU: 0x3E0E3, offset: 0x3E0E3, size: 0x8, addend: 0x0, symName: __ZNSt3__113__rewrap_iterB7v160006IPN8nlohmann16json_abi_v3_11_210basic_jsonINS_3mapENS_6vectorENS_12basic_stringIcNS_11char_traitsIcEENS_9allocatorIcEEEEbxydS9_NS2_14adl_serializerENS5_IhNS9_IhEEEEEESG_NS_18__unwrap_iter_implISG_Lb1EEEEET_SJ_T0_, symObjAddr: 0x1E970, symBinAddr: 0x100026A64, symSize: 0x3C }
  - { offsetInCU: 0x3E1AF, offset: 0x3E1AF, size: 0x8, addend: 0x0, symName: __ZNSt3__19__advanceB7v160006INS_14__map_iteratorINS_15__tree_iteratorINS_12__value_typeINS_12basic_stringIcNS_11char_traitsIcEENS_9allocatorIcEEEEN8nlohmann16json_abi_v3_11_210basic_jsonINS_3mapENS_6vectorES9_bxydS7_NSB_14adl_serializerENSE_IhNS7_IhEEEEEEEEPNS_11__tree_nodeISJ_PvEElEEEEEEvRT_NS_15iterator_traitsISQ_E15difference_typeENS_26bidirectional_iterator_tagE, symObjAddr: 0x1EE08, symBinAddr: 0x100026EFC, symSize: 0xA4 }
  - { offsetInCU: 0x3E1F9, offset: 0x3E1F9, size: 0x8, addend: 0x0, symName: __ZNSt3__19__advanceB7v160006INS_11__wrap_iterIPN8nlohmann16json_abi_v3_11_210basic_jsonINS_3mapENS_6vectorENS_12basic_stringIcNS_11char_traitsIcEENS_9allocatorIcEEEEbxydSA_NS3_14adl_serializerENS6_IhNSA_IhEEEEEEEEEEvRT_NS_15iterator_traitsISJ_E15difference_typeENS_26random_access_iterator_tagE, symObjAddr: 0x1EF3C, symBinAddr: 0x100027030, symSize: 0x2C }
  - { offsetInCU: 0x3E27A, offset: 0x3E27A, size: 0x8, addend: 0x0, symName: __ZNSt3__116forward_as_tupleB7v160006IJRKNS_12basic_stringIcNS_11char_traitsIcEENS_9allocatorIcEEEEEEENS_5tupleIJDpOT_EEESC_, symObjAddr: 0x1F110, symBinAddr: 0x100027204, symSize: 0x2C }
  - { offsetInCU: 0x3E2B3, offset: 0x3E2B3, size: 0x8, addend: 0x0, symName: __ZNSt3__116forward_as_tupleB7v160006IJEEENS_5tupleIJDpOT_EEES4_, symObjAddr: 0x1F13C, symBinAddr: 0x100027230, symSize: 0x4 }
  - { offsetInCU: 0x3E2E3, offset: 0x3E2E3, size: 0x8, addend: 0x0, symName: __ZNSt3__13getB7v160006ILm0EJRKNS_12basic_stringIcNS_11char_traitsIcEENS_9allocatorIcEEEEEEERNS_13tuple_elementIXT_ENS_5tupleIJDpT0_EEEE4typeERSD_, symObjAddr: 0x1F3B4, symBinAddr: 0x1000274A8, symSize: 0x24 }
  - { offsetInCU: 0x3E34A, offset: 0x3E34A, size: 0x8, addend: 0x0, symName: __ZNSt3__14moveB7v160006INS_11__wrap_iterIPN8nlohmann16json_abi_v3_11_210basic_jsonINS_3mapENS_6vectorENS_12basic_stringIcNS_11char_traitsIcEENS_9allocatorIcEEEEbxydSA_NS3_14adl_serializerENS6_IhNSA_IhEEEEEEEENS_20back_insert_iteratorINS6_ISG_NSA_ISG_EEEEEEEET0_T_SO_SN_, symObjAddr: 0x209C8, symBinAddr: 0x100028ABC, symSize: 0x60 }
  - { offsetInCU: 0x3E3A4, offset: 0x3E3A4, size: 0x8, addend: 0x0, symName: __ZNSt3__113back_inserterB7v160006INS_6vectorIN8nlohmann16json_abi_v3_11_210basic_jsonINS_3mapES1_NS_12basic_stringIcNS_11char_traitsIcEENS_9allocatorIcEEEEbxydS9_NS3_14adl_serializerENS1_IhNS9_IhEEEEEENS9_ISF_EEEEEENS_20back_insert_iteratorIT_EERSJ_, symObjAddr: 0x20A28, symBinAddr: 0x100028B1C, symSize: 0x2C }
  - { offsetInCU: 0x3E3D9, offset: 0x3E3D9, size: 0x8, addend: 0x0, symName: __ZNSt3__16__moveB7v160006INS_17_ClassicAlgPolicyENS_11__wrap_iterIPN8nlohmann16json_abi_v3_11_210basic_jsonINS_3mapENS_6vectorENS_12basic_stringIcNS_11char_traitsIcEENS_9allocatorIcEEEEbxydSB_NS4_14adl_serializerENS7_IhNSB_IhEEEEEEEESJ_NS_20back_insert_iteratorINS7_ISH_NSB_ISH_EEEEEEEENS_4pairIT0_T2_EESP_T1_SQ_, symObjAddr: 0x20BD8, symBinAddr: 0x100028CCC, symSize: 0x5C }
  - { offsetInCU: 0x3E445, offset: 0x3E445, size: 0x8, addend: 0x0, symName: __ZNSt3__123__dispatch_copy_or_moveB7v160006INS_17_ClassicAlgPolicyENS_11__move_loopIS1_EENS_14__move_trivialENS_11__wrap_iterIPN8nlohmann16json_abi_v3_11_210basic_jsonINS_3mapENS_6vectorENS_12basic_stringIcNS_11char_traitsIcEENS_9allocatorIcEEEEbxydSE_NS7_14adl_serializerENSA_IhNSE_IhEEEEEEEESM_NS_20back_insert_iteratorINSA_ISK_NSE_ISK_EEEEEEEENS_4pairIT2_T4_EESS_T3_ST_, symObjAddr: 0x20C34, symBinAddr: 0x100028D28, symSize: 0x5C }
  - { offsetInCU: 0x3E4C3, offset: 0x3E4C3, size: 0x8, addend: 0x0, symName: __ZNSt3__121__unwrap_and_dispatchB7v160006INS_10__overloadINS_11__move_loopINS_17_ClassicAlgPolicyEEENS_14__move_trivialEEENS_11__wrap_iterIPN8nlohmann16json_abi_v3_11_210basic_jsonINS_3mapENS_6vectorENS_12basic_stringIcNS_11char_traitsIcEENS_9allocatorIcEEEEbxydSG_NS9_14adl_serializerENSC_IhNSG_IhEEEEEEEESO_NS_20back_insert_iteratorINSC_ISM_NSG_ISM_EEEEEELi0EEENS_4pairIT0_T2_EESU_T1_SV_, symObjAddr: 0x20C90, symBinAddr: 0x100028D84, symSize: 0xE8 }
  - { offsetInCU: 0x3E552, offset: 0x3E552, size: 0x8, addend: 0x0, symName: __ZNSt3__114__unwrap_rangeB7v160006INS_11__wrap_iterIPN8nlohmann16json_abi_v3_11_210basic_jsonINS_3mapENS_6vectorENS_12basic_stringIcNS_11char_traitsIcEENS_9allocatorIcEEEEbxydSA_NS3_14adl_serializerENS6_IhNSA_IhEEEEEEEESH_EENS_4pairIT0_SK_EET_SM_, symObjAddr: 0x20D78, symBinAddr: 0x100028E6C, symSize: 0x70 }
  - { offsetInCU: 0x3E672, offset: 0x3E672, size: 0x8, addend: 0x0, symName: __ZNSt3__113__unwrap_iterB7v160006INS_20back_insert_iteratorINS_6vectorIN8nlohmann16json_abi_v3_11_210basic_jsonINS_3mapES2_NS_12basic_stringIcNS_11char_traitsIcEENS_9allocatorIcEEEEbxydSA_NS4_14adl_serializerENS2_IhNSA_IhEEEEEENSA_ISG_EEEEEENS_18__unwrap_iter_implISJ_Lb0EEELi0EEEDTclsrT0_8__unwrapclsr3stdE7declvalIT_EEEESN_, symObjAddr: 0x20E80, symBinAddr: 0x100028F74, symSize: 0x34 }
  - { offsetInCU: 0x3E6B6, offset: 0x3E6B6, size: 0x8, addend: 0x0, symName: __ZNSt3__19make_pairB7v160006INS_11__wrap_iterIPN8nlohmann16json_abi_v3_11_210basic_jsonINS_3mapENS_6vectorENS_12basic_stringIcNS_11char_traitsIcEENS_9allocatorIcEEEEbxydSA_NS3_14adl_serializerENS6_IhNSA_IhEEEEEEEENS_20back_insert_iteratorINS6_ISG_NSA_ISG_EEEEEEEENS_4pairINS_18__unwrap_ref_decayIT_E4typeENSO_IT0_E4typeEEEOSP_OSS_, symObjAddr: 0x20EB4, symBinAddr: 0x100028FA8, symSize: 0x38 }
  - { offsetInCU: 0x3E705, offset: 0x3E705, size: 0x8, addend: 0x0, symName: __ZNSt3__114__rewrap_rangeB7v160006INS_11__wrap_iterIPN8nlohmann16json_abi_v3_11_210basic_jsonINS_3mapENS_6vectorENS_12basic_stringIcNS_11char_traitsIcEENS_9allocatorIcEEEEbxydSA_NS3_14adl_serializerENS6_IhNSA_IhEEEEEEEESH_EET_SJ_T0_, symObjAddr: 0x20EEC, symBinAddr: 0x100028FE0, symSize: 0x3C }
  - { offsetInCU: 0x3E751, offset: 0x3E751, size: 0x8, addend: 0x0, symName: __ZNSt3__113__rewrap_iterB7v160006INS_20back_insert_iteratorINS_6vectorIN8nlohmann16json_abi_v3_11_210basic_jsonINS_3mapES2_NS_12basic_stringIcNS_11char_traitsIcEENS_9allocatorIcEEEEbxydSA_NS4_14adl_serializerENS2_IhNSA_IhEEEEEENSA_ISG_EEEEEESJ_NS_18__unwrap_iter_implISJ_Lb0EEEEET_SM_T0_, symObjAddr: 0x20F28, symBinAddr: 0x10002901C, symSize: 0x54 }
  - { offsetInCU: 0x3E7A6, offset: 0x3E7A6, size: 0x8, addend: 0x0, symName: __ZNSt3__113__unwrap_iterB7v160006INS_11__wrap_iterIPN8nlohmann16json_abi_v3_11_210basic_jsonINS_3mapENS_6vectorENS_12basic_stringIcNS_11char_traitsIcEENS_9allocatorIcEEEEbxydSA_NS3_14adl_serializerENS6_IhNSA_IhEEEEEEEENS_18__unwrap_iter_implISI_Lb1EEELi0EEEDTclsrT0_8__unwrapclsr3stdE7declvalIT_EEEESM_, symObjAddr: 0x20F7C, symBinAddr: 0x100029070, symSize: 0x2C }
  - { offsetInCU: 0x3E83D, offset: 0x3E83D, size: 0x8, addend: 0x0, symName: __ZNSt3__112__to_addressB7v160006INS_11__wrap_iterIPN8nlohmann16json_abi_v3_11_210basic_jsonINS_3mapENS_6vectorENS_12basic_stringIcNS_11char_traitsIcEENS_9allocatorIcEEEEbxydSA_NS3_14adl_serializerENS6_IhNSA_IhEEEEEEEEvEENS_5decayIDTclsr19__to_address_helperIT_EE6__callclsr3stdE7declvalIRKSK_EEEEE4typeESM_, symObjAddr: 0x20FD0, symBinAddr: 0x1000290C4, symSize: 0x24 }
  - { offsetInCU: 0x3E91C, offset: 0x3E91C, size: 0x8, addend: 0x0, symName: __ZNSt3__19make_pairB7v160006IPN8nlohmann16json_abi_v3_11_210basic_jsonINS_3mapENS_6vectorENS_12basic_stringIcNS_11char_traitsIcEENS_9allocatorIcEEEEbxydS9_NS2_14adl_serializerENS5_IhNS9_IhEEEEEENS_20back_insert_iteratorINS5_ISF_NS9_ISF_EEEEEEEENS_4pairINS_18__unwrap_ref_decayIT_E4typeENSM_IT0_E4typeEEEOSN_OSQ_, symObjAddr: 0x210B0, symBinAddr: 0x1000291A4, symSize: 0x38 }
  - { offsetInCU: 0x3EA87, offset: 0x3EA87, size: 0x8, addend: 0x0, symName: __ZNSt3__113__rewrap_iterB7v160006INS_11__wrap_iterIPN8nlohmann16json_abi_v3_11_210basic_jsonINS_3mapENS_6vectorENS_12basic_stringIcNS_11char_traitsIcEENS_9allocatorIcEEEEbxydSA_NS3_14adl_serializerENS6_IhNSA_IhEEEEEEEESH_NS_18__unwrap_iter_implISI_Lb1EEEEET_SL_T0_, symObjAddr: 0x211E4, symBinAddr: 0x1000292D8, symSize: 0x4C }
  - { offsetInCU: 0x3F0DF, offset: 0x3F0DF, size: 0x8, addend: 0x0, symName: __ZNSt3__1neB7v160006INS_3mapINS_12basic_stringIcNS_11char_traitsIcEENS_9allocatorIcEEEEN8nlohmann16json_abi_v3_11_210basic_jsonIS1_NS_6vectorES7_bxydS5_NS9_14adl_serializerENSB_IhNS5_IhEEEEEENS_4lessIvEENS5_INS_4pairIKS7_SF_EEEEEEZNSF_6createISM_JEEEPT_DpOT0_EUlPSM_E_EEbRKNS_10unique_ptrISO_T0_EEDn, symObjAddr: 0x24378, symBinAddr: 0x10002C46C, symSize: 0x2C }
  - { offsetInCU: 0x3F46B, offset: 0x3F46B, size: 0x8, addend: 0x0, symName: __ZNSt3__1neB7v160006INS_6vectorIN8nlohmann16json_abi_v3_11_210basic_jsonINS_3mapES1_NS_12basic_stringIcNS_11char_traitsIcEENS_9allocatorIcEEEEbxydS9_NS3_14adl_serializerENS1_IhNS9_IhEEEEEENS9_ISF_EEEEZNSF_6createISH_JEEEPT_DpOT0_EUlPSH_E_EEbRKNS_10unique_ptrISJ_T0_EEDn, symObjAddr: 0x249AC, symBinAddr: 0x10002CAA0, symSize: 0x2C }
  - { offsetInCU: 0x3F7F7, offset: 0x3F7F7, size: 0x8, addend: 0x0, symName: __ZNSt3__1neB7v160006INS_12basic_stringIcNS_11char_traitsIcEENS_9allocatorIcEEEEZN8nlohmann16json_abi_v3_11_210basic_jsonINS_3mapENS_6vectorES6_bxydS4_NS8_14adl_serializerENSB_IhNS4_IhEEEEE6createIS6_JRA1_KcEEEPT_DpOT0_EUlPS6_E_EEbRKNS_10unique_ptrISK_T0_EEDn, symObjAddr: 0x24D94, symBinAddr: 0x10002CE88, symSize: 0x2C }
  - { offsetInCU: 0x3FB83, offset: 0x3FB83, size: 0x8, addend: 0x0, symName: __ZNSt3__1neB7v160006IN8nlohmann16json_abi_v3_11_227byte_container_with_subtypeINS_6vectorIhNS_9allocatorIhEEEEEEZNS2_10basic_jsonINS_3mapES4_NS_12basic_stringIcNS_11char_traitsIcEENS5_IcEEEEbxydS5_NS2_14adl_serializerES7_E6createIS8_JEEEPT_DpOT0_EUlPS8_E_EEbRKNS_10unique_ptrISJ_T0_EEDn, symObjAddr: 0x2517C, symBinAddr: 0x10002D270, symSize: 0x2C }
  - { offsetInCU: 0x3FBD0, offset: 0x3FBD0, size: 0x8, addend: 0x0, symName: __ZNSt3__119__debug_db_insert_cB7v160006INS_6vectorIdNS_9allocatorIdEEEEEEvPT_, symObjAddr: 0x283E4, symBinAddr: 0x1000304D8, symSize: 0x10 }
  - { offsetInCU: 0x3FC02, offset: 0x3FC02, size: 0x8, addend: 0x0, symName: __ZNSt3__118__debug_db_erase_cB7v160006INS_6vectorIdNS_9allocatorIdEEEEEEvPT_, symObjAddr: 0x287F8, symBinAddr: 0x1000308EC, symSize: 0x10 }
  - { offsetInCU: 0x3FC34, offset: 0x3FC34, size: 0x8, addend: 0x0, symName: __ZNSt3__112__to_addressB7v160006IdEEPT_S2_, symObjAddr: 0x28914, symBinAddr: 0x100030A08, symSize: 0x14 }
  - { offsetInCU: 0x3FC6A, offset: 0x3FC6A, size: 0x8, addend: 0x0, symName: __ZNSt3__118__debug_db_erase_cB7v160006INS_6vectorINS_9sub_matchINS_11__wrap_iterIPKcEEEENS_9allocatorIS7_EEEEEEvPT_, symObjAddr: 0x28D2C, symBinAddr: 0x100030E20, symSize: 0x10 }
  - { offsetInCU: 0x3FC9C, offset: 0x3FC9C, size: 0x8, addend: 0x0, symName: __ZNSt3__112__to_addressB7v160006INS_9sub_matchINS_11__wrap_iterIPKcEEEEEEPT_S8_, symObjAddr: 0x28E70, symBinAddr: 0x100030F64, symSize: 0x14 }
  - { offsetInCU: 0x3FCD2, offset: 0x3FCD2, size: 0x8, addend: 0x0, symName: __ZNSt3__134__libcpp_atomic_refcount_decrementB7v160006IlEET_RS1_, symObjAddr: 0x291C8, symBinAddr: 0x1000312BC, symSize: 0x30 }
  - { offsetInCU: 0x3FD08, offset: 0x3FD08, size: 0x8, addend: 0x0, symName: __ZNSt3__119__debug_db_insert_cB7v160006INS_12basic_stringIcNS_11char_traitsIcEENS_9allocatorIcEEEEEEvPT_, symObjAddr: 0x293D4, symBinAddr: 0x1000314C8, symSize: 0x10 }
  - { offsetInCU: 0x3FD3A, offset: 0x3FD3A, size: 0x8, addend: 0x0, symName: __ZNSt3__115__debug_db_swapB7v160006INS_12basic_stringIcNS_11char_traitsIcEENS_9allocatorIcEEEEEEvPT_S8_, symObjAddr: 0x29564, symBinAddr: 0x100031658, symSize: 0x14 }
  - { offsetInCU: 0x3FD79, offset: 0x3FD79, size: 0x8, addend: 0x0, symName: __ZNSt3__19remove_ifB7v160006INS_11__wrap_iterIPcEEZN13CabbageParser12removeQuotesERKNS_12basic_stringIcNS_11char_traitsIcEENS_9allocatorIcEEEEEUlcE_EET_SE_SE_T0_, symObjAddr: 0x2A18C, symBinAddr: 0x100032280, symSize: 0xFC }
  - { offsetInCU: 0x3FDEF, offset: 0x3FDEF, size: 0x8, addend: 0x0, symName: __ZNSt3__1miB7v160006IPKcPcEEDTmicldtfp_4baseEcldtfp0_4baseEERKNS_11__wrap_iterIT_EERKNS5_IT0_EE, symObjAddr: 0x2A288, symBinAddr: 0x10003237C, symSize: 0x40 }
  - { offsetInCU: 0x3FE3B, offset: 0x3FE3B, size: 0x8, addend: 0x0, symName: __ZNSt3__1miB7v160006IPKcS2_EEDTmicldtfp_4baseEcldtfp0_4baseEERKNS_11__wrap_iterIT_EERKNS4_IT0_EE, symObjAddr: 0x2A2C8, symBinAddr: 0x1000323BC, symSize: 0x40 }
  - { offsetInCU: 0x3FE87, offset: 0x3FE87, size: 0x8, addend: 0x0, symName: __ZNSt3__17find_ifB7v160006INS_11__wrap_iterIPcEERZN13CabbageParser12removeQuotesERKNS_12basic_stringIcNS_11char_traitsIcEENS_9allocatorIcEEEEEUlcE_EET_SF_SF_T0_, symObjAddr: 0x2A36C, symBinAddr: 0x100032460, symSize: 0x84 }
  - { offsetInCU: 0x3FEE1, offset: 0x3FEE1, size: 0x8, addend: 0x0, symName: __ZNSt3__1neB7v160006IPcEEbRKNS_11__wrap_iterIT_EES6_, symObjAddr: 0x2A3F0, symBinAddr: 0x1000324E4, symSize: 0x34 }
  - { offsetInCU: 0x3FF24, offset: 0x3FF24, size: 0x8, addend: 0x0, symName: __ZNSt3__1eqB7v160006IPcEEbRKNS_11__wrap_iterIT_EES6_, symObjAddr: 0x2A480, symBinAddr: 0x100032574, symSize: 0x48 }
  - { offsetInCU: 0x3FF67, offset: 0x3FF67, size: 0x8, addend: 0x0, symName: __ZNSt3__118__constexpr_strlenB7v160006EPKc, symObjAddr: 0x2A55C, symBinAddr: 0x100032650, symSize: 0x24 }
  - { offsetInCU: 0x3FF94, offset: 0x3FF94, size: 0x8, addend: 0x0, symName: __ZNSt3__118__debug_db_erase_cB7v160006INS_6vectorINS_12basic_stringIcNS_11char_traitsIcEENS_9allocatorIcEEEENS5_IS7_EEEEEEvPT_, symObjAddr: 0x2A9C4, symBinAddr: 0x100032AB8, symSize: 0x10 }
  - { offsetInCU: 0x3FFC6, offset: 0x3FFC6, size: 0x8, addend: 0x0, symName: __ZNSt3__112__to_addressB7v160006INS_12basic_stringIcNS_11char_traitsIcEENS_9allocatorIcEEEEEEPT_S8_, symObjAddr: 0x2AAD4, symBinAddr: 0x100032BC8, symSize: 0x14 }
  - { offsetInCU: 0x4001F, offset: 0x4001F, size: 0x8, addend: 0x0, symName: __ZNSt3__1eqB7v160006IN8nlohmann16json_abi_v3_11_210basic_jsonINS_3mapENS_6vectorENS_12basic_stringIcNS_11char_traitsIcEENS_9allocatorIcEEEEbxydS9_NS2_14adl_serializerENS5_IhNS9_IhEEEEEENS9_ISF_EEEEbRKNS5_IT_T0_EESL_, symObjAddr: 0x2B96C, symBinAddr: 0x100033A60, symSize: 0x9C }
  - { offsetInCU: 0x4007D, offset: 0x4007D, size: 0x8, addend: 0x0, symName: __ZNSt3__1eqB7v160006INS_12basic_stringIcNS_11char_traitsIcEENS_9allocatorIcEEEEN8nlohmann16json_abi_v3_11_210basic_jsonINS_3mapENS_6vectorES6_bxydS4_NS8_14adl_serializerENSB_IhNS4_IhEEEEEENS_4lessIvEENS4_INS_4pairIKS6_SF_EEEEEEbRKNSA_IT_T0_T1_T2_EESS_, symObjAddr: 0x2BA08, symBinAddr: 0x100033AFC, symSize: 0x98 }
  - { offsetInCU: 0x400DE, offset: 0x400DE, size: 0x8, addend: 0x0, symName: __ZNSt3__1eqB7v160006INS_9allocatorIcEEEEbRKNS_12basic_stringIcNS_11char_traitsIcEET_EES9_, symObjAddr: 0x2BAA0, symBinAddr: 0x100033B94, symSize: 0x148 }
  - { offsetInCU: 0x40151, offset: 0x40151, size: 0x8, addend: 0x0, symName: __ZNSt3__15equalB7v160006INS_11__wrap_iterIPKN8nlohmann16json_abi_v3_11_210basic_jsonINS_3mapENS_6vectorENS_12basic_stringIcNS_11char_traitsIcEENS_9allocatorIcEEEEbxydSA_NS3_14adl_serializerENS6_IhNSA_IhEEEEEEEESJ_EEbT_SK_T0_, symObjAddr: 0x2BD44, symBinAddr: 0x100033E38, symSize: 0x50 }
  - { offsetInCU: 0x401AB, offset: 0x401AB, size: 0x8, addend: 0x0, symName: __ZNSt3__15equalB7v160006INS_11__wrap_iterIPKN8nlohmann16json_abi_v3_11_210basic_jsonINS_3mapENS_6vectorENS_12basic_stringIcNS_11char_traitsIcEENS_9allocatorIcEEEEbxydSA_NS3_14adl_serializerENS6_IhNSA_IhEEEEEEEESJ_NS_10__equal_toEEEbT_SL_T0_T1_, symObjAddr: 0x2BDC4, symBinAddr: 0x100033EB8, symSize: 0xB0 }
  - { offsetInCU: 0x4021C, offset: 0x4021C, size: 0x8, addend: 0x0, symName: __ZNSt3__1neB7v160006IPKN8nlohmann16json_abi_v3_11_210basic_jsonINS_3mapENS_6vectorENS_12basic_stringIcNS_11char_traitsIcEENS_9allocatorIcEEEEbxydS9_NS2_14adl_serializerENS5_IhNS9_IhEEEEEEEEbRKNS_11__wrap_iterIT_EESM_, symObjAddr: 0x2BE74, symBinAddr: 0x100033F68, symSize: 0x34 }
  - { offsetInCU: 0x4032D, offset: 0x4032D, size: 0x8, addend: 0x0, symName: __ZNSt3__1eqB7v160006IPKN8nlohmann16json_abi_v3_11_210basic_jsonINS_3mapENS_6vectorENS_12basic_stringIcNS_11char_traitsIcEENS_9allocatorIcEEEEbxydS9_NS2_14adl_serializerENS5_IhNS9_IhEEEEEEEEbRKNS_11__wrap_iterIT_EESM_, symObjAddr: 0x2BF14, symBinAddr: 0x100034008, symSize: 0x48 }
  - { offsetInCU: 0x40370, offset: 0x40370, size: 0x8, addend: 0x0, symName: __ZNSt3__15equalB7v160006INS_20__map_const_iteratorINS_21__tree_const_iteratorINS_12__value_typeINS_12basic_stringIcNS_11char_traitsIcEENS_9allocatorIcEEEEN8nlohmann16json_abi_v3_11_210basic_jsonINS_3mapENS_6vectorES9_bxydS7_NSB_14adl_serializerENSE_IhNS7_IhEEEEEEEEPNS_11__tree_nodeISJ_PvEElEEEESP_EEbT_SQ_T0_, symObjAddr: 0x2BF5C, symBinAddr: 0x100034050, symSize: 0x50 }
  - { offsetInCU: 0x403CA, offset: 0x403CA, size: 0x8, addend: 0x0, symName: __ZNSt3__15equalB7v160006INS_20__map_const_iteratorINS_21__tree_const_iteratorINS_12__value_typeINS_12basic_stringIcNS_11char_traitsIcEENS_9allocatorIcEEEEN8nlohmann16json_abi_v3_11_210basic_jsonINS_3mapENS_6vectorES9_bxydS7_NSB_14adl_serializerENSE_IhNS7_IhEEEEEEEEPNS_11__tree_nodeISJ_PvEElEEEESP_NS_10__equal_toEEEbT_SR_T0_T1_, symObjAddr: 0x2BFAC, symBinAddr: 0x1000340A0, symSize: 0xB0 }
  - { offsetInCU: 0x4043B, offset: 0x4043B, size: 0x8, addend: 0x0, symName: __ZNSt3__1eqB7v160006IKNS_12basic_stringIcNS_11char_traitsIcEENS_9allocatorIcEEEEN8nlohmann16json_abi_v3_11_210basic_jsonINS_3mapENS_6vectorES6_bxydS4_NS9_14adl_serializerENSC_IhNS4_IhEEEEEEEEbRKNS_4pairIT_T0_EESM_, symObjAddr: 0x2C090, symBinAddr: 0x100034184, symSize: 0x60 }
  - { offsetInCU: 0x4048A, offset: 0x4048A, size: 0x8, addend: 0x0, symName: __ZNSt3__1eqB7v160006IJRKNS_6vectorIhNS_9allocatorIhEEEERKyRKbEJS6_S8_SA_EEEbRKNS_5tupleIJDpT_EEERKNSB_IJDpT0_EEE, symObjAddr: 0x2C0F0, symBinAddr: 0x1000341E4, symSize: 0x34 }
  - { offsetInCU: 0x404F1, offset: 0x404F1, size: 0x8, addend: 0x0, symName: __ZNSt3__13tieB7v160006IJKNS_6vectorIhNS_9allocatorIhEEEEKyKbEEENS_5tupleIJDpRT_EEESB_, symObjAddr: 0x2C124, symBinAddr: 0x100034218, symSize: 0x40 }
  - { offsetInCU: 0x40B0B, offset: 0x40B0B, size: 0x8, addend: 0x0, symName: __ZNSt3__13getB7v160006ILm2EJRKNS_6vectorIhNS_9allocatorIhEEEERKyRKbEEERKNS_13tuple_elementIXT_ENS_5tupleIJDpT0_EEEE4typeERKSF_, symObjAddr: 0x2C264, symBinAddr: 0x100034358, symSize: 0x28 }
  - { offsetInCU: 0x40B9F, offset: 0x40B9F, size: 0x8, addend: 0x0, symName: __ZNSt3__13getB7v160006ILm1EJRKNS_6vectorIhNS_9allocatorIhEEEERKyRKbEEERKNS_13tuple_elementIXT_ENS_5tupleIJDpT0_EEEE4typeERKSF_, symObjAddr: 0x2C300, symBinAddr: 0x1000343F4, symSize: 0x28 }
  - { offsetInCU: 0x40C33, offset: 0x40C33, size: 0x8, addend: 0x0, symName: __ZNSt3__1eqB7v160006IhNS_9allocatorIhEEEEbRKNS_6vectorIT_T0_EES8_, symObjAddr: 0x2C348, symBinAddr: 0x10003443C, symSize: 0x9C }
  - { offsetInCU: 0x40C91, offset: 0x40C91, size: 0x8, addend: 0x0, symName: __ZNSt3__13getB7v160006ILm0EJRKNS_6vectorIhNS_9allocatorIhEEEERKyRKbEEERKNS_13tuple_elementIXT_ENS_5tupleIJDpT0_EEEE4typeERKSF_, symObjAddr: 0x2C3E4, symBinAddr: 0x1000344D8, symSize: 0x24 }
  - { offsetInCU: 0x40CDE, offset: 0x40CDE, size: 0x8, addend: 0x0, symName: __ZNSt3__15equalB7v160006INS_11__wrap_iterIPKhEES4_EEbT_S5_T0_, symObjAddr: 0x2C408, symBinAddr: 0x1000344FC, symSize: 0x50 }
  - { offsetInCU: 0x40D38, offset: 0x40D38, size: 0x8, addend: 0x0, symName: __ZNSt3__15equalB7v160006INS_11__wrap_iterIPKhEES4_NS_10__equal_toEEEbT_S6_T0_T1_, symObjAddr: 0x2C4B8, symBinAddr: 0x1000345AC, symSize: 0xB0 }
  - { offsetInCU: 0x40DA9, offset: 0x40DA9, size: 0x8, addend: 0x0, symName: __ZNSt3__1neB7v160006IPKhEEbRKNS_11__wrap_iterIT_EES7_, symObjAddr: 0x2C568, symBinAddr: 0x10003465C, symSize: 0x34 }
  - { offsetInCU: 0x40DEC, offset: 0x40DEC, size: 0x8, addend: 0x0, symName: __ZNSt3__1eqB7v160006IPKhEEbRKNS_11__wrap_iterIT_EES7_, symObjAddr: 0x2C608, symBinAddr: 0x1000346FC, symSize: 0x48 }
  - { offsetInCU: 0x4118E, offset: 0x4118E, size: 0x8, addend: 0x0, symName: __ZNSt3__1neB7v160006INS_12basic_stringIcNS_11char_traitsIcEENS_9allocatorIcEEEEZN8nlohmann16json_abi_v3_11_210basic_jsonINS_3mapENS_6vectorES6_bxydS4_NS8_14adl_serializerENSB_IhNS4_IhEEEEE6createIS6_JRKPKcEEEPT_DpOT0_EUlPS6_E_EEbRKNS_10unique_ptrISL_T0_EEDn, symObjAddr: 0x2CC0C, symBinAddr: 0x100034D00, symSize: 0x2C }
  - { offsetInCU: 0x411DA, offset: 0x411DA, size: 0x8, addend: 0x0, symName: __ZNSt3__19use_facetB7v160006INS_5ctypeIcEEEERKT_RKNS_6localeE, symObjAddr: 0x2D264, symBinAddr: 0x100035358, symSize: 0x2C }
  - { offsetInCU: 0x41211, offset: 0x41211, size: 0x8, addend: 0x0, symName: __ZNSt3__19use_facetB7v160006INS_7collateIcEEEERKT_RKNS_6localeE, symObjAddr: 0x2D290, symBinAddr: 0x100035384, symSize: 0x2C }
  - { offsetInCU: 0x41249, offset: 0x41249, size: 0x8, addend: 0x0, symName: __ZNSt3__119__throw_regex_errorB7v160006ILNS_15regex_constants10error_typeE17EEEvv, symObjAddr: 0x2D548, symBinAddr: 0x10003563C, symSize: 0x60 }
  - { offsetInCU: 0x416DB, offset: 0x416DB, size: 0x8, addend: 0x0, symName: __ZNSt3__119__throw_regex_errorB7v160006ILNS_15regex_constants10error_typeE14EEEvv, symObjAddr: 0x2DDC4, symBinAddr: 0x100035EB8, symSize: 0x60 }
  - { offsetInCU: 0x422A7, offset: 0x422A7, size: 0x8, addend: 0x0, symName: __ZNSt3__14swapB7v160006IPNS_13__empty_stateIcEEEENS_9enable_ifIXaasr21is_move_constructibleIT_EE5valuesr18is_move_assignableIS5_EE5valueEvE4typeERS5_S8_, symObjAddr: 0x2ED18, symBinAddr: 0x100036E0C, symSize: 0x3C }
  - { offsetInCU: 0x422F9, offset: 0x422F9, size: 0x8, addend: 0x0, symName: __ZNSt3__14swapB7v160006IPNS_19__shared_weak_countEEENS_9enable_ifIXaasr21is_move_constructibleIT_EE5valuesr18is_move_assignableIS4_EE5valueEvE4typeERS4_S7_, symObjAddr: 0x2ED54, symBinAddr: 0x100036E48, symSize: 0x3C }
  - { offsetInCU: 0x4234A, offset: 0x4234A, size: 0x8, addend: 0x0, symName: __ZNSt3__14nextB7v160006IPKcEENS_9enable_ifIXsr25__is_cpp17_input_iteratorIT_EE5valueES4_E4typeES4_NS_15iterator_traitsIS4_E15difference_typeE, symObjAddr: 0x304E4, symBinAddr: 0x1000385D8, symSize: 0x48 }
  - { offsetInCU: 0x4238E, offset: 0x4238E, size: 0x8, addend: 0x0, symName: __ZNSt3__119__throw_regex_errorB7v160006ILNS_15regex_constants10error_typeE6EEEvv, symObjAddr: 0x306EC, symBinAddr: 0x1000387E0, symSize: 0x60 }
  - { offsetInCU: 0x42439, offset: 0x42439, size: 0x8, addend: 0x0, symName: __ZNSt3__18__is_eolB7v160006IcEEbT_, symObjAddr: 0x30A40, symBinAddr: 0x100038B34, symSize: 0x48 }
  - { offsetInCU: 0x42470, offset: 0x42470, size: 0x8, addend: 0x0, symName: __ZNSt3__14prevB7v160006IPKcEENS_9enable_ifIXsr25__is_cpp17_input_iteratorIT_EE5valueES4_E4typeES4_NS_15iterator_traitsIS4_E15difference_typeE, symObjAddr: 0x30A88, symBinAddr: 0x100038B7C, symSize: 0x50 }
  - { offsetInCU: 0x424B4, offset: 0x424B4, size: 0x8, addend: 0x0, symName: __ZNSt3__19__advanceB7v160006IPKcEEvRT_NS_15iterator_traitsIS3_E15difference_typeENS_26random_access_iterator_tagE, symObjAddr: 0x30B28, symBinAddr: 0x100038C1C, symSize: 0x28 }
  - { offsetInCU: 0x42707, offset: 0x42707, size: 0x8, addend: 0x0, symName: __ZNSt3__134__libcpp_atomic_refcount_incrementB7v160006IlEET_RS1_, symObjAddr: 0x318F0, symBinAddr: 0x1000399E4, symSize: 0x30 }
  - { offsetInCU: 0x42A25, offset: 0x42A25, size: 0x8, addend: 0x0, symName: __ZNSt3__119__debug_db_insert_cB7v160006INS_6vectorINS_9sub_matchIPKcEENS_9allocatorIS5_EEEEEEvPT_, symObjAddr: 0x32378, symBinAddr: 0x10003A46C, symSize: 0x10 }
  - { offsetInCU: 0x42A57, offset: 0x42A57, size: 0x8, addend: 0x0, symName: __ZNSt3__118__debug_db_erase_cB7v160006INS_6vectorINS_9sub_matchIPKcEENS_9allocatorIS5_EEEEEEvPT_, symObjAddr: 0x32654, symBinAddr: 0x10003A748, symSize: 0x10 }
  - { offsetInCU: 0x42A89, offset: 0x42A89, size: 0x8, addend: 0x0, symName: __ZNSt3__112__to_addressB7v160006INS_9sub_matchIPKcEEEEPT_S6_, symObjAddr: 0x32798, symBinAddr: 0x10003A88C, symSize: 0x14 }
  - { offsetInCU: 0x42ABE, offset: 0x42ABE, size: 0x8, addend: 0x0, symName: __ZNSt3__16fill_nB7v160006IPNS_9sub_matchIPKcEEmS4_EET_S6_T0_RKT1_, symObjAddr: 0x32A6C, symBinAddr: 0x10003AB60, symSize: 0x44 }
  - { offsetInCU: 0x42B22, offset: 0x42B22, size: 0x8, addend: 0x0, symName: __ZNSt3__125__debug_db_invalidate_allB7v160006INS_6vectorINS_9sub_matchIPKcEENS_9allocatorIS5_EEEEEEvPT_, symObjAddr: 0x32DD4, symBinAddr: 0x10003AEC8, symSize: 0x10 }
  - { offsetInCU: 0x42B53, offset: 0x42B53, size: 0x8, addend: 0x0, symName: __ZNSt3__18__fill_nB7v160006IPNS_9sub_matchIPKcEEmS4_EET_S6_T0_RKT1_, symObjAddr: 0x32DE4, symBinAddr: 0x10003AED8, symSize: 0x6C }
  - { offsetInCU: 0x42BB7, offset: 0x42BB7, size: 0x8, addend: 0x0, symName: __ZNSt3__121__convert_to_integralB7v160006Em, symObjAddr: 0x32E50, symBinAddr: 0x10003AF44, symSize: 0x14 }
  - { offsetInCU: 0x42BE3, offset: 0x42BE3, size: 0x8, addend: 0x0, symName: __ZNSt3__119__allocate_at_leastB7v160006INS_9allocatorINS_9sub_matchIPKcEEEEEENS_19__allocation_resultINS_16allocator_traitsIT_E7pointerEEERS9_m, symObjAddr: 0x331B0, symBinAddr: 0x10003B2A4, symSize: 0x40 }
  - { offsetInCU: 0x42C27, offset: 0x42C27, size: 0x8, addend: 0x0, symName: __ZNSt3__119__throw_regex_errorB7v160006ILNS_15regex_constants10error_typeE12EEEvv, symObjAddr: 0x3360C, symBinAddr: 0x10003B700, symSize: 0x60 }
  - { offsetInCU: 0x42C4D, offset: 0x42C4D, size: 0x8, addend: 0x0, symName: __ZNSt3__119__throw_regex_errorB7v160006ILNS_15regex_constants10error_typeE16EEEvv, symObjAddr: 0x336CC, symBinAddr: 0x10003B7C0, symSize: 0x60 }
  - { offsetInCU: 0x42C73, offset: 0x42C73, size: 0x8, addend: 0x0, symName: __ZNSt3__119__debug_db_insert_cB7v160006INS_6vectorINS_7__stateIcEENS_9allocatorIS3_EEEEEEvPT_, symObjAddr: 0x33814, symBinAddr: 0x10003B908, symSize: 0x10 }
  - { offsetInCU: 0x42CA5, offset: 0x42CA5, size: 0x8, addend: 0x0, symName: __ZNSt3__112__to_addressB7v160006INS_7__stateIcEEEEPT_S4_, symObjAddr: 0x33B4C, symBinAddr: 0x10003BC40, symSize: 0x14 }
  - { offsetInCU: 0x42CDB, offset: 0x42CDB, size: 0x8, addend: 0x0, symName: __ZNSt3__115__debug_db_swapB7v160006INS_6vectorINS_9sub_matchIPKcEENS_9allocatorIS5_EEEEEEvPT_SA_, symObjAddr: 0x33E34, symBinAddr: 0x10003BF28, symSize: 0x14 }
  - { offsetInCU: 0x42D1B, offset: 0x42D1B, size: 0x8, addend: 0x0, symName: __ZNSt3__119__debug_db_insert_cB7v160006INS_6vectorINS_4pairImPKcEENS_9allocatorIS5_EEEEEEvPT_, symObjAddr: 0x33FE8, symBinAddr: 0x10003C0DC, symSize: 0x10 }
  - { offsetInCU: 0x42D4D, offset: 0x42D4D, size: 0x8, addend: 0x0, symName: __ZNSt3__115__debug_db_swapB7v160006INS_6vectorINS_4pairImPKcEENS_9allocatorIS5_EEEEEEvPT_SA_, symObjAddr: 0x33FF8, symBinAddr: 0x10003C0EC, symSize: 0x14 }
  - { offsetInCU: 0x42D8C, offset: 0x42D8C, size: 0x8, addend: 0x0, symName: __ZNSt3__119__allocate_at_leastB7v160006INS_9allocatorINS_7__stateIcEEEEEENS_19__allocation_resultINS_16allocator_traitsIT_E7pointerEEERS7_m, symObjAddr: 0x346AC, symBinAddr: 0x10003C7A0, symSize: 0x40 }
  - { offsetInCU: 0x42DCF, offset: 0x42DCF, size: 0x8, addend: 0x0, symName: __ZNSt3__142__uninitialized_allocator_move_if_noexceptB7v160006INS_9allocatorINS_7__stateIcEEEENS_16reverse_iteratorIPS3_EES7_S7_EET2_RT_T0_T1_S8_, symObjAddr: 0x34938, symBinAddr: 0x10003CA2C, symSize: 0x12C }
  - { offsetInCU: 0x42E70, offset: 0x42E70, size: 0x8, addend: 0x0, symName: __ZNSt3__14swapB7v160006IPNS_7__stateIcEEEENS_9enable_ifIXaasr21is_move_constructibleIT_EE5valuesr18is_move_assignableIS5_EE5valueEvE4typeERS5_S8_, symObjAddr: 0x34AB0, symBinAddr: 0x10003CBA4, symSize: 0x3C }
  - { offsetInCU: 0x42EC2, offset: 0x42EC2, size: 0x8, addend: 0x0, symName: __ZNSt3__125__debug_db_invalidate_allB7v160006INS_6vectorINS_7__stateIcEENS_9allocatorIS3_EEEEEEvPT_, symObjAddr: 0x34BB4, symBinAddr: 0x10003CCA8, symSize: 0x10 }
  - { offsetInCU: 0x42EF3, offset: 0x42EF3, size: 0x8, addend: 0x0, symName: __ZNSt3__122__make_exception_guardB7v160006INS_29_AllocatorDestroyRangeReverseINS_9allocatorINS_7__stateIcEEEENS_16reverse_iteratorIPS4_EEEEEENS_28__exception_guard_exceptionsIT_EESB_, symObjAddr: 0x34C0C, symBinAddr: 0x10003CD00, symSize: 0x4C }
  - { offsetInCU: 0x42F29, offset: 0x42F29, size: 0x8, addend: 0x0, symName: __ZNSt3__1neB7v160006IPNS_7__stateIcEES3_EEbRKNS_16reverse_iteratorIT_EERKNS4_IT0_EE, symObjAddr: 0x34C9C, symBinAddr: 0x10003CD90, symSize: 0x48 }
  - { offsetInCU: 0x42F75, offset: 0x42F75, size: 0x8, addend: 0x0, symName: __ZNSt3__112__to_addressB7v160006INS_16reverse_iteratorIPNS_7__stateIcEEEEvEENS_5decayIDTclsr19__to_address_helperIT_EE6__callclsr3stdE7declvalIRKS7_EEEEE4typeES9_, symObjAddr: 0x34CE4, symBinAddr: 0x10003CDD8, symSize: 0x24 }
  - { offsetInCU: 0x42FD5, offset: 0x42FD5, size: 0x8, addend: 0x0, symName: __ZNSt3__119__allocator_destroyB7v160006INS_9allocatorINS_7__stateIcEEEENS_16reverse_iteratorINS5_IPS3_EEEES8_EEvRT_T0_T1_, symObjAddr: 0x34F94, symBinAddr: 0x10003D088, symSize: 0x70 }
  - { offsetInCU: 0x4303A, offset: 0x4303A, size: 0x8, addend: 0x0, symName: __ZNSt3__1neB7v160006INS_16reverse_iteratorIPNS_7__stateIcEEEES5_EEbRKNS1_IT_EERKNS1_IT0_EE, symObjAddr: 0x35040, symBinAddr: 0x10003D134, symSize: 0x60 }
  - { offsetInCU: 0x43086, offset: 0x43086, size: 0x8, addend: 0x0, symName: __ZNSt3__112__to_addressB7v160006INS_16reverse_iteratorINS1_IPNS_7__stateIcEEEEEEvEENS_5decayIDTclsr19__to_address_helperIT_EE6__callclsr3stdE7declvalIRKS8_EEEEE4typeESA_, symObjAddr: 0x350CC, symBinAddr: 0x10003D1C0, symSize: 0x24 }
  - { offsetInCU: 0x430E6, offset: 0x430E6, size: 0x8, addend: 0x0, symName: __ZNSt3__118__debug_db_erase_cB7v160006INS_6vectorINS_4pairImPKcEENS_9allocatorIS5_EEEEEEvPT_, symObjAddr: 0x35A0C, symBinAddr: 0x10003DB00, symSize: 0x10 }
  - { offsetInCU: 0x43118, offset: 0x43118, size: 0x8, addend: 0x0, symName: __ZNSt3__112__to_addressB7v160006INS_4pairImPKcEEEEPT_S6_, symObjAddr: 0x35B28, symBinAddr: 0x10003DC1C, symSize: 0x14 }
  - { offsetInCU: 0x4314D, offset: 0x4314D, size: 0x8, addend: 0x0, symName: __ZNSt3__142__uninitialized_allocator_move_if_noexceptB7v160006INS_9allocatorINS_9sub_matchIPKcEEEENS_16reverse_iteratorIPS5_EES9_S9_EET2_RT_T0_T1_SA_, symObjAddr: 0x3630C, symBinAddr: 0x10003E400, symSize: 0x12C }
  - { offsetInCU: 0x431EE, offset: 0x431EE, size: 0x8, addend: 0x0, symName: __ZNSt3__14swapB7v160006IPNS_9sub_matchIPKcEEEENS_9enable_ifIXaasr21is_move_constructibleIT_EE5valuesr18is_move_assignableIS7_EE5valueEvE4typeERS7_SA_, symObjAddr: 0x36484, symBinAddr: 0x10003E578, symSize: 0x3C }
  - { offsetInCU: 0x4323F, offset: 0x4323F, size: 0x8, addend: 0x0, symName: __ZNSt3__122__make_exception_guardB7v160006INS_29_AllocatorDestroyRangeReverseINS_9allocatorINS_9sub_matchIPKcEEEENS_16reverse_iteratorIPS6_EEEEEENS_28__exception_guard_exceptionsIT_EESD_, symObjAddr: 0x364C0, symBinAddr: 0x10003E5B4, symSize: 0x4C }
  - { offsetInCU: 0x43275, offset: 0x43275, size: 0x8, addend: 0x0, symName: __ZNSt3__1neB7v160006IPNS_9sub_matchIPKcEES5_EEbRKNS_16reverse_iteratorIT_EERKNS6_IT0_EE, symObjAddr: 0x36550, symBinAddr: 0x10003E644, symSize: 0x48 }
  - { offsetInCU: 0x432C1, offset: 0x432C1, size: 0x8, addend: 0x0, symName: __ZNSt3__112__to_addressB7v160006INS_16reverse_iteratorIPNS_9sub_matchIPKcEEEEvEENS_5decayIDTclsr19__to_address_helperIT_EE6__callclsr3stdE7declvalIRKS9_EEEEE4typeESB_, symObjAddr: 0x365CC, symBinAddr: 0x10003E6C0, symSize: 0x24 }
  - { offsetInCU: 0x43321, offset: 0x43321, size: 0x8, addend: 0x0, symName: __ZNSt3__119__allocator_destroyB7v160006INS_9allocatorINS_9sub_matchIPKcEEEENS_16reverse_iteratorINS7_IPS5_EEEESA_EEvRT_T0_T1_, symObjAddr: 0x368AC, symBinAddr: 0x10003E9A0, symSize: 0x70 }
  - { offsetInCU: 0x43386, offset: 0x43386, size: 0x8, addend: 0x0, symName: __ZNSt3__1neB7v160006INS_16reverse_iteratorIPNS_9sub_matchIPKcEEEES7_EEbRKNS1_IT_EERKNS1_IT0_EE, symObjAddr: 0x36958, symBinAddr: 0x10003EA4C, symSize: 0x60 }
  - { offsetInCU: 0x433D2, offset: 0x433D2, size: 0x8, addend: 0x0, symName: __ZNSt3__112__to_addressB7v160006INS_16reverse_iteratorINS1_IPNS_9sub_matchIPKcEEEEEEvEENS_5decayIDTclsr19__to_address_helperIT_EE6__callclsr3stdE7declvalIRKSA_EEEEE4typeESC_, symObjAddr: 0x369B8, symBinAddr: 0x10003EAAC, symSize: 0x24 }
  - { offsetInCU: 0x43431, offset: 0x43431, size: 0x8, addend: 0x0, symName: __ZNSt3__119__allocate_at_leastB7v160006INS_9allocatorINS_4pairImPKcEEEEEENS_19__allocation_resultINS_16allocator_traitsIT_E7pointerEEERS9_m, symObjAddr: 0x375CC, symBinAddr: 0x10003F6C0, symSize: 0x40 }
  - { offsetInCU: 0x43474, offset: 0x43474, size: 0x8, addend: 0x0, symName: __ZNSt3__142__uninitialized_allocator_move_if_noexceptB7v160006INS_9allocatorINS_4pairImPKcEEEENS_16reverse_iteratorIPS5_EES9_S9_EET2_RT_T0_T1_SA_, symObjAddr: 0x3784C, symBinAddr: 0x10003F940, symSize: 0x12C }
  - { offsetInCU: 0x43515, offset: 0x43515, size: 0x8, addend: 0x0, symName: __ZNSt3__14swapB7v160006IPNS_4pairImPKcEEEENS_9enable_ifIXaasr21is_move_constructibleIT_EE5valuesr18is_move_assignableIS7_EE5valueEvE4typeERS7_SA_, symObjAddr: 0x379C4, symBinAddr: 0x10003FAB8, symSize: 0x3C }
  - { offsetInCU: 0x43567, offset: 0x43567, size: 0x8, addend: 0x0, symName: __ZNSt3__125__debug_db_invalidate_allB7v160006INS_6vectorINS_4pairImPKcEENS_9allocatorIS5_EEEEEEvPT_, symObjAddr: 0x37AAC, symBinAddr: 0x10003FBA0, symSize: 0x10 }
  - { offsetInCU: 0x43598, offset: 0x43598, size: 0x8, addend: 0x0, symName: __ZNSt3__122__make_exception_guardB7v160006INS_29_AllocatorDestroyRangeReverseINS_9allocatorINS_4pairImPKcEEEENS_16reverse_iteratorIPS6_EEEEEENS_28__exception_guard_exceptionsIT_EESD_, symObjAddr: 0x37ABC, symBinAddr: 0x10003FBB0, symSize: 0x4C }
  - { offsetInCU: 0x435CE, offset: 0x435CE, size: 0x8, addend: 0x0, symName: __ZNSt3__1neB7v160006IPNS_4pairImPKcEES5_EEbRKNS_16reverse_iteratorIT_EERKNS6_IT0_EE, symObjAddr: 0x37B4C, symBinAddr: 0x10003FC40, symSize: 0x48 }
  - { offsetInCU: 0x4361A, offset: 0x4361A, size: 0x8, addend: 0x0, symName: __ZNSt3__112__to_addressB7v160006INS_16reverse_iteratorIPNS_4pairImPKcEEEEvEENS_5decayIDTclsr19__to_address_helperIT_EE6__callclsr3stdE7declvalIRKS9_EEEEE4typeESB_, symObjAddr: 0x37BC8, symBinAddr: 0x10003FCBC, symSize: 0x24 }
  - { offsetInCU: 0x4367A, offset: 0x4367A, size: 0x8, addend: 0x0, symName: __ZNSt3__119__allocator_destroyB7v160006INS_9allocatorINS_4pairImPKcEEEENS_16reverse_iteratorINS7_IPS5_EEEESA_EEvRT_T0_T1_, symObjAddr: 0x37EA0, symBinAddr: 0x10003FF94, symSize: 0x70 }
  - { offsetInCU: 0x436DF, offset: 0x436DF, size: 0x8, addend: 0x0, symName: __ZNSt3__1neB7v160006INS_16reverse_iteratorIPNS_4pairImPKcEEEES7_EEbRKNS1_IT_EERKNS1_IT0_EE, symObjAddr: 0x37F4C, symBinAddr: 0x100040040, symSize: 0x60 }
  - { offsetInCU: 0x4372B, offset: 0x4372B, size: 0x8, addend: 0x0, symName: __ZNSt3__112__to_addressB7v160006INS_16reverse_iteratorINS1_IPNS_4pairImPKcEEEEEEvEENS_5decayIDTclsr19__to_address_helperIT_EE6__callclsr3stdE7declvalIRKSA_EEEEE4typeESC_, symObjAddr: 0x37FAC, symBinAddr: 0x1000400A0, symSize: 0x24 }
  - { offsetInCU: 0x4378A, offset: 0x4378A, size: 0x8, addend: 0x0, symName: __ZNSt3__122__make_exception_guardB7v160006INS_6vectorINS_9sub_matchIPKcEENS_9allocatorIS5_EEE16__destroy_vectorEEENS_28__exception_guard_exceptionsIT_EESB_, symObjAddr: 0x387D8, symBinAddr: 0x1000408CC, symSize: 0x40 }
  - { offsetInCU: 0x437BF, offset: 0x437BF, size: 0x8, addend: 0x0, symName: __ZNSt3__130__uninitialized_allocator_copyB7v160006INS_9allocatorINS_9sub_matchIPKcEEEEPS5_S7_S7_EET2_RT_T0_T1_S8_, symObjAddr: 0x38944, symBinAddr: 0x100040A38, symSize: 0xF4 }
  - { offsetInCU: 0x4385D, offset: 0x4385D, size: 0x8, addend: 0x0, symName: __ZNSt3__122__make_exception_guardB7v160006INS_29_AllocatorDestroyRangeReverseINS_9allocatorINS_9sub_matchIPKcEEEEPS6_EEEENS_28__exception_guard_exceptionsIT_EESB_, symObjAddr: 0x38A38, symBinAddr: 0x100040B2C, symSize: 0x4C }
  - { offsetInCU: 0x43894, offset: 0x43894, size: 0x8, addend: 0x0, symName: __ZNSt3__119__allocator_destroyB7v160006INS_9allocatorINS_9sub_matchIPKcEEEENS_16reverse_iteratorIPS5_EES9_EEvRT_T0_T1_, symObjAddr: 0x38CC8, symBinAddr: 0x100040DBC, symSize: 0x70 }
  - { offsetInCU: 0x438F7, offset: 0x438F7, size: 0x8, addend: 0x0, symName: __ZNSt3__122__make_exception_guardB7v160006INS_6vectorINS_4pairImPKcEENS_9allocatorIS5_EEE16__destroy_vectorEEENS_28__exception_guard_exceptionsIT_EESB_, symObjAddr: 0x38EA8, symBinAddr: 0x100040F9C, symSize: 0x40 }
  - { offsetInCU: 0x4392C, offset: 0x4392C, size: 0x8, addend: 0x0, symName: __ZNSt3__130__uninitialized_allocator_copyB7v160006INS_9allocatorINS_4pairImPKcEEEEPS5_S7_S7_EET2_RT_T0_T1_S8_, symObjAddr: 0x390C0, symBinAddr: 0x1000411B4, symSize: 0xF4 }
  - { offsetInCU: 0x439CA, offset: 0x439CA, size: 0x8, addend: 0x0, symName: __ZNSt3__122__make_exception_guardB7v160006INS_29_AllocatorDestroyRangeReverseINS_9allocatorINS_4pairImPKcEEEEPS6_EEEENS_28__exception_guard_exceptionsIT_EESB_, symObjAddr: 0x391B4, symBinAddr: 0x1000412A8, symSize: 0x4C }
  - { offsetInCU: 0x43A01, offset: 0x43A01, size: 0x8, addend: 0x0, symName: __ZNSt3__119__allocator_destroyB7v160006INS_9allocatorINS_4pairImPKcEEEENS_16reverse_iteratorIPS5_EES9_EEvRT_T0_T1_, symObjAddr: 0x3943C, symBinAddr: 0x100041530, symSize: 0x70 }
  - { offsetInCU: 0x43A65, offset: 0x43A65, size: 0x8, addend: 0x0, symName: __ZNSt3__118__debug_db_erase_cB7v160006INS_6vectorINS_7__stateIcEENS_9allocatorIS3_EEEEEEvPT_, symObjAddr: 0x39630, symBinAddr: 0x100041724, symSize: 0x10 }
  - { offsetInCU: 0x43A97, offset: 0x43A97, size: 0x8, addend: 0x0, symName: __ZNSt3__119__throw_regex_errorB7v160006ILNS_15regex_constants10error_typeE11EEEvv, symObjAddr: 0x39C34, symBinAddr: 0x100041D28, symSize: 0x60 }
  - { offsetInCU: 0x43B31, offset: 0x43B31, size: 0x8, addend: 0x0, symName: __ZNSt3__119__throw_regex_errorB7v160006ILNS_15regex_constants10error_typeE3EEEvv, symObjAddr: 0x39FAC, symBinAddr: 0x1000420A0, symSize: 0x60 }
  - { offsetInCU: 0x43D42, offset: 0x43D42, size: 0x8, addend: 0x0, symName: __ZNSt3__119__throw_regex_errorB7v160006ILNS_15regex_constants10error_typeE4EEEvv, symObjAddr: 0x3AD64, symBinAddr: 0x100042E58, symSize: 0x60 }
  - { offsetInCU: 0x44181, offset: 0x44181, size: 0x8, addend: 0x0, symName: __ZNSt3__15equalB7v160006IPKcS2_EEbT_S3_T0_, symObjAddr: 0x3BEE8, symBinAddr: 0x100043FDC, symSize: 0x38 }
  - { offsetInCU: 0x441DB, offset: 0x441DB, size: 0x8, addend: 0x0, symName: __ZNSt3__15equalB7v160006IPKcS2_NS_10__equal_toEEEbT_S4_T0_T1_, symObjAddr: 0x3BF20, symBinAddr: 0x100044014, symSize: 0xA8 }
  - { offsetInCU: 0x4424C, offset: 0x4424C, size: 0x8, addend: 0x0, symName: __ZNSt3__1neB7v160006IcNS_11char_traitsIcEENS_9allocatorIcEEEEbRKNS_12basic_stringIT_T0_T1_EEPKS6_, symObjAddr: 0x3C488, symBinAddr: 0x10004457C, symSize: 0x34 }
  - { offsetInCU: 0x442A5, offset: 0x442A5, size: 0x8, addend: 0x0, symName: __ZNSt3__119__debug_db_insert_cB7v160006INS_6vectorINS_4pairINS_12basic_stringIcNS_11char_traitsIcEENS_9allocatorIcEEEES8_EENS6_IS9_EEEEEEvPT_, symObjAddr: 0x3CF10, symBinAddr: 0x100045004, symSize: 0x10 }
  - { offsetInCU: 0x442D7, offset: 0x442D7, size: 0x8, addend: 0x0, symName: __ZNSt3__119__debug_db_insert_cB7v160006INS_6vectorINS_4pairIccEENS_9allocatorIS3_EEEEEEvPT_, symObjAddr: 0x3D07C, symBinAddr: 0x100045170, symSize: 0x10 }
  - { offsetInCU: 0x44309, offset: 0x44309, size: 0x8, addend: 0x0, symName: __ZNSt3__118__debug_db_erase_cB7v160006INS_6vectorINS_4pairIccEENS_9allocatorIS3_EEEEEEvPT_, symObjAddr: 0x3D340, symBinAddr: 0x100045434, symSize: 0x10 }
  - { offsetInCU: 0x4433B, offset: 0x4433B, size: 0x8, addend: 0x0, symName: __ZNSt3__112__to_addressB7v160006INS_4pairIccEEEEPT_S4_, symObjAddr: 0x3D484, symBinAddr: 0x100045578, symSize: 0x14 }
  - { offsetInCU: 0x44371, offset: 0x44371, size: 0x8, addend: 0x0, symName: __ZNSt3__118__debug_db_erase_cB7v160006INS_6vectorINS_4pairINS_12basic_stringIcNS_11char_traitsIcEENS_9allocatorIcEEEES8_EENS6_IS9_EEEEEEvPT_, symObjAddr: 0x3D844, symBinAddr: 0x100045938, symSize: 0x10 }
  - { offsetInCU: 0x443A3, offset: 0x443A3, size: 0x8, addend: 0x0, symName: __ZNSt3__112__to_addressB7v160006INS_4pairINS_12basic_stringIcNS_11char_traitsIcEENS_9allocatorIcEEEES7_EEEEPT_SA_, symObjAddr: 0x3D988, symBinAddr: 0x100045A7C, symSize: 0x14 }
  - { offsetInCU: 0x443D8, offset: 0x443D8, size: 0x8, addend: 0x0, symName: __ZNSt3__1eqB7v160006IccEEbRKNS_4pairIT_T0_EES6_, symObjAddr: 0x3DCBC, symBinAddr: 0x100045DB0, symSize: 0x64 }
  - { offsetInCU: 0x44427, offset: 0x44427, size: 0x8, addend: 0x0, symName: __ZNSt3__1leB7v160006IcNS_11char_traitsIcEENS_9allocatorIcEEEEbRKNS_12basic_stringIT_T0_T1_EESB_, symObjAddr: 0x3DE5C, symBinAddr: 0x100045F50, symSize: 0x34 }
  - { offsetInCU: 0x4447F, offset: 0x4447F, size: 0x8, addend: 0x0, symName: __ZNSt3__14findB7v160006INS_11__wrap_iterIPKcEEcEET_S5_S5_RKT0_, symObjAddr: 0x3DF74, symBinAddr: 0x100046068, symSize: 0x80 }
  - { offsetInCU: 0x444D9, offset: 0x444D9, size: 0x8, addend: 0x0, symName: __ZNSt3__18distanceB7v160006IPcEENS_15iterator_traitsIT_E15difference_typeES3_S3_, symObjAddr: 0x3E46C, symBinAddr: 0x100046560, symSize: 0x2C }
  - { offsetInCU: 0x4451D, offset: 0x4451D, size: 0x8, addend: 0x0, symName: __ZNSt3__110__distanceB7v160006IPcEENS_15iterator_traitsIT_E15difference_typeES3_S3_NS_26random_access_iterator_tagE, symObjAddr: 0x3E6C0, symBinAddr: 0x1000467B4, symSize: 0x20 }
  - { offsetInCU: 0x4456B, offset: 0x4456B, size: 0x8, addend: 0x0, symName: __ZNSt3__17__is_07B7v160006Eh, symObjAddr: 0x3ECE0, symBinAddr: 0x100046DD4, symSize: 0x24 }
  - { offsetInCU: 0x44599, offset: 0x44599, size: 0x8, addend: 0x0, symName: __ZNSt3__17__is_89B7v160006Eh, symObjAddr: 0x3ED04, symBinAddr: 0x100046DF8, symSize: 0x24 }
  - { offsetInCU: 0x445C7, offset: 0x445C7, size: 0x8, addend: 0x0, symName: __ZNSt3__110__to_lowerB7v160006Eh, symObjAddr: 0x3ED28, symBinAddr: 0x100046E1C, symSize: 0x1C }
  - { offsetInCU: 0x445F6, offset: 0x445F6, size: 0x8, addend: 0x0, symName: __ZNSt3__119__throw_regex_errorB7v160006ILNS_15regex_constants10error_typeE5EEEvv, symObjAddr: 0x3ED44, symBinAddr: 0x100046E38, symSize: 0x60 }
  - { offsetInCU: 0x4461B, offset: 0x4461B, size: 0x8, addend: 0x0, symName: __ZNSt3__16searchB7v160006IPKcPcEET_S4_S4_T0_S5_, symObjAddr: 0x407A0, symBinAddr: 0x100048894, symSize: 0x3C }
  - { offsetInCU: 0x44684, offset: 0x44684, size: 0x8, addend: 0x0, symName: __ZNSt3__119__throw_regex_errorB7v160006ILNS_15regex_constants10error_typeE1EEEvv, symObjAddr: 0x4081C, symBinAddr: 0x100048910, symSize: 0x60 }
  - { offsetInCU: 0x446A9, offset: 0x446A9, size: 0x8, addend: 0x0, symName: __ZNSt3__16searchB7v160006IPKcPcNS_10__equal_toEEET_S5_S5_T0_S6_T1_, symObjAddr: 0x408FC, symBinAddr: 0x1000489F0, symSize: 0x64 }
  - { offsetInCU: 0x44736, offset: 0x44736, size: 0x8, addend: 0x0, symName: __ZNSt3__113__search_implB7v160006IPKcS2_PcS3_NS_10__equal_toENS_10__identityES5_EENS_4pairIT_S7_EES7_T0_T1_T2_RT3_RT4_RT5_PNS_9enable_ifIXaasr33__is_cpp17_random_access_iteratorIS7_EE5valuesr33__is_cpp17_random_access_iteratorISA_EE5valueEvE4typeE, symObjAddr: 0x40960, symBinAddr: 0x100048A54, symSize: 0xF8 }
  - { offsetInCU: 0x4481C, offset: 0x4481C, size: 0x8, addend: 0x0, symName: __ZNSt3__19make_pairB7v160006IRPKcS3_EENS_4pairINS_18__unwrap_ref_decayIT_E4typeENS5_IT0_E4typeEEEOS6_OS9_, symObjAddr: 0x40A58, symBinAddr: 0x100048B4C, symSize: 0x38 }
  - { offsetInCU: 0x4486B, offset: 0x4486B, size: 0x8, addend: 0x0, symName: __ZNSt3__127__search_random_access_implB7v160006INS_17_ClassicAlgPolicyEPKcS3_PcS4_NS_10__equal_toENS_10__identityES6_llEENS_4pairIT0_S8_EES8_T1_T2_T3_RT4_RT5_RT6_T7_T8_, symObjAddr: 0x40A90, symBinAddr: 0x100048B84, symSize: 0x1BC }
  - { offsetInCU: 0x4499D, offset: 0x4499D, size: 0x8, addend: 0x0, symName: __ZNSt3__18__invokeB7v160006IRNS_10__equal_toEJRKcRcEEEDTclclsr3stdE7declvalIT_EEspclsr3stdE7declvalIT0_EEEEOS6_DpOS7_, symObjAddr: 0x40CDC, symBinAddr: 0x100048DD0, symSize: 0x38 }
  - { offsetInCU: 0x44A02, offset: 0x44A02, size: 0x8, addend: 0x0, symName: __ZNSt3__18__invokeB7v160006IRNS_10__identityEJRKcEEEDTclclsr3stdE7declvalIT_EEspclsr3stdE7declvalIT0_EEEEOS5_DpOS6_, symObjAddr: 0x40D14, symBinAddr: 0x100048E08, symSize: 0x2C }
  - { offsetInCU: 0x44A53, offset: 0x44A53, size: 0x8, addend: 0x0, symName: __ZNSt3__18__invokeB7v160006IRNS_10__identityEJRcEEEDTclclsr3stdE7declvalIT_EEspclsr3stdE7declvalIT0_EEEEOS4_DpOS5_, symObjAddr: 0x40D40, symBinAddr: 0x100048E34, symSize: 0x2C }
  - { offsetInCU: 0x44AA4, offset: 0x44AA4, size: 0x8, addend: 0x0, symName: __ZNSt3__19make_pairB7v160006IRPKcS2_EENS_4pairINS_18__unwrap_ref_decayIT_E4typeENS5_IT0_E4typeEEEOS6_OS9_, symObjAddr: 0x40D6C, symBinAddr: 0x100048E60, symSize: 0x38 }
  - { offsetInCU: 0x44B43, offset: 0x44B43, size: 0x8, addend: 0x0, symName: __ZNSt3__18distanceB7v160006IPKcEENS_15iterator_traitsIT_E15difference_typeES4_S4_, symObjAddr: 0x4124C, symBinAddr: 0x100049340, symSize: 0x2C }
  - { offsetInCU: 0x44B87, offset: 0x44B87, size: 0x8, addend: 0x0, symName: __ZNSt3__110__distanceB7v160006IPKcEENS_15iterator_traitsIT_E15difference_typeES4_S4_NS_26random_access_iterator_tagE, symObjAddr: 0x41278, symBinAddr: 0x10004936C, symSize: 0x20 }
  - { offsetInCU: 0x44BD5, offset: 0x44BD5, size: 0x8, addend: 0x0, symName: __ZNSt3__18distanceB7v160006INS_11__wrap_iterIPcEEEENS_15iterator_traitsIT_E15difference_typeES5_S5_, symObjAddr: 0x41654, symBinAddr: 0x100049748, symSize: 0x3C }
  - { offsetInCU: 0x44C18, offset: 0x44C18, size: 0x8, addend: 0x0, symName: __ZNSt3__110__distanceB7v160006INS_11__wrap_iterIPcEEEENS_15iterator_traitsIT_E15difference_typeES5_S5_NS_26random_access_iterator_tagE, symObjAddr: 0x41690, symBinAddr: 0x100049784, symSize: 0x30 }
  - { offsetInCU: 0x44C66, offset: 0x44C66, size: 0x8, addend: 0x0, symName: __ZNSt3__1miB7v160006IPcS1_EEDTmicldtfp_4baseEcldtfp0_4baseEERKNS_11__wrap_iterIT_EERKNS3_IT0_EE, symObjAddr: 0x416C0, symBinAddr: 0x1000497B4, symSize: 0x40 }
  - { offsetInCU: 0x44CB3, offset: 0x44CB3, size: 0x8, addend: 0x0, symName: __ZNSt3__119__throw_regex_errorB7v160006ILNS_15regex_constants10error_typeE2EEEvv, symObjAddr: 0x4174C, symBinAddr: 0x100049840, symSize: 0x60 }
  - { offsetInCU: 0x44CD8, offset: 0x44CD8, size: 0x8, addend: 0x0, symName: __ZNSt3__19make_pairB7v160006INS_12basic_stringIcNS_11char_traitsIcEENS_9allocatorIcEEEES6_EENS_4pairINS_18__unwrap_ref_decayIT_E4typeENS8_IT0_E4typeEEEOS9_OSC_, symObjAddr: 0x41A28, symBinAddr: 0x100049B1C, symSize: 0x40 }
  - { offsetInCU: 0x44D28, offset: 0x44D28, size: 0x8, addend: 0x0, symName: __ZNSt3__119__throw_regex_errorB7v160006ILNS_15regex_constants10error_typeE9EEEvv, symObjAddr: 0x41B68, symBinAddr: 0x100049C5C, symSize: 0x60 }
  - { offsetInCU: 0x44D4D, offset: 0x44D4D, size: 0x8, addend: 0x0, symName: __ZNSt3__119__allocate_at_leastB7v160006INS_9allocatorINS_4pairINS_12basic_stringIcNS_11char_traitsIcEENS1_IcEEEES7_EEEEEENS_19__allocation_resultINS_16allocator_traitsIT_E7pointerEEERSC_m, symObjAddr: 0x423B4, symBinAddr: 0x10004A4A8, symSize: 0x40 }
  - { offsetInCU: 0x44D90, offset: 0x44D90, size: 0x8, addend: 0x0, symName: __ZNSt3__142__uninitialized_allocator_move_if_noexceptB7v160006INS_9allocatorINS_4pairINS_12basic_stringIcNS_11char_traitsIcEENS1_IcEEEES7_EEEENS_16reverse_iteratorIPS8_EESC_SC_EET2_RT_T0_T1_SD_, symObjAddr: 0x4256C, symBinAddr: 0x10004A660, symSize: 0x12C }
  - { offsetInCU: 0x44E31, offset: 0x44E31, size: 0x8, addend: 0x0, symName: __ZNSt3__14swapB7v160006IPNS_4pairINS_12basic_stringIcNS_11char_traitsIcEENS_9allocatorIcEEEES7_EEEENS_9enable_ifIXaasr21is_move_constructibleIT_EE5valuesr18is_move_assignableISB_EE5valueEvE4typeERSB_SE_, symObjAddr: 0x426E4, symBinAddr: 0x10004A7D8, symSize: 0x3C }
  - { offsetInCU: 0x44E83, offset: 0x44E83, size: 0x8, addend: 0x0, symName: __ZNSt3__125__debug_db_invalidate_allB7v160006INS_6vectorINS_4pairINS_12basic_stringIcNS_11char_traitsIcEENS_9allocatorIcEEEES8_EENS6_IS9_EEEEEEvPT_, symObjAddr: 0x427E8, symBinAddr: 0x10004A8DC, symSize: 0x10 }
  - { offsetInCU: 0x44EB4, offset: 0x44EB4, size: 0x8, addend: 0x0, symName: __ZNSt3__122__make_exception_guardB7v160006INS_29_AllocatorDestroyRangeReverseINS_9allocatorINS_4pairINS_12basic_stringIcNS_11char_traitsIcEENS2_IcEEEES8_EEEENS_16reverse_iteratorIPS9_EEEEEENS_28__exception_guard_exceptionsIT_EESG_, symObjAddr: 0x427F8, symBinAddr: 0x10004A8EC, symSize: 0x4C }
  - { offsetInCU: 0x44EEA, offset: 0x44EEA, size: 0x8, addend: 0x0, symName: __ZNSt3__1neB7v160006IPNS_4pairINS_12basic_stringIcNS_11char_traitsIcEENS_9allocatorIcEEEES7_EES9_EEbRKNS_16reverse_iteratorIT_EERKNSA_IT0_EE, symObjAddr: 0x42888, symBinAddr: 0x10004A97C, symSize: 0x48 }
  - { offsetInCU: 0x44F36, offset: 0x44F36, size: 0x8, addend: 0x0, symName: __ZNSt3__112__to_addressB7v160006INS_16reverse_iteratorIPNS_4pairINS_12basic_stringIcNS_11char_traitsIcEENS_9allocatorIcEEEES8_EEEEvEENS_5decayIDTclsr19__to_address_helperIT_EE6__callclsr3stdE7declvalIRKSD_EEEEE4typeESF_, symObjAddr: 0x428D0, symBinAddr: 0x10004A9C4, symSize: 0x24 }
  - { offsetInCU: 0x44F96, offset: 0x44F96, size: 0x8, addend: 0x0, symName: __ZNSt3__119__allocator_destroyB7v160006INS_9allocatorINS_4pairINS_12basic_stringIcNS_11char_traitsIcEENS1_IcEEEES7_EEEENS_16reverse_iteratorINSA_IPS8_EEEESD_EEvRT_T0_T1_, symObjAddr: 0x42B80, symBinAddr: 0x10004AC74, symSize: 0x70 }
  - { offsetInCU: 0x44FFB, offset: 0x44FFB, size: 0x8, addend: 0x0, symName: __ZNSt3__1neB7v160006INS_16reverse_iteratorIPNS_4pairINS_12basic_stringIcNS_11char_traitsIcEENS_9allocatorIcEEEES8_EEEESB_EEbRKNS1_IT_EERKNS1_IT0_EE, symObjAddr: 0x42C2C, symBinAddr: 0x10004AD20, symSize: 0x60 }
  - { offsetInCU: 0x45047, offset: 0x45047, size: 0x8, addend: 0x0, symName: __ZNSt3__112__to_addressB7v160006INS_16reverse_iteratorINS1_IPNS_4pairINS_12basic_stringIcNS_11char_traitsIcEENS_9allocatorIcEEEES8_EEEEEEvEENS_5decayIDTclsr19__to_address_helperIT_EE6__callclsr3stdE7declvalIRKSE_EEEEE4typeESG_, symObjAddr: 0x42C8C, symBinAddr: 0x10004AD80, symSize: 0x24 }
  - { offsetInCU: 0x450A6, offset: 0x450A6, size: 0x8, addend: 0x0, symName: __ZNSt3__19make_pairB7v160006IccEENS_4pairINS_18__unwrap_ref_decayIT_E4typeENS2_IT0_E4typeEEEOS3_OS6_, symObjAddr: 0x430E4, symBinAddr: 0x10004B1D8, symSize: 0x34 }
  - { offsetInCU: 0x450F5, offset: 0x450F5, size: 0x8, addend: 0x0, symName: __ZNSt3__19make_pairB7v160006IRcS1_EENS_4pairINS_18__unwrap_ref_decayIT_E4typeENS3_IT0_E4typeEEEOS4_OS7_, symObjAddr: 0x43118, symBinAddr: 0x10004B20C, symSize: 0x34 }
  - { offsetInCU: 0x45144, offset: 0x45144, size: 0x8, addend: 0x0, symName: __ZNSt3__119__allocate_at_leastB7v160006INS_9allocatorINS_4pairIccEEEEEENS_19__allocation_resultINS_16allocator_traitsIT_E7pointerEEERS7_m, symObjAddr: 0x4389C, symBinAddr: 0x10004B990, symSize: 0x40 }
  - { offsetInCU: 0x45187, offset: 0x45187, size: 0x8, addend: 0x0, symName: __ZNSt3__142__uninitialized_allocator_move_if_noexceptB7v160006INS_9allocatorINS_4pairIccEEEENS_16reverse_iteratorIPS3_EES7_S7_EET2_RT_T0_T1_S8_, symObjAddr: 0x43A50, symBinAddr: 0x10004BB44, symSize: 0x12C }
  - { offsetInCU: 0x45228, offset: 0x45228, size: 0x8, addend: 0x0, symName: __ZNSt3__14swapB7v160006IPNS_4pairIccEEEENS_9enable_ifIXaasr21is_move_constructibleIT_EE5valuesr18is_move_assignableIS5_EE5valueEvE4typeERS5_S8_, symObjAddr: 0x43BC8, symBinAddr: 0x10004BCBC, symSize: 0x3C }
  - { offsetInCU: 0x4527A, offset: 0x4527A, size: 0x8, addend: 0x0, symName: __ZNSt3__125__debug_db_invalidate_allB7v160006INS_6vectorINS_4pairIccEENS_9allocatorIS3_EEEEEEvPT_, symObjAddr: 0x43CB0, symBinAddr: 0x10004BDA4, symSize: 0x10 }
  - { offsetInCU: 0x452AB, offset: 0x452AB, size: 0x8, addend: 0x0, symName: __ZNSt3__122__make_exception_guardB7v160006INS_29_AllocatorDestroyRangeReverseINS_9allocatorINS_4pairIccEEEENS_16reverse_iteratorIPS4_EEEEEENS_28__exception_guard_exceptionsIT_EESB_, symObjAddr: 0x43CC0, symBinAddr: 0x10004BDB4, symSize: 0x4C }
  - { offsetInCU: 0x452E1, offset: 0x452E1, size: 0x8, addend: 0x0, symName: __ZNSt3__1neB7v160006IPNS_4pairIccEES3_EEbRKNS_16reverse_iteratorIT_EERKNS4_IT0_EE, symObjAddr: 0x43D50, symBinAddr: 0x10004BE44, symSize: 0x48 }
  - { offsetInCU: 0x4532D, offset: 0x4532D, size: 0x8, addend: 0x0, symName: __ZNSt3__112__to_addressB7v160006INS_16reverse_iteratorIPNS_4pairIccEEEEvEENS_5decayIDTclsr19__to_address_helperIT_EE6__callclsr3stdE7declvalIRKS7_EEEEE4typeES9_, symObjAddr: 0x43D98, symBinAddr: 0x10004BE8C, symSize: 0x24 }
  - { offsetInCU: 0x4538D, offset: 0x4538D, size: 0x8, addend: 0x0, symName: __ZNSt3__119__allocator_destroyB7v160006INS_9allocatorINS_4pairIccEEEENS_16reverse_iteratorINS5_IPS3_EEEES8_EEvRT_T0_T1_, symObjAddr: 0x44048, symBinAddr: 0x10004C13C, symSize: 0x70 }
  - { offsetInCU: 0x453F2, offset: 0x453F2, size: 0x8, addend: 0x0, symName: __ZNSt3__1neB7v160006INS_16reverse_iteratorIPNS_4pairIccEEEES5_EEbRKNS1_IT_EERKNS1_IT0_EE, symObjAddr: 0x440F4, symBinAddr: 0x10004C1E8, symSize: 0x60 }
  - { offsetInCU: 0x4543E, offset: 0x4543E, size: 0x8, addend: 0x0, symName: __ZNSt3__112__to_addressB7v160006INS_16reverse_iteratorINS1_IPNS_4pairIccEEEEEEvEENS_5decayIDTclsr19__to_address_helperIT_EE6__callclsr3stdE7declvalIRKS8_EEEEE4typeESA_, symObjAddr: 0x44154, symBinAddr: 0x10004C248, symSize: 0x24 }
  - { offsetInCU: 0x455AA, offset: 0x455AA, size: 0x8, addend: 0x0, symName: __ZNSt3__119__throw_regex_errorB7v160006ILNS_15regex_constants10error_typeE8EEEvv, symObjAddr: 0x44D6C, symBinAddr: 0x10004CE60, symSize: 0x60 }
  - { offsetInCU: 0x455D0, offset: 0x455D0, size: 0x8, addend: 0x0, symName: __ZNSt3__119__throw_regex_errorB7v160006ILNS_15regex_constants10error_typeE7EEEvv, symObjAddr: 0x44DCC, symBinAddr: 0x10004CEC0, symSize: 0x60 }
  - { offsetInCU: 0x45F1C, offset: 0x45F1C, size: 0x8, addend: 0x0, symName: __ZNSt3__119__throw_regex_errorB7v160006ILNS_15regex_constants10error_typeE15EEEvv, symObjAddr: 0x45E08, symBinAddr: 0x10004DEFC, symSize: 0x60 }
  - { offsetInCU: 0x45FB6, offset: 0x45FB6, size: 0x8, addend: 0x0, symName: __ZNSt3__14findB7v160006IPKccEET_S3_S3_RKT0_, symObjAddr: 0x47540, symBinAddr: 0x10004F634, symSize: 0x70 }
  - { offsetInCU: 0x46011, offset: 0x46011, size: 0x8, addend: 0x0, symName: __ZNSt3__119__debug_db_insert_cB7v160006INS_6vectorINS_9sub_matchINS_11__wrap_iterIPKcEEEENS_9allocatorIS7_EEEEEEvPT_, symObjAddr: 0x4780C, symBinAddr: 0x10004F900, symSize: 0x10 }
  - { offsetInCU: 0x46043, offset: 0x46043, size: 0x8, addend: 0x0, symName: __ZNSt3__119__debug_db_insert_iB7v160006INS_11__wrap_iterIPKcEEEEvPT_, symObjAddr: 0x47934, symBinAddr: 0x10004FA28, symSize: 0x10 }
  - { offsetInCU: 0x4641A, offset: 0x4641A, size: 0x8, addend: 0x0, symName: __ZNSt3__14swapB7v160006IPPNS_7__stateIcEEEENS_9enable_ifIXaasr21is_move_constructibleIT_EE5valuesr18is_move_assignableIS6_EE5valueEvE4typeERS6_S9_, symObjAddr: 0x4A930, symBinAddr: 0x100052A24, symSize: 0x3C }
  - { offsetInCU: 0x4646B, offset: 0x4646B, size: 0x8, addend: 0x0, symName: __ZNSt3__14moveB7v160006IPPNS_7__stateIcEES4_EET0_T_S6_S5_, symObjAddr: 0x4AA60, symBinAddr: 0x100052B54, symSize: 0x40 }
  - { offsetInCU: 0x464C6, offset: 0x464C6, size: 0x8, addend: 0x0, symName: __ZNSt3__112__to_addressB7v160006IPNS_7__stateIcEEEEPT_S5_, symObjAddr: 0x4AC04, symBinAddr: 0x100052CF8, symSize: 0x14 }
  - { offsetInCU: 0x464FB, offset: 0x464FB, size: 0x8, addend: 0x0, symName: __ZNSt3__16__moveB7v160006INS_17_ClassicAlgPolicyEPPNS_7__stateIcEES5_S5_EENS_4pairIT0_T2_EES7_T1_S8_, symObjAddr: 0x4AC18, symBinAddr: 0x100052D0C, symSize: 0x44 }
  - { offsetInCU: 0x46567, offset: 0x46567, size: 0x8, addend: 0x0, symName: __ZNSt3__123__dispatch_copy_or_moveB7v160006INS_17_ClassicAlgPolicyENS_11__move_loopIS1_EENS_14__move_trivialEPPNS_7__stateIcEES8_S8_EENS_4pairIT2_T4_EESA_T3_SB_, symObjAddr: 0x4AC5C, symBinAddr: 0x100052D50, symSize: 0x44 }
  - { offsetInCU: 0x465E5, offset: 0x465E5, size: 0x8, addend: 0x0, symName: __ZNSt3__121__unwrap_and_dispatchB7v160006INS_10__overloadINS_11__move_loopINS_17_ClassicAlgPolicyEEENS_14__move_trivialEEEPPNS_7__stateIcEESA_SA_Li0EEENS_4pairIT0_T2_EESC_T1_SD_, symObjAddr: 0x4ACA0, symBinAddr: 0x100052D94, symSize: 0xB4 }
  - { offsetInCU: 0x46673, offset: 0x46673, size: 0x8, addend: 0x0, symName: __ZNSt3__114__unwrap_rangeB7v160006IPPNS_7__stateIcEES4_EENS_4pairIT0_S6_EET_S8_, symObjAddr: 0x4AD54, symBinAddr: 0x100052E48, symSize: 0x60 }
  - { offsetInCU: 0x46837, offset: 0x46837, size: 0x8, addend: 0x0, symName: __ZNSt3__113__unwrap_iterB7v160006IPPNS_7__stateIcEENS_18__unwrap_iter_implIS4_Lb1EEELi0EEEDTclsrT0_8__unwrapclsr3stdE7declvalIT_EEEES8_, symObjAddr: 0x4ADFC, symBinAddr: 0x100052EF0, symSize: 0x24 }
  - { offsetInCU: 0x4687B, offset: 0x4687B, size: 0x8, addend: 0x0, symName: __ZNSt3__19make_pairB7v160006IPPNS_7__stateIcEES4_EENS_4pairINS_18__unwrap_ref_decayIT_E4typeENS6_IT0_E4typeEEEOS7_OSA_, symObjAddr: 0x4AE20, symBinAddr: 0x100052F14, symSize: 0x38 }
  - { offsetInCU: 0x468CA, offset: 0x468CA, size: 0x8, addend: 0x0, symName: __ZNSt3__114__rewrap_rangeB7v160006IPPNS_7__stateIcEES4_EET_S5_T0_, symObjAddr: 0x4AE58, symBinAddr: 0x100052F4C, symSize: 0x2C }
  - { offsetInCU: 0x46916, offset: 0x46916, size: 0x8, addend: 0x0, symName: __ZNSt3__113__rewrap_iterB7v160006IPPNS_7__stateIcEES4_NS_18__unwrap_iter_implIS4_Lb1EEEEET_S7_T0_, symObjAddr: 0x4AE84, symBinAddr: 0x100052F78, symSize: 0x3C }
  - { offsetInCU: 0x4696B, offset: 0x4696B, size: 0x8, addend: 0x0, symName: __ZNSt3__119__copy_trivial_implB7v160006IPNS_7__stateIcEES3_EENS_4pairIPT_PT0_EES6_S6_S8_, symObjAddr: 0x4AEC0, symBinAddr: 0x100052FB4, symSize: 0x84 }
  - { offsetInCU: 0x469D3, offset: 0x469D3, size: 0x8, addend: 0x0, symName: __ZNSt3__19make_pairB7v160006IRPPNS_7__stateIcEES4_EENS_4pairINS_18__unwrap_ref_decayIT_E4typeENS7_IT0_E4typeEEEOS8_OSB_, symObjAddr: 0x4AF44, symBinAddr: 0x100053038, symSize: 0x38 }
  - { offsetInCU: 0x46A75, offset: 0x46A75, size: 0x8, addend: 0x0, symName: __ZNSt3__18distanceB7v160006INS_13move_iteratorIPPNS_7__stateIcEEEEEENS_15iterator_traitsIT_E15difference_typeES8_S8_, symObjAddr: 0x4B0D0, symBinAddr: 0x1000531C4, symSize: 0x3C }
  - { offsetInCU: 0x46AB8, offset: 0x46AB8, size: 0x8, addend: 0x0, symName: __ZNSt3__110__distanceB7v160006INS_13move_iteratorIPPNS_7__stateIcEEEEEENS_15iterator_traitsIT_E15difference_typeES8_S8_NS_26random_access_iterator_tagE, symObjAddr: 0x4B208, symBinAddr: 0x1000532FC, symSize: 0x30 }
  - { offsetInCU: 0x46B06, offset: 0x46B06, size: 0x8, addend: 0x0, symName: __ZNSt3__1miB7v160006IPPNS_7__stateIcEES4_EEDTmicldtfp_4baseEcldtfp0_4baseEERKNS_13move_iteratorIT_EERKNS6_IT0_EE, symObjAddr: 0x4B238, symBinAddr: 0x10005332C, symSize: 0x48 }
  - { offsetInCU: 0x46B55, offset: 0x46B55, size: 0x8, addend: 0x0, symName: __ZNSt3__113move_backwardB7v160006IPPNS_7__stateIcEES4_EET0_T_S6_S5_, symObjAddr: 0x4B40C, symBinAddr: 0x100053500, symSize: 0x40 }
  - { offsetInCU: 0x46BAF, offset: 0x46BAF, size: 0x8, addend: 0x0, symName: __ZNSt3__115__move_backwardB7v160006INS_17_ClassicAlgPolicyEPPNS_7__stateIcEES5_S5_EENS_4pairIT0_T2_EES7_T1_S8_, symObjAddr: 0x4B44C, symBinAddr: 0x100053540, symSize: 0x44 }
  - { offsetInCU: 0x46C1B, offset: 0x46C1B, size: 0x8, addend: 0x0, symName: __ZNSt3__123__dispatch_copy_or_moveB7v160006INS_17_ClassicAlgPolicyENS_20__move_backward_loopIS1_EENS_23__move_backward_trivialEPPNS_7__stateIcEES8_S8_EENS_4pairIT2_T4_EESA_T3_SB_, symObjAddr: 0x4B490, symBinAddr: 0x100053584, symSize: 0x44 }
  - { offsetInCU: 0x46C99, offset: 0x46C99, size: 0x8, addend: 0x0, symName: __ZNSt3__121__unwrap_and_dispatchB7v160006INS_10__overloadINS_20__move_backward_loopINS_17_ClassicAlgPolicyEEENS_23__move_backward_trivialEEEPPNS_7__stateIcEESA_SA_Li0EEENS_4pairIT0_T2_EESC_T1_SD_, symObjAddr: 0x4B4D4, symBinAddr: 0x1000535C8, symSize: 0xB4 }
  - { offsetInCU: 0x46D6D, offset: 0x46D6D, size: 0x8, addend: 0x0, symName: __ZNSt3__128__copy_backward_trivial_implB7v160006IPNS_7__stateIcEES3_EENS_4pairIPT_PT0_EES6_S6_S8_, symObjAddr: 0x4B5D0, symBinAddr: 0x1000536C4, symSize: 0x94 }
  - { offsetInCU: 0x46DD5, offset: 0x46DD5, size: 0x8, addend: 0x0, symName: __ZNSt3__19make_pairB7v160006IRPPNS_7__stateIcEES5_EENS_4pairINS_18__unwrap_ref_decayIT_E4typeENS7_IT0_E4typeEEEOS8_OSB_, symObjAddr: 0x4B664, symBinAddr: 0x100053758, symSize: 0x38 }
  - { offsetInCU: 0x46E24, offset: 0x46E24, size: 0x8, addend: 0x0, symName: __ZNSt3__119__allocate_at_leastB7v160006INS_9allocatorIPNS_7__stateIcEEEEEENS_19__allocation_resultINS_16allocator_traitsIT_E7pointerEEERS8_m, symObjAddr: 0x4B854, symBinAddr: 0x100053948, symSize: 0x40 }
  - { offsetInCU: 0x46E67, offset: 0x46E67, size: 0x8, addend: 0x0, symName: __ZNSt3__1neB7v160006ERKNS_16__deque_iteratorINS_7__stateIcEEPS2_RS2_PS3_lLl42EEES8_, symObjAddr: 0x4C278, symBinAddr: 0x10005436C, symSize: 0x34 }
  - { offsetInCU: 0x46EA4, offset: 0x46EA4, size: 0x8, addend: 0x0, symName: __ZNSt3__1eqB7v160006ERKNS_16__deque_iteratorINS_7__stateIcEEPS2_RS2_PS3_lLl42EEES8_, symObjAddr: 0x4C31C, symBinAddr: 0x100054410, symSize: 0x30 }
  - { offsetInCU: 0x46EE1, offset: 0x46EE1, size: 0x8, addend: 0x0, symName: __ZNSt3__18distanceB7v160006IPNS_9sub_matchIPKcEEEENS_15iterator_traitsIT_E15difference_typeES7_S7_, symObjAddr: 0x4D0EC, symBinAddr: 0x1000551E0, symSize: 0x2C }
  - { offsetInCU: 0x46F24, offset: 0x46F24, size: 0x8, addend: 0x0, symName: __ZNSt3__14copyB7v160006IPNS_9sub_matchIPKcEES5_EET0_T_S7_S6_, symObjAddr: 0x4D168, symBinAddr: 0x10005525C, symSize: 0x40 }
  - { offsetInCU: 0x46F7F, offset: 0x46F7F, size: 0x8, addend: 0x0, symName: __ZNSt3__110__distanceB7v160006IPNS_9sub_matchIPKcEEEENS_15iterator_traitsIT_E15difference_typeES7_S7_NS_26random_access_iterator_tagE, symObjAddr: 0x4D1A8, symBinAddr: 0x10005529C, symSize: 0x28 }
  - { offsetInCU: 0x46FCE, offset: 0x46FCE, size: 0x8, addend: 0x0, symName: __ZNSt3__19__advanceB7v160006IPNS_9sub_matchIPKcEEEEvRT_NS_15iterator_traitsIS6_E15difference_typeENS_26random_access_iterator_tagE, symObjAddr: 0x4D1D0, symBinAddr: 0x1000552C4, symSize: 0x30 }
  - { offsetInCU: 0x47018, offset: 0x47018, size: 0x8, addend: 0x0, symName: __ZNSt3__16__copyB7v160006INS_17_ClassicAlgPolicyEPNS_9sub_matchIPKcEES6_S6_EENS_4pairIT0_T2_EES8_T1_S9_, symObjAddr: 0x4D200, symBinAddr: 0x1000552F4, symSize: 0x44 }
  - { offsetInCU: 0x47084, offset: 0x47084, size: 0x8, addend: 0x0, symName: __ZNSt3__123__dispatch_copy_or_moveB7v160006INS_17_ClassicAlgPolicyENS_11__copy_loopIS1_EENS_14__copy_trivialEPNS_9sub_matchIPKcEES9_S9_EENS_4pairIT2_T4_EESB_T3_SC_, symObjAddr: 0x4D244, symBinAddr: 0x100055338, symSize: 0x44 }
  - { offsetInCU: 0x47102, offset: 0x47102, size: 0x8, addend: 0x0, symName: __ZNSt3__121__unwrap_and_dispatchB7v160006INS_10__overloadINS_11__copy_loopINS_17_ClassicAlgPolicyEEENS_14__copy_trivialEEEPNS_9sub_matchIPKcEESB_SB_Li0EEENS_4pairIT0_T2_EESD_T1_SE_, symObjAddr: 0x4D288, symBinAddr: 0x10005537C, symSize: 0xB4 }
  - { offsetInCU: 0x47190, offset: 0x47190, size: 0x8, addend: 0x0, symName: __ZNSt3__114__unwrap_rangeB7v160006IPNS_9sub_matchIPKcEES5_EENS_4pairIT0_S7_EET_S9_, symObjAddr: 0x4D33C, symBinAddr: 0x100055430, symSize: 0x60 }
  - { offsetInCU: 0x47341, offset: 0x47341, size: 0x8, addend: 0x0, symName: __ZNSt3__113__unwrap_iterB7v160006IPNS_9sub_matchIPKcEENS_18__unwrap_iter_implIS5_Lb1EEELi0EEEDTclsrT0_8__unwrapclsr3stdE7declvalIT_EEEES9_, symObjAddr: 0x4D424, symBinAddr: 0x100055518, symSize: 0x24 }
  - { offsetInCU: 0x47385, offset: 0x47385, size: 0x8, addend: 0x0, symName: __ZNSt3__19make_pairB7v160006IPNS_9sub_matchIPKcEES5_EENS_4pairINS_18__unwrap_ref_decayIT_E4typeENS7_IT0_E4typeEEEOS8_OSB_, symObjAddr: 0x4D448, symBinAddr: 0x10005553C, symSize: 0x38 }
  - { offsetInCU: 0x473D4, offset: 0x473D4, size: 0x8, addend: 0x0, symName: __ZNSt3__114__rewrap_rangeB7v160006IPNS_9sub_matchIPKcEES5_EET_S6_T0_, symObjAddr: 0x4D480, symBinAddr: 0x100055574, symSize: 0x2C }
  - { offsetInCU: 0x47420, offset: 0x47420, size: 0x8, addend: 0x0, symName: __ZNSt3__113__rewrap_iterB7v160006IPNS_9sub_matchIPKcEES5_NS_18__unwrap_iter_implIS5_Lb1EEEEET_S8_T0_, symObjAddr: 0x4D4AC, symBinAddr: 0x1000555A0, symSize: 0x3C }
  - { offsetInCU: 0x474C8, offset: 0x474C8, size: 0x8, addend: 0x0, symName: __ZNSt3__18distanceB7v160006IPNS_4pairImPKcEEEENS_15iterator_traitsIT_E15difference_typeES7_S7_, symObjAddr: 0x4D790, symBinAddr: 0x100055884, symSize: 0x2C }
  - { offsetInCU: 0x4750B, offset: 0x4750B, size: 0x8, addend: 0x0, symName: __ZNSt3__14copyB7v160006IPNS_4pairImPKcEES5_EET0_T_S7_S6_, symObjAddr: 0x4D80C, symBinAddr: 0x100055900, symSize: 0x40 }
  - { offsetInCU: 0x47566, offset: 0x47566, size: 0x8, addend: 0x0, symName: __ZNSt3__110__distanceB7v160006IPNS_4pairImPKcEEEENS_15iterator_traitsIT_E15difference_typeES7_S7_NS_26random_access_iterator_tagE, symObjAddr: 0x4D8D8, symBinAddr: 0x1000559CC, symSize: 0x28 }
  - { offsetInCU: 0x475B5, offset: 0x475B5, size: 0x8, addend: 0x0, symName: __ZNSt3__19__advanceB7v160006IPNS_4pairImPKcEEEEvRT_NS_15iterator_traitsIS6_E15difference_typeENS_26random_access_iterator_tagE, symObjAddr: 0x4D900, symBinAddr: 0x1000559F4, symSize: 0x28 }
  - { offsetInCU: 0x475FF, offset: 0x475FF, size: 0x8, addend: 0x0, symName: __ZNSt3__16__copyB7v160006INS_17_ClassicAlgPolicyEPNS_4pairImPKcEES6_S6_EENS2_IT0_T2_EES7_T1_S8_, symObjAddr: 0x4D928, symBinAddr: 0x100055A1C, symSize: 0x44 }
  - { offsetInCU: 0x4766B, offset: 0x4766B, size: 0x8, addend: 0x0, symName: __ZNSt3__123__dispatch_copy_or_moveB7v160006INS_17_ClassicAlgPolicyENS_11__copy_loopIS1_EENS_14__copy_trivialEPNS_4pairImPKcEES9_S9_EENS5_IT2_T4_EESA_T3_SB_, symObjAddr: 0x4D96C, symBinAddr: 0x100055A60, symSize: 0x44 }
  - { offsetInCU: 0x476E9, offset: 0x476E9, size: 0x8, addend: 0x0, symName: __ZNSt3__121__unwrap_and_dispatchB7v160006INS_10__overloadINS_11__copy_loopINS_17_ClassicAlgPolicyEEENS_14__copy_trivialEEEPNS_4pairImPKcEESB_SB_Li0EEENS7_IT0_T2_EESC_T1_SD_, symObjAddr: 0x4D9B0, symBinAddr: 0x100055AA4, symSize: 0xB4 }
  - { offsetInCU: 0x47777, offset: 0x47777, size: 0x8, addend: 0x0, symName: __ZNSt3__114__unwrap_rangeB7v160006IPNS_4pairImPKcEES5_EENS1_IT0_S6_EET_S8_, symObjAddr: 0x4DA64, symBinAddr: 0x100055B58, symSize: 0x60 }
  - { offsetInCU: 0x47897, offset: 0x47897, size: 0x8, addend: 0x0, symName: __ZNSt3__113__unwrap_iterB7v160006IPNS_4pairImPKcEENS_18__unwrap_iter_implIS5_Lb1EEELi0EEEDTclsrT0_8__unwrapclsr3stdE7declvalIT_EEEES9_, symObjAddr: 0x4DB4C, symBinAddr: 0x100055C40, symSize: 0x24 }
  - { offsetInCU: 0x478DB, offset: 0x478DB, size: 0x8, addend: 0x0, symName: __ZNSt3__19make_pairB7v160006IPNS_4pairImPKcEES5_EENS1_INS_18__unwrap_ref_decayIT_E4typeENS6_IT0_E4typeEEEOS7_OSA_, symObjAddr: 0x4DB70, symBinAddr: 0x100055C64, symSize: 0x38 }
  - { offsetInCU: 0x4792A, offset: 0x4792A, size: 0x8, addend: 0x0, symName: __ZNSt3__114__rewrap_rangeB7v160006IPNS_4pairImPKcEES5_EET_S6_T0_, symObjAddr: 0x4DBA8, symBinAddr: 0x100055C9C, symSize: 0x2C }
  - { offsetInCU: 0x47976, offset: 0x47976, size: 0x8, addend: 0x0, symName: __ZNSt3__113__rewrap_iterB7v160006IPNS_4pairImPKcEES5_NS_18__unwrap_iter_implIS5_Lb1EEEEET_S8_T0_, symObjAddr: 0x4DBD4, symBinAddr: 0x100055CC8, symSize: 0x3C }
  - { offsetInCU: 0x47A1E, offset: 0x47A1E, size: 0x8, addend: 0x0, symName: __ZNSt3__14nextB7v160006INS_11__wrap_iterIPKcEEEENS_9enable_ifIXsr25__is_cpp17_input_iteratorIT_EE5valueES6_E4typeES6_NS_15iterator_traitsIS6_E15difference_typeE, symObjAddr: 0x4DE50, symBinAddr: 0x100055F44, symSize: 0x50 }
  - { offsetInCU: 0x47A61, offset: 0x47A61, size: 0x8, addend: 0x0, symName: __ZNSt3__119__allocate_at_leastB7v160006INS_9allocatorINS_9sub_matchINS_11__wrap_iterIPKcEEEEEEEENS_19__allocation_resultINS_16allocator_traitsIT_E7pointerEEERSB_m, symObjAddr: 0x4E7DC, symBinAddr: 0x1000568D0, symSize: 0x40 }
  - { offsetInCU: 0x47AA4, offset: 0x47AA4, size: 0x8, addend: 0x0, symName: __ZNSt3__142__uninitialized_allocator_move_if_noexceptB7v160006INS_9allocatorINS_9sub_matchINS_11__wrap_iterIPKcEEEEEENS_16reverse_iteratorIPS7_EESB_SB_EET2_RT_T0_T1_SC_, symObjAddr: 0x4EA68, symBinAddr: 0x100056B5C, symSize: 0x12C }
  - { offsetInCU: 0x47B45, offset: 0x47B45, size: 0x8, addend: 0x0, symName: __ZNSt3__14swapB7v160006IPNS_9sub_matchINS_11__wrap_iterIPKcEEEEEENS_9enable_ifIXaasr21is_move_constructibleIT_EE5valuesr18is_move_assignableIS9_EE5valueEvE4typeERS9_SC_, symObjAddr: 0x4EBE0, symBinAddr: 0x100056CD4, symSize: 0x3C }
  - { offsetInCU: 0x47B97, offset: 0x47B97, size: 0x8, addend: 0x0, symName: __ZNSt3__125__debug_db_invalidate_allB7v160006INS_6vectorINS_9sub_matchINS_11__wrap_iterIPKcEEEENS_9allocatorIS7_EEEEEEvPT_, symObjAddr: 0x4ECE4, symBinAddr: 0x100056DD8, symSize: 0x10 }
  - { offsetInCU: 0x47BC8, offset: 0x47BC8, size: 0x8, addend: 0x0, symName: __ZNSt3__122__make_exception_guardB7v160006INS_29_AllocatorDestroyRangeReverseINS_9allocatorINS_9sub_matchINS_11__wrap_iterIPKcEEEEEENS_16reverse_iteratorIPS8_EEEEEENS_28__exception_guard_exceptionsIT_EESF_, symObjAddr: 0x4ECF4, symBinAddr: 0x100056DE8, symSize: 0x4C }
  - { offsetInCU: 0x47BFE, offset: 0x47BFE, size: 0x8, addend: 0x0, symName: __ZNSt3__1neB7v160006IPNS_9sub_matchINS_11__wrap_iterIPKcEEEES7_EEbRKNS_16reverse_iteratorIT_EERKNS8_IT0_EE, symObjAddr: 0x4ED84, symBinAddr: 0x100056E78, symSize: 0x48 }
  - { offsetInCU: 0x47C4A, offset: 0x47C4A, size: 0x8, addend: 0x0, symName: __ZNSt3__112__to_addressB7v160006INS_16reverse_iteratorIPNS_9sub_matchINS_11__wrap_iterIPKcEEEEEEvEENS_5decayIDTclsr19__to_address_helperIT_EE6__callclsr3stdE7declvalIRKSB_EEEEE4typeESD_, symObjAddr: 0x4EE00, symBinAddr: 0x100056EF4, symSize: 0x24 }
  - { offsetInCU: 0x47CAA, offset: 0x47CAA, size: 0x8, addend: 0x0, symName: __ZNSt3__119__allocator_destroyB7v160006INS_9allocatorINS_9sub_matchINS_11__wrap_iterIPKcEEEEEENS_16reverse_iteratorINS9_IPS7_EEEESC_EEvRT_T0_T1_, symObjAddr: 0x4F0E0, symBinAddr: 0x1000571D4, symSize: 0x70 }
  - { offsetInCU: 0x47D0F, offset: 0x47D0F, size: 0x8, addend: 0x0, symName: __ZNSt3__1neB7v160006INS_16reverse_iteratorIPNS_9sub_matchINS_11__wrap_iterIPKcEEEEEES9_EEbRKNS1_IT_EERKNS1_IT0_EE, symObjAddr: 0x4F18C, symBinAddr: 0x100057280, symSize: 0x60 }
  - { offsetInCU: 0x47D5B, offset: 0x47D5B, size: 0x8, addend: 0x0, symName: __ZNSt3__112__to_addressB7v160006INS_16reverse_iteratorINS1_IPNS_9sub_matchINS_11__wrap_iterIPKcEEEEEEEEvEENS_5decayIDTclsr19__to_address_helperIT_EE6__callclsr3stdE7declvalIRKSC_EEEEE4typeESE_, symObjAddr: 0x4F1EC, symBinAddr: 0x1000572E0, symSize: 0x24 }
  - { offsetInCU: 0x47DBA, offset: 0x47DBA, size: 0x8, addend: 0x0, symName: __ZNSt3__18distanceB7v160006INS_11__wrap_iterIPKcEEEENS_15iterator_traitsIT_E15difference_typeES6_S6_, symObjAddr: 0x4F8C4, symBinAddr: 0x1000579B8, symSize: 0x3C }
  - { offsetInCU: 0x47DFD, offset: 0x47DFD, size: 0x8, addend: 0x0, symName: __ZNSt3__110__distanceB7v160006INS_11__wrap_iterIPKcEEEENS_15iterator_traitsIT_E15difference_typeES6_S6_NS_26random_access_iterator_tagE, symObjAddr: 0x4F900, symBinAddr: 0x1000579F4, symSize: 0x30 }
  - { offsetInCU: 0x47E4B, offset: 0x47E4B, size: 0x8, addend: 0x0, symName: __ZNSt3__1eqB7v160006INS_11__wrap_iterIPKcEEEEbRKNS_9sub_matchIT_EES9_, symObjAddr: 0x4FBE8, symBinAddr: 0x100057CDC, symSize: 0x38 }
  - { offsetInCU: 0x47E91, offset: 0x47E91, size: 0x8, addend: 0x0, symName: __ZNSt3__119__allocate_at_leastB7v160006INS_9allocatorIdEEEENS_19__allocation_resultINS_16allocator_traitsIT_E7pointerEEERS5_m, symObjAddr: 0x50420, symBinAddr: 0x100058514, symSize: 0x40 }
  - { offsetInCU: 0x47ED4, offset: 0x47ED4, size: 0x8, addend: 0x0, symName: __ZNSt3__142__uninitialized_allocator_move_if_noexceptB7v160006INS_9allocatorIdEENS_16reverse_iteratorIPdEES5_dvEET1_RT_T0_S9_S6_, symObjAddr: 0x505D4, symBinAddr: 0x1000586C8, symSize: 0x78 }
  - { offsetInCU: 0x47F53, offset: 0x47F53, size: 0x8, addend: 0x0, symName: __ZNSt3__14swapB7v160006IPdEENS_9enable_ifIXaasr21is_move_constructibleIT_EE5valuesr18is_move_assignableIS3_EE5valueEvE4typeERS3_S6_, symObjAddr: 0x50698, symBinAddr: 0x10005878C, symSize: 0x3C }
  - { offsetInCU: 0x47FA5, offset: 0x47FA5, size: 0x8, addend: 0x0, symName: __ZNSt3__125__debug_db_invalidate_allB7v160006INS_6vectorIdNS_9allocatorIdEEEEEEvPT_, symObjAddr: 0x50780, symBinAddr: 0x100058874, symSize: 0x10 }
  - { offsetInCU: 0x47FD6, offset: 0x47FD6, size: 0x8, addend: 0x0, symName: __ZNSt3__14moveB7v160006INS_16reverse_iteratorIPdEES3_EET0_T_S5_S4_, symObjAddr: 0x50790, symBinAddr: 0x100058884, symSize: 0x78 }
  - { offsetInCU: 0x48030, offset: 0x48030, size: 0x8, addend: 0x0, symName: __ZNSt3__16__moveB7v160006INS_17_ClassicAlgPolicyENS_16reverse_iteratorIPdEES4_S4_EENS_4pairIT0_T2_EES6_T1_S7_, symObjAddr: 0x50808, symBinAddr: 0x1000588FC, symSize: 0x64 }
  - { offsetInCU: 0x4809C, offset: 0x4809C, size: 0x8, addend: 0x0, symName: __ZNSt3__123__dispatch_copy_or_moveB7v160006INS_17_ClassicAlgPolicyENS_11__move_loopIS1_EENS_14__move_trivialENS_16reverse_iteratorIPdEES7_S7_EENS_4pairIT2_T4_EES9_T3_SA_, symObjAddr: 0x5086C, symBinAddr: 0x100058960, symSize: 0x64 }
  - { offsetInCU: 0x4811A, offset: 0x4811A, size: 0x8, addend: 0x0, symName: __ZNSt3__121__unwrap_and_dispatchB7v160006INS_10__overloadINS_11__move_loopINS_17_ClassicAlgPolicyEEENS_14__move_trivialEEENS_16reverse_iteratorIPdEES9_S9_Li0EEENS_4pairIT0_T2_EESB_T1_SC_, symObjAddr: 0x508D0, symBinAddr: 0x1000589C4, symSize: 0x12C }
  - { offsetInCU: 0x481AA, offset: 0x481AA, size: 0x8, addend: 0x0, symName: __ZNSt3__114__unwrap_rangeB7v160006INS_16reverse_iteratorIPdEES3_EENS_4pairIT0_S5_EET_S7_, symObjAddr: 0x509FC, symBinAddr: 0x100058AF0, symSize: 0x84 }
  - { offsetInCU: 0x482CA, offset: 0x482CA, size: 0x8, addend: 0x0, symName: __ZNSt3__113__unwrap_iterB7v160006INS_16reverse_iteratorIPdEENS_18__unwrap_iter_implIS3_Lb0EEELi0EEEDTclsrT0_8__unwrapclsr3stdE7declvalIT_EEEES7_, symObjAddr: 0x50B20, symBinAddr: 0x100058C14, symSize: 0x44 }
  - { offsetInCU: 0x4830E, offset: 0x4830E, size: 0x8, addend: 0x0, symName: __ZNSt3__19make_pairB7v160006INS_16reverse_iteratorIPdEES3_EENS_4pairINS_18__unwrap_ref_decayIT_E4typeENS5_IT0_E4typeEEEOS6_OS9_, symObjAddr: 0x50B64, symBinAddr: 0x100058C58, symSize: 0x38 }
  - { offsetInCU: 0x4835D, offset: 0x4835D, size: 0x8, addend: 0x0, symName: __ZNSt3__114__rewrap_rangeB7v160006INS_16reverse_iteratorIPdEES3_EET_S4_T0_, symObjAddr: 0x50B9C, symBinAddr: 0x100058C90, symSize: 0x5C }
  - { offsetInCU: 0x483A9, offset: 0x483A9, size: 0x8, addend: 0x0, symName: __ZNSt3__113__rewrap_iterB7v160006INS_16reverse_iteratorIPdEES3_NS_18__unwrap_iter_implIS3_Lb0EEEEET_S6_T0_, symObjAddr: 0x50BF8, symBinAddr: 0x100058CEC, symSize: 0x74 }
  - { offsetInCU: 0x483FE, offset: 0x483FE, size: 0x8, addend: 0x0, symName: __ZNSt3__1neB7v160006IPdS1_EEbRKNS_16reverse_iteratorIT_EERKNS2_IT0_EE, symObjAddr: 0x50C6C, symBinAddr: 0x100058D60, symSize: 0x48 }
  - { offsetInCU: 0x484B7, offset: 0x484B7, size: 0x8, addend: 0x0, symName: __ZNSt3__115__debug_db_swapB7v160006INS_6vectorINS_9sub_matchINS_11__wrap_iterIPKcEEEENS_9allocatorIS7_EEEEEEvPT_SC_, symObjAddr: 0x51254, symBinAddr: 0x100059348, symSize: 0x14 }
  - { offsetInCU: 0x484F7, offset: 0x484F7, size: 0x8, addend: 0x0, symName: __ZNSt3__119__debug_db_insert_cB7v160006INS_6vectorINS_12basic_stringIcNS_11char_traitsIcEENS_9allocatorIcEEEENS5_IS7_EEEEEEvPT_, symObjAddr: 0x513B0, symBinAddr: 0x1000594A4, symSize: 0x10 }
  - { offsetInCU: 0x48528, offset: 0x48528, size: 0x8, addend: 0x0, symName: __ZNSt3__119__allocate_at_leastB7v160006INS_9allocatorINS_12basic_stringIcNS_11char_traitsIcEENS1_IcEEEEEEEENS_19__allocation_resultINS_16allocator_traitsIT_E7pointerEEERSA_m, symObjAddr: 0x5213C, symBinAddr: 0x10005A230, symSize: 0x40 }
  - { offsetInCU: 0x4856B, offset: 0x4856B, size: 0x8, addend: 0x0, symName: __ZNSt3__142__uninitialized_allocator_move_if_noexceptB7v160006INS_9allocatorINS_12basic_stringIcNS_11char_traitsIcEENS1_IcEEEEEENS_16reverse_iteratorIPS6_EESA_SA_EET2_RT_T0_T1_SB_, symObjAddr: 0x52298, symBinAddr: 0x10005A38C, symSize: 0x12C }
  - { offsetInCU: 0x4860C, offset: 0x4860C, size: 0x8, addend: 0x0, symName: __ZNSt3__14swapB7v160006IPNS_12basic_stringIcNS_11char_traitsIcEENS_9allocatorIcEEEEEENS_9enable_ifIXaasr21is_move_constructibleIT_EE5valuesr18is_move_assignableIS9_EE5valueEvE4typeERS9_SC_, symObjAddr: 0x52410, symBinAddr: 0x10005A504, symSize: 0x3C }
  - { offsetInCU: 0x4865E, offset: 0x4865E, size: 0x8, addend: 0x0, symName: __ZNSt3__125__debug_db_invalidate_allB7v160006INS_6vectorINS_12basic_stringIcNS_11char_traitsIcEENS_9allocatorIcEEEENS5_IS7_EEEEEEvPT_, symObjAddr: 0x52514, symBinAddr: 0x10005A608, symSize: 0x10 }
  - { offsetInCU: 0x4868F, offset: 0x4868F, size: 0x8, addend: 0x0, symName: __ZNSt3__122__make_exception_guardB7v160006INS_29_AllocatorDestroyRangeReverseINS_9allocatorINS_12basic_stringIcNS_11char_traitsIcEENS2_IcEEEEEENS_16reverse_iteratorIPS7_EEEEEENS_28__exception_guard_exceptionsIT_EESE_, symObjAddr: 0x52524, symBinAddr: 0x10005A618, symSize: 0x4C }
  - { offsetInCU: 0x486C5, offset: 0x486C5, size: 0x8, addend: 0x0, symName: __ZNSt3__1neB7v160006IPNS_12basic_stringIcNS_11char_traitsIcEENS_9allocatorIcEEEES7_EEbRKNS_16reverse_iteratorIT_EERKNS8_IT0_EE, symObjAddr: 0x525B4, symBinAddr: 0x10005A6A8, symSize: 0x48 }
  - { offsetInCU: 0x48711, offset: 0x48711, size: 0x8, addend: 0x0, symName: __ZNSt3__112__to_addressB7v160006INS_16reverse_iteratorIPNS_12basic_stringIcNS_11char_traitsIcEENS_9allocatorIcEEEEEEvEENS_5decayIDTclsr19__to_address_helperIT_EE6__callclsr3stdE7declvalIRKSB_EEEEE4typeESD_, symObjAddr: 0x52630, symBinAddr: 0x10005A724, symSize: 0x24 }
  - { offsetInCU: 0x48771, offset: 0x48771, size: 0x8, addend: 0x0, symName: __ZNSt3__119__allocator_destroyB7v160006INS_9allocatorINS_12basic_stringIcNS_11char_traitsIcEENS1_IcEEEEEENS_16reverse_iteratorINS8_IPS6_EEEESB_EEvRT_T0_T1_, symObjAddr: 0x52910, symBinAddr: 0x10005AA04, symSize: 0x70 }
  - { offsetInCU: 0x487D6, offset: 0x487D6, size: 0x8, addend: 0x0, symName: __ZNSt3__1neB7v160006INS_16reverse_iteratorIPNS_12basic_stringIcNS_11char_traitsIcEENS_9allocatorIcEEEEEES9_EEbRKNS1_IT_EERKNS1_IT0_EE, symObjAddr: 0x529BC, symBinAddr: 0x10005AAB0, symSize: 0x60 }
  - { offsetInCU: 0x48822, offset: 0x48822, size: 0x8, addend: 0x0, symName: __ZNSt3__112__to_addressB7v160006INS_16reverse_iteratorINS1_IPNS_12basic_stringIcNS_11char_traitsIcEENS_9allocatorIcEEEEEEEEvEENS_5decayIDTclsr19__to_address_helperIT_EE6__callclsr3stdE7declvalIRKSC_EEEEE4typeESE_, symObjAddr: 0x52A1C, symBinAddr: 0x10005AB10, symSize: 0x24 }
  - { offsetInCU: 0x48881, offset: 0x48881, size: 0x8, addend: 0x0, symName: __ZNSt3__17getlineB7v160006IcNS_11char_traitsIcEENS_9allocatorIcEEEERNS_13basic_istreamIT_T0_EES9_RNS_12basic_stringIS6_S7_T1_EES6_, symObjAddr: 0x532FC, symBinAddr: 0x10005B3F0, symSize: 0x234 }
  - { offsetInCU: 0x48940, offset: 0x48940, size: 0x8, addend: 0x0, symName: __ZNSt3__14swapB7v160006IN8nlohmann16json_abi_v3_11_26detail7value_tEEENS_9enable_ifIXaasr21is_move_constructibleIT_EE5valuesr18is_move_assignableIS6_EE5valueEvE4typeERS6_S9_, symObjAddr: 0x53614, symBinAddr: 0x10005B708, symSize: 0x3C }
  - { offsetInCU: 0x48992, offset: 0x48992, size: 0x8, addend: 0x0, symName: __ZNSt3__14swapB7v160006IN8nlohmann16json_abi_v3_11_210basic_jsonINS_3mapENS_6vectorENS_12basic_stringIcNS_11char_traitsIcEENS_9allocatorIcEEEEbxydS9_NS2_14adl_serializerENS5_IhNS9_IhEEEEE10json_valueEEENS_9enable_ifIXaasr21is_move_constructibleIT_EE5valuesr18is_move_assignableISI_EE5valueEvE4typeERSI_SL_, symObjAddr: 0x53650, symBinAddr: 0x10005B744, symSize: 0x3C }
  - { offsetInCU: 0x489E3, offset: 0x489E3, size: 0x8, addend: 0x0, symName: __ZNSt3__111make_sharedB7v160006IN8nlohmann16json_abi_v3_11_26detail21output_string_adapterIcNS_12basic_stringIcNS_11char_traitsIcEENS_9allocatorIcEEEEEEJRSA_EvEENS_10shared_ptrIT_EEDpOT0_, symObjAddr: 0x548A0, symBinAddr: 0x10005C994, symSize: 0x40 }
  - { offsetInCU: 0x48C42, offset: 0x48C42, size: 0x8, addend: 0x0, symName: __ZNSt3__115allocate_sharedB7v160006IN8nlohmann16json_abi_v3_11_26detail21output_string_adapterIcNS_12basic_stringIcNS_11char_traitsIcEENS_9allocatorIcEEEEEENS8_ISB_EEJRSA_EvEENS_10shared_ptrIT_EERKT0_DpOT1_, symObjAddr: 0x54940, symBinAddr: 0x10005CA34, symSize: 0x98 }
  - { offsetInCU: 0x48F83, offset: 0x48F83, size: 0x8, addend: 0x0, symName: __ZNSt3__1eqB7v160006ERKNS_20__map_const_iteratorINS_21__tree_const_iteratorINS_12__value_typeINS_12basic_stringIcNS_11char_traitsIcEENS_9allocatorIcEEEEN8nlohmann16json_abi_v3_11_210basic_jsonINS_3mapENS_6vectorES8_bxydS6_NSA_14adl_serializerENSD_IhNS6_IhEEEEEEEEPNS_11__tree_nodeISI_PvEElEEEESQ_, symObjAddr: 0x5645C, symBinAddr: 0x10005E550, symSize: 0x30 }
  - { offsetInCU: 0x48FC0, offset: 0x48FC0, size: 0x8, addend: 0x0, symName: __ZNSt3__14nextB7v160006INS_20__map_const_iteratorINS_21__tree_const_iteratorINS_12__value_typeINS_12basic_stringIcNS_11char_traitsIcEENS_9allocatorIcEEEEN8nlohmann16json_abi_v3_11_210basic_jsonINS_3mapENS_6vectorES9_bxydS7_NSB_14adl_serializerENSE_IhNS7_IhEEEEEEEEPNS_11__tree_nodeISJ_PvEElEEEEEENS_9enable_ifIXsr25__is_cpp17_input_iteratorIT_EE5valueESR_E4typeESR_NS_15iterator_traitsISR_E15difference_typeE, symObjAddr: 0x5648C, symBinAddr: 0x10005E580, symSize: 0x50 }
  - { offsetInCU: 0x49036, offset: 0x49036, size: 0x8, addend: 0x0, symName: __ZNSt3__19__advanceB7v160006INS_20__map_const_iteratorINS_21__tree_const_iteratorINS_12__value_typeINS_12basic_stringIcNS_11char_traitsIcEENS_9allocatorIcEEEEN8nlohmann16json_abi_v3_11_210basic_jsonINS_3mapENS_6vectorES9_bxydS7_NSB_14adl_serializerENSE_IhNS7_IhEEEEEEEEPNS_11__tree_nodeISJ_PvEElEEEEEEvRT_NS_15iterator_traitsISQ_E15difference_typeENS_26bidirectional_iterator_tagE, symObjAddr: 0x57790, symBinAddr: 0x10005F884, symSize: 0xA4 }
  - { offsetInCU: 0x4945A, offset: 0x4945A, size: 0x8, addend: 0x0, symName: __ZNSt3__116__pad_and_outputB7v160006IcNS_11char_traitsIcEEEENS_19ostreambuf_iteratorIT_T0_EES6_PKS4_S8_S8_RNS_8ios_baseES4_, symObjAddr: 0x59B48, symBinAddr: 0x100061C3C, symSize: 0x240 }
  - { offsetInCU: 0x4954D, offset: 0x4954D, size: 0x8, addend: 0x0, symName: __ZNSt3__1ltB7v160006IcNS_11char_traitsIcEENS_9allocatorIcEEEEbRKNS_12basic_stringIT_T0_T1_EEPKS6_, symObjAddr: 0x5A388, symBinAddr: 0x10006247C, symSize: 0x38 }
  - { offsetInCU: 0x495A5, offset: 0x495A5, size: 0x8, addend: 0x0, symName: __ZNSt3__1ltB7v160006IcNS_11char_traitsIcEENS_9allocatorIcEEEEbPKT_RKNS_12basic_stringIS5_T0_T1_EE, symObjAddr: 0x5A3F4, symBinAddr: 0x1000624E8, symSize: 0x38 }
  - { offsetInCU: 0x495FE, offset: 0x495FE, size: 0x8, addend: 0x0, symName: __ZNSt3__118__debug_db_erase_cB7v160006INS_6vectorIN7Cabbage10IdentifierENS_9allocatorIS3_EEEEEEvPT_, symObjAddr: 0x5A634, symBinAddr: 0x100062728, symSize: 0x10 }
  - { offsetInCU: 0x49630, offset: 0x49630, size: 0x8, addend: 0x0, symName: __ZNSt3__112__to_addressB7v160006IN7Cabbage10IdentifierEEEPT_S4_, symObjAddr: 0x5A750, symBinAddr: 0x100062844, symSize: 0x14 }
  - { offsetInCU: 0x49666, offset: 0x49666, size: 0x8, addend: 0x0, symName: __ZNSt3__119__debug_db_insert_cB7v160006INS_6vectorIN7Cabbage10IdentifierENS_9allocatorIS3_EEEEEEvPT_, symObjAddr: 0x5AD40, symBinAddr: 0x100062E34, symSize: 0x10 }
  - { offsetInCU: 0x49697, offset: 0x49697, size: 0x8, addend: 0x0, symName: __ZNSt3__122__make_exception_guardB7v160006INS_6vectorIdNS_9allocatorIdEEE16__destroy_vectorEEENS_28__exception_guard_exceptionsIT_EES7_, symObjAddr: 0x5B398, symBinAddr: 0x10006348C, symSize: 0x40 }
  - { offsetInCU: 0x496CC, offset: 0x496CC, size: 0x8, addend: 0x0, symName: __ZNSt3__130__uninitialized_allocator_copyB7v160006INS_9allocatorIdEEPdS3_S3_EET2_RT_T0_T1_S4_, symObjAddr: 0x5B60C, symBinAddr: 0x100063700, symSize: 0xF4 }
  - { offsetInCU: 0x4976A, offset: 0x4976A, size: 0x8, addend: 0x0, symName: __ZNSt3__122__make_exception_guardB7v160006INS_29_AllocatorDestroyRangeReverseINS_9allocatorIdEEPdEEEENS_28__exception_guard_exceptionsIT_EES7_, symObjAddr: 0x5B700, symBinAddr: 0x1000637F4, symSize: 0x4C }
  - { offsetInCU: 0x497A1, offset: 0x497A1, size: 0x8, addend: 0x0, symName: __ZNSt3__119__allocator_destroyB7v160006INS_9allocatorIdEENS_16reverse_iteratorIPdEES5_EEvRT_T0_T1_, symObjAddr: 0x5B988, symBinAddr: 0x100063A7C, symSize: 0x70 }
  - { offsetInCU: 0x49804, offset: 0x49804, size: 0x8, addend: 0x0, symName: __ZNSt3__112__to_addressB7v160006INS_16reverse_iteratorIPdEEvEENS_5decayIDTclsr19__to_address_helperIT_EE6__callclsr3stdE7declvalIRKS5_EEEEE4typeES7_, symObjAddr: 0x5B9F8, symBinAddr: 0x100063AEC, symSize: 0x24 }
  - { offsetInCU: 0x49863, offset: 0x49863, size: 0x8, addend: 0x0, symName: __ZNSt3__122__make_exception_guardB7v160006INS_6vectorINS_12basic_stringIcNS_11char_traitsIcEENS_9allocatorIcEEEENS5_IS7_EEE16__destroy_vectorEEENS_28__exception_guard_exceptionsIT_EESC_, symObjAddr: 0x5BC24, symBinAddr: 0x100063D18, symSize: 0x40 }
  - { offsetInCU: 0x49898, offset: 0x49898, size: 0x8, addend: 0x0, symName: __ZNSt3__130__uninitialized_allocator_copyB7v160006INS_9allocatorINS_12basic_stringIcNS_11char_traitsIcEENS1_IcEEEEEEPS6_S8_S8_EET2_RT_T0_T1_S9_, symObjAddr: 0x5BEA0, symBinAddr: 0x100063F94, symSize: 0xF4 }
  - { offsetInCU: 0x49936, offset: 0x49936, size: 0x8, addend: 0x0, symName: __ZNSt3__122__make_exception_guardB7v160006INS_29_AllocatorDestroyRangeReverseINS_9allocatorINS_12basic_stringIcNS_11char_traitsIcEENS2_IcEEEEEEPS7_EEEENS_28__exception_guard_exceptionsIT_EESC_, symObjAddr: 0x5BF94, symBinAddr: 0x100064088, symSize: 0x4C }
  - { offsetInCU: 0x4996D, offset: 0x4996D, size: 0x8, addend: 0x0, symName: __ZNSt3__119__allocator_destroyB7v160006INS_9allocatorINS_12basic_stringIcNS_11char_traitsIcEENS1_IcEEEEEENS_16reverse_iteratorIPS6_EESA_EEvRT_T0_T1_, symObjAddr: 0x5C224, symBinAddr: 0x100064318, symSize: 0x70 }
  - { offsetInCU: 0x499D0, offset: 0x499D0, size: 0x8, addend: 0x0, symName: __ZNSt3__119__allocate_at_leastB7v160006INS_9allocatorIN7Cabbage10IdentifierEEEEENS_19__allocation_resultINS_16allocator_traitsIT_E7pointerEEERS7_m, symObjAddr: 0x5C77C, symBinAddr: 0x100064870, symSize: 0x40 }
  - { offsetInCU: 0x49A13, offset: 0x49A13, size: 0x8, addend: 0x0, symName: __ZNSt3__142__uninitialized_allocator_move_if_noexceptB7v160006INS_9allocatorIN7Cabbage10IdentifierEEENS_16reverse_iteratorIPS3_EES7_S7_EET2_RT_T0_T1_S8_, symObjAddr: 0x5C934, symBinAddr: 0x100064A28, symSize: 0x12C }
  - { offsetInCU: 0x49AB4, offset: 0x49AB4, size: 0x8, addend: 0x0, symName: __ZNSt3__14swapB7v160006IPN7Cabbage10IdentifierEEENS_9enable_ifIXaasr21is_move_constructibleIT_EE5valuesr18is_move_assignableIS5_EE5valueEvE4typeERS5_S8_, symObjAddr: 0x5CAAC, symBinAddr: 0x100064BA0, symSize: 0x3C }
  - { offsetInCU: 0x49B06, offset: 0x49B06, size: 0x8, addend: 0x0, symName: __ZNSt3__125__debug_db_invalidate_allB7v160006INS_6vectorIN7Cabbage10IdentifierENS_9allocatorIS3_EEEEEEvPT_, symObjAddr: 0x5CBB0, symBinAddr: 0x100064CA4, symSize: 0x10 }
  - { offsetInCU: 0x49B37, offset: 0x49B37, size: 0x8, addend: 0x0, symName: __ZNSt3__122__make_exception_guardB7v160006INS_29_AllocatorDestroyRangeReverseINS_9allocatorIN7Cabbage10IdentifierEEENS_16reverse_iteratorIPS4_EEEEEENS_28__exception_guard_exceptionsIT_EESB_, symObjAddr: 0x5CBC0, symBinAddr: 0x100064CB4, symSize: 0x4C }
  - { offsetInCU: 0x49B6D, offset: 0x49B6D, size: 0x8, addend: 0x0, symName: __ZNSt3__1neB7v160006IPN7Cabbage10IdentifierES3_EEbRKNS_16reverse_iteratorIT_EERKNS4_IT0_EE, symObjAddr: 0x5CC50, symBinAddr: 0x100064D44, symSize: 0x48 }
  - { offsetInCU: 0x49BB9, offset: 0x49BB9, size: 0x8, addend: 0x0, symName: __ZNSt3__112__to_addressB7v160006INS_16reverse_iteratorIPN7Cabbage10IdentifierEEEvEENS_5decayIDTclsr19__to_address_helperIT_EE6__callclsr3stdE7declvalIRKS7_EEEEE4typeES9_, symObjAddr: 0x5CCCC, symBinAddr: 0x100064DC0, symSize: 0x24 }
  - { offsetInCU: 0x49BF0, offset: 0x49BF0, size: 0x8, addend: 0x0, symName: __ZNSt3__115__debug_db_swapB7v160006INS_6vectorIdNS_9allocatorIdEEEEEEvPT_S6_, symObjAddr: 0x5D020, symBinAddr: 0x100065114, symSize: 0x14 }
  - { offsetInCU: 0x49C30, offset: 0x49C30, size: 0x8, addend: 0x0, symName: __ZNSt3__115__debug_db_swapB7v160006INS_6vectorINS_12basic_stringIcNS_11char_traitsIcEENS_9allocatorIcEEEENS5_IS7_EEEEEEvPT_SB_, symObjAddr: 0x5D110, symBinAddr: 0x100065204, symSize: 0x14 }
  - { offsetInCU: 0x49C99, offset: 0x49C99, size: 0x8, addend: 0x0, symName: __ZNSt3__119__allocator_destroyB7v160006INS_9allocatorIN7Cabbage10IdentifierEEENS_16reverse_iteratorINS5_IPS3_EEEES8_EEvRT_T0_T1_, symObjAddr: 0x5D284, symBinAddr: 0x100065378, symSize: 0x70 }
  - { offsetInCU: 0x49CFE, offset: 0x49CFE, size: 0x8, addend: 0x0, symName: __ZNSt3__1neB7v160006INS_16reverse_iteratorIPN7Cabbage10IdentifierEEES5_EEbRKNS1_IT_EERKNS1_IT0_EE, symObjAddr: 0x5D330, symBinAddr: 0x100065424, symSize: 0x60 }
  - { offsetInCU: 0x49D4A, offset: 0x49D4A, size: 0x8, addend: 0x0, symName: __ZNSt3__112__to_addressB7v160006INS_16reverse_iteratorINS1_IPN7Cabbage10IdentifierEEEEEvEENS_5decayIDTclsr19__to_address_helperIT_EE6__callclsr3stdE7declvalIRKS8_EEEEE4typeESA_, symObjAddr: 0x5D390, symBinAddr: 0x100065484, symSize: 0x24 }
  - { offsetInCU: 0x49DCE, offset: 0x49DCE, size: 0x8, addend: 0x0, symName: __ZNSt3__115__debug_db_swapB7v160006INS_6vectorIN8nlohmann16json_abi_v3_11_210basic_jsonINS_3mapES1_NS_12basic_stringIcNS_11char_traitsIcEENS_9allocatorIcEEEEbxydS9_NS3_14adl_serializerENS1_IhNS9_IhEEEEEENS9_ISF_EEEEEEvPT_SJ_, symObjAddr: 0x607F8, symBinAddr: 0x1000688EC, symSize: 0x14 }
  - { offsetInCU: 0x4B1D5, offset: 0x4B1D5, size: 0x8, addend: 0x0, symName: __ZSt28__throw_bad_array_new_lengthB7v160006v, symObjAddr: 0x871C, symBinAddr: 0x100010810, symSize: 0x34 }
  - { offsetInCU: 0x4B293, offset: 0x4B293, size: 0x8, addend: 0x0, symName: __ZN8nlohmann16json_abi_v3_11_26detail12static_constINS1_10to_json_fnEE5valueE, symObjAddr: 0x653E7, symBinAddr: 0x1001724C7, symSize: 0x0 }
  - { offsetInCU: 0x4C526, offset: 0x4C526, size: 0x8, addend: 0x0, symName: __ZN8nlohmann16json_abi_v3_11_26detail9dtoa_impl36get_cached_power_for_binary_exponentEi, symObjAddr: 0x5895C, symBinAddr: 0x100060A50, symSize: 0x22C }
  - { offsetInCU: 0x4C552, offset: 0x4C552, size: 0x8, addend: 0x0, symName: __ZZN8nlohmann16json_abi_v3_11_26detail9dtoa_impl36get_cached_power_for_binary_exponentEiE13kCachedPowers, symObjAddr: 0x65E28, symBinAddr: 0x100172ED8, symSize: 0x0 }
  - { offsetInCU: 0x4C626, offset: 0x4C626, size: 0x8, addend: 0x0, symName: __ZN8nlohmann16json_abi_v3_11_26detail9dtoa_impl6grisu2IdEEvPcRiS5_T_, symObjAddr: 0x57ED0, symBinAddr: 0x10005FFC4, symSize: 0xEC }
  - { offsetInCU: 0x4C696, offset: 0x4C696, size: 0x8, addend: 0x0, symName: __ZN8nlohmann16json_abi_v3_11_26detail9dtoa_impl13format_bufferEPciiii, symObjAddr: 0x57FBC, symBinAddr: 0x1000600B0, symSize: 0x36C }
  - { offsetInCU: 0x4C71E, offset: 0x4C71E, size: 0x8, addend: 0x0, symName: __ZN8nlohmann16json_abi_v3_11_26detail9dtoa_impl18compute_boundariesIdEENS2_10boundariesET_, symObjAddr: 0x58328, symBinAddr: 0x10006041C, symSize: 0x24C }
  - { offsetInCU: 0x4C82D, offset: 0x4C82D, size: 0x8, addend: 0x0, symName: __ZN8nlohmann16json_abi_v3_11_26detail9dtoa_impl6grisu2EPcRiS4_NS2_5diyfpES5_S5_, symObjAddr: 0x58574, symBinAddr: 0x100060668, symSize: 0x1C0 }
  - { offsetInCU: 0x4C915, offset: 0x4C915, size: 0x8, addend: 0x0, symName: __ZN8nlohmann16json_abi_v3_11_26detail9dtoa_impl16reinterpret_bitsIydEET_T0_, symObjAddr: 0x58734, symBinAddr: 0x100060828, symSize: 0x1C }
  - { offsetInCU: 0x4CA18, offset: 0x4CA18, size: 0x8, addend: 0x0, symName: __ZN8nlohmann16json_abi_v3_11_26detail9dtoa_impl16grisu2_digit_genEPcRiS4_NS2_5diyfpES5_S5_, symObjAddr: 0x58CC8, symBinAddr: 0x100060DBC, symSize: 0x4A4 }
  - { offsetInCU: 0x4CBB6, offset: 0x4CBB6, size: 0x8, addend: 0x0, symName: __ZN8nlohmann16json_abi_v3_11_26detail9dtoa_impl18find_largest_pow10EjRj, symObjAddr: 0x59288, symBinAddr: 0x10006137C, symSize: 0x1F8 }
  - { offsetInCU: 0x4CBF4, offset: 0x4CBF4, size: 0x8, addend: 0x0, symName: __ZN8nlohmann16json_abi_v3_11_26detail9dtoa_impl12grisu2_roundEPciyyyy, symObjAddr: 0x59480, symBinAddr: 0x100061574, symSize: 0x24C }
  - { offsetInCU: 0x4CC69, offset: 0x4CC69, size: 0x8, addend: 0x0, symName: __ZN8nlohmann16json_abi_v3_11_26detail9dtoa_impl15append_exponentEPci, symObjAddr: 0x596E8, symBinAddr: 0x1000617DC, symSize: 0x220 }
  - { offsetInCU: 0x4D45B, offset: 0x4D45B, size: 0x8, addend: 0x0, symName: __ZN8nlohmann16json_abi_v3_11_26detail13input_adapterINSt3__112basic_stringIcNS3_11char_traitsIcEENS3_9allocatorIcEEEEEENS1_36container_input_adapter_factory_impl31container_input_adapter_factoryIT_vE12adapter_typeERKSC_, symObjAddr: 0x4A08, symBinAddr: 0x10000CAFC, symSize: 0x34 }
  - { offsetInCU: 0x4D513, offset: 0x4D513, size: 0x8, addend: 0x0, symName: __ZN8nlohmann16json_abi_v3_11_26detail13input_adapterINSt3__111__wrap_iterIPKcEEEENS1_30iterator_input_adapter_factoryIT_vE12adapter_typeES9_S9_, symObjAddr: 0xA350, symBinAddr: 0x100012444, symSize: 0x4C }
  - { offsetInCU: 0x4DFB4, offset: 0x4DFB4, size: 0x8, addend: 0x0, symName: __ZN8nlohmann16json_abi_v3_11_26detail6concatINSt3__112basic_stringIcNS3_11char_traitsIcEENS3_9allocatorIcEEEEJRA26_KcS9_cEEET_DpOT0_, symObjAddr: 0x1100C, symBinAddr: 0x100019100, symSize: 0xD8 }
  - { offsetInCU: 0x4E02E, offset: 0x4E02E, size: 0x8, addend: 0x0, symName: __ZN8nlohmann16json_abi_v3_11_26detail6concatINSt3__112basic_stringIcNS3_11char_traitsIcEENS3_9allocatorIcEEEEJRA24_KcS9_EEET_DpOT0_, symObjAddr: 0x11B34, symBinAddr: 0x100019C28, symSize: 0xCC }
  - { offsetInCU: 0x4E094, offset: 0x4E094, size: 0x8, addend: 0x0, symName: __ZN8nlohmann16json_abi_v3_11_26detail6concatINSt3__112basic_stringIcNS3_11char_traitsIcEENS3_9allocatorIcEEEEJS9_S9_RKS9_EEET_DpOT0_, symObjAddr: 0x14D10, symBinAddr: 0x10001CE04, symSize: 0xD8 }
  - { offsetInCU: 0x4E10E, offset: 0x4E10E, size: 0x8, addend: 0x0, symName: __ZN8nlohmann16json_abi_v3_11_26detail13concat_lengthINSt3__112basic_stringIcNS3_11char_traitsIcEENS3_9allocatorIcEEEEJS9_RKS9_EEEmRKT_DpOT0_, symObjAddr: 0x14F00, symBinAddr: 0x10001CFF4, symSize: 0x48 }
  - { offsetInCU: 0x4E174, offset: 0x4E174, size: 0x8, addend: 0x0, symName: __ZN8nlohmann16json_abi_v3_11_26detail11concat_intoINSt3__112basic_stringIcNS3_11char_traitsIcEENS3_9allocatorIcEEEES9_JS9_RKS9_ELi0EEEvRT_OT0_DpOT1_, symObjAddr: 0x14F48, symBinAddr: 0x10001D03C, symSize: 0x44 }
  - { offsetInCU: 0x4E1F3, offset: 0x4E1F3, size: 0x8, addend: 0x0, symName: __ZN8nlohmann16json_abi_v3_11_26detail13concat_lengthINSt3__112basic_stringIcNS3_11char_traitsIcEENS3_9allocatorIcEEEEJRKS9_EEEmRKT_DpOT0_, symObjAddr: 0x14F8C, symBinAddr: 0x10001D080, symSize: 0x40 }
  - { offsetInCU: 0x4E244, offset: 0x4E244, size: 0x8, addend: 0x0, symName: __ZN8nlohmann16json_abi_v3_11_26detail13concat_lengthINSt3__112basic_stringIcNS3_11char_traitsIcEENS3_9allocatorIcEEEEJEEEmRKT_DpOT0_, symObjAddr: 0x14FCC, symBinAddr: 0x10001D0C0, symSize: 0x38 }
  - { offsetInCU: 0x4E281, offset: 0x4E281, size: 0x8, addend: 0x0, symName: __ZN8nlohmann16json_abi_v3_11_26detail13concat_lengthEv, symObjAddr: 0x15004, symBinAddr: 0x10001D0F8, symSize: 0x8 }
  - { offsetInCU: 0x4E2A0, offset: 0x4E2A0, size: 0x8, addend: 0x0, symName: __ZN8nlohmann16json_abi_v3_11_26detail11concat_intoINSt3__112basic_stringIcNS3_11char_traitsIcEENS3_9allocatorIcEEEES9_JRKS9_ELi0EEEvRT_OT0_DpOT1_, symObjAddr: 0x15058, symBinAddr: 0x10001D14C, symSize: 0x3C }
  - { offsetInCU: 0x4E30C, offset: 0x4E30C, size: 0x8, addend: 0x0, symName: __ZN8nlohmann16json_abi_v3_11_26detail11concat_intoINSt3__112basic_stringIcNS3_11char_traitsIcEENS3_9allocatorIcEEEERKS9_JELi0EEEvRT_OT0_DpOT1_, symObjAddr: 0x150D0, symBinAddr: 0x10001D1C4, symSize: 0x34 }
  - { offsetInCU: 0x4E363, offset: 0x4E363, size: 0x8, addend: 0x0, symName: __ZN8nlohmann16json_abi_v3_11_26detail11concat_intoINSt3__112basic_stringIcNS3_11char_traitsIcEENS3_9allocatorIcEEEEEEvRT_, symObjAddr: 0x15104, symBinAddr: 0x10001D1F8, symSize: 0x10 }
  - { offsetInCU: 0x4E393, offset: 0x4E393, size: 0x8, addend: 0x0, symName: __ZN8nlohmann16json_abi_v3_11_26detail6concatINSt3__112basic_stringIcNS3_11char_traitsIcEENS3_9allocatorIcEEEEJRA17_KcRKS9_cS9_RA3_SA_EEET_DpOT0_, symObjAddr: 0x15114, symBinAddr: 0x10001D208, symSize: 0xF0 }
  - { offsetInCU: 0x4E435, offset: 0x4E435, size: 0x8, addend: 0x0, symName: __ZN8nlohmann16json_abi_v3_11_26detail13concat_lengthIJRKNSt3__112basic_stringIcNS3_11char_traitsIcEENS3_9allocatorIcEEEEcS9_RA3_KcEEEmPSC_DpOT_, symObjAddr: 0x15204, symBinAddr: 0x10001D2F8, symSize: 0x58 }
  - { offsetInCU: 0x4E4BA, offset: 0x4E4BA, size: 0x8, addend: 0x0, symName: __ZN8nlohmann16json_abi_v3_11_26detail11concat_intoINSt3__112basic_stringIcNS3_11char_traitsIcEENS3_9allocatorIcEEEERA17_KcJRKS9_cS9_RA3_SA_ELi0EEEvRT_OT0_DpOT1_, symObjAddr: 0x1525C, symBinAddr: 0x10001D350, symSize: 0x54 }
  - { offsetInCU: 0x4E561, offset: 0x4E561, size: 0x8, addend: 0x0, symName: __ZN8nlohmann16json_abi_v3_11_26detail13concat_lengthINSt3__112basic_stringIcNS3_11char_traitsIcEENS3_9allocatorIcEEEEJcS9_RA3_KcEEEmRKT_DpOT0_, symObjAddr: 0x152B0, symBinAddr: 0x10001D3A4, symSize: 0x54 }
  - { offsetInCU: 0x4E5DA, offset: 0x4E5DA, size: 0x8, addend: 0x0, symName: __ZN8nlohmann16json_abi_v3_11_26detail13concat_lengthIJNSt3__112basic_stringIcNS3_11char_traitsIcEENS3_9allocatorIcEEEERA3_KcEEEmcDpOT_, symObjAddr: 0x15304, symBinAddr: 0x10001D3F8, symSize: 0x34 }
  - { offsetInCU: 0x4E633, offset: 0x4E633, size: 0x8, addend: 0x0, symName: __ZN8nlohmann16json_abi_v3_11_26detail13concat_lengthINSt3__112basic_stringIcNS3_11char_traitsIcEENS3_9allocatorIcEEEEJRA3_KcEEEmRKT_DpOT0_, symObjAddr: 0x15338, symBinAddr: 0x10001D42C, symSize: 0x40 }
  - { offsetInCU: 0x4E684, offset: 0x4E684, size: 0x8, addend: 0x0, symName: __ZN8nlohmann16json_abi_v3_11_26detail13concat_lengthIJEEEmPKcDpOT_, symObjAddr: 0x15378, symBinAddr: 0x10001D46C, symSize: 0x38 }
  - { offsetInCU: 0x4E6B8, offset: 0x4E6B8, size: 0x8, addend: 0x0, symName: __ZN8nlohmann16json_abi_v3_11_26detail11concat_intoINSt3__112basic_stringIcNS3_11char_traitsIcEENS3_9allocatorIcEEEERKS9_JcS9_RA3_KcELi0EEEvRT_OT0_DpOT1_, symObjAddr: 0x153B0, symBinAddr: 0x10001D4A4, symSize: 0x4C }
  - { offsetInCU: 0x4E74C, offset: 0x4E74C, size: 0x8, addend: 0x0, symName: __ZN8nlohmann16json_abi_v3_11_26detail11concat_intoINSt3__112basic_stringIcNS3_11char_traitsIcEENS3_9allocatorIcEEEEcJS9_RA3_KcELi0EEEvRT_OT0_DpOT1_, symObjAddr: 0x153FC, symBinAddr: 0x10001D4F0, symSize: 0x48 }
  - { offsetInCU: 0x4E7CC, offset: 0x4E7CC, size: 0x8, addend: 0x0, symName: __ZN8nlohmann16json_abi_v3_11_26detail11concat_intoINSt3__112basic_stringIcNS3_11char_traitsIcEENS3_9allocatorIcEEEES9_JRA3_KcELi0EEEvRT_OT0_DpOT1_, symObjAddr: 0x15478, symBinAddr: 0x10001D56C, symSize: 0x3C }
  - { offsetInCU: 0x4E838, offset: 0x4E838, size: 0x8, addend: 0x0, symName: __ZN8nlohmann16json_abi_v3_11_26detail11concat_intoINSt3__112basic_stringIcNS3_11char_traitsIcEENS3_9allocatorIcEEEERA3_KcJELi0EEEvRT_OT0_DpOT1_, symObjAddr: 0x154B4, symBinAddr: 0x10001D5A8, symSize: 0x34 }
  - { offsetInCU: 0x4E88E, offset: 0x4E88E, size: 0x8, addend: 0x0, symName: __ZN8nlohmann16json_abi_v3_11_26detail13concat_lengthIJNSt3__112basic_stringIcNS3_11char_traitsIcEENS3_9allocatorIcEEEEEEEmPKcDpOT_, symObjAddr: 0x156C4, symBinAddr: 0x10001D7B8, symSize: 0x40 }
  - { offsetInCU: 0x4E8D7, offset: 0x4E8D7, size: 0x8, addend: 0x0, symName: __ZN8nlohmann16json_abi_v3_11_26detail11concat_intoINSt3__112basic_stringIcNS3_11char_traitsIcEENS3_9allocatorIcEEEERA24_KcJS9_ELi0EEEvRT_OT0_DpOT1_, symObjAddr: 0x15704, symBinAddr: 0x10001D7F8, symSize: 0x3C }
  - { offsetInCU: 0x4E943, offset: 0x4E943, size: 0x8, addend: 0x0, symName: __ZN8nlohmann16json_abi_v3_11_26detail11concat_intoINSt3__112basic_stringIcNS3_11char_traitsIcEENS3_9allocatorIcEEEES9_JELi0EEEvRT_OT0_DpOT1_, symObjAddr: 0x15740, symBinAddr: 0x10001D834, symSize: 0x34 }
  - { offsetInCU: 0x4EA0B, offset: 0x4EA0B, size: 0x8, addend: 0x0, symName: __ZN8nlohmann16json_abi_v3_11_26detaileqENS1_20primitive_iterator_tES2_, symObjAddr: 0x1D100, symBinAddr: 0x1000251F4, symSize: 0x28 }
  - { offsetInCU: 0x4EB1A, offset: 0x4EB1A, size: 0x8, addend: 0x0, symName: __ZN8nlohmann16json_abi_v3_11_26detail6concatINSt3__112basic_stringIcNS3_11char_traitsIcEENS3_9allocatorIcEEEEJRA25_KcPSA_EEET_DpOT0_, symObjAddr: 0x1D7F0, symBinAddr: 0x1000258E4, symSize: 0xCC }
  - { offsetInCU: 0x4EB80, offset: 0x4EB80, size: 0x8, addend: 0x0, symName: __ZN8nlohmann16json_abi_v3_11_26detail13concat_lengthIJPKcEEEmS4_DpOT_, symObjAddr: 0x1EC1C, symBinAddr: 0x100026D10, symSize: 0x44 }
  - { offsetInCU: 0x4EBC9, offset: 0x4EBC9, size: 0x8, addend: 0x0, symName: __ZN8nlohmann16json_abi_v3_11_26detail11concat_intoINSt3__112basic_stringIcNS3_11char_traitsIcEENS3_9allocatorIcEEEERA25_KcJPSA_ELi0EEEvRT_OT0_DpOT1_, symObjAddr: 0x1EC60, symBinAddr: 0x100026D54, symSize: 0x3C }
  - { offsetInCU: 0x4EC35, offset: 0x4EC35, size: 0x8, addend: 0x0, symName: __ZN8nlohmann16json_abi_v3_11_26detail11concat_intoINSt3__112basic_stringIcNS3_11char_traitsIcEENS3_9allocatorIcEEEEPKcJELi0EEEvRT_OT0_DpOT1_, symObjAddr: 0x1EC9C, symBinAddr: 0x100026D90, symSize: 0x38 }
  - { offsetInCU: 0x4EC8B, offset: 0x4EC8B, size: 0x8, addend: 0x0, symName: __ZN8nlohmann16json_abi_v3_11_26detail6concatINSt3__112basic_stringIcNS3_11char_traitsIcEENS3_9allocatorIcEEEEJRA23_KcS9_EEET_DpOT0_, symObjAddr: 0x1F4E0, symBinAddr: 0x1000275D4, symSize: 0xCC }
  - { offsetInCU: 0x4ECF2, offset: 0x4ECF2, size: 0x8, addend: 0x0, symName: __ZN8nlohmann16json_abi_v3_11_26detail11concat_intoINSt3__112basic_stringIcNS3_11char_traitsIcEENS3_9allocatorIcEEEERA23_KcJS9_ELi0EEEvRT_OT0_DpOT1_, symObjAddr: 0x1F5AC, symBinAddr: 0x1000276A0, symSize: 0x3C }
  - { offsetInCU: 0x4ED5D, offset: 0x4ED5D, size: 0x8, addend: 0x0, symName: __ZN8nlohmann16json_abi_v3_11_26detail13concat_lengthIJNSt3__112basic_stringIcNS3_11char_traitsIcEENS3_9allocatorIcEEEEcEEEmPKcDpOT_, symObjAddr: 0x1F764, symBinAddr: 0x100027858, symSize: 0x48 }
  - { offsetInCU: 0x4EDBA, offset: 0x4EDBA, size: 0x8, addend: 0x0, symName: __ZN8nlohmann16json_abi_v3_11_26detail11concat_intoINSt3__112basic_stringIcNS3_11char_traitsIcEENS3_9allocatorIcEEEERA26_KcJS9_cELi0EEEvRT_OT0_DpOT1_, symObjAddr: 0x1F7AC, symBinAddr: 0x1000278A0, symSize: 0x44 }
  - { offsetInCU: 0x4EE39, offset: 0x4EE39, size: 0x8, addend: 0x0, symName: __ZN8nlohmann16json_abi_v3_11_26detail13concat_lengthINSt3__112basic_stringIcNS3_11char_traitsIcEENS3_9allocatorIcEEEEJcEEEmRKT_DpOT0_, symObjAddr: 0x1F7F0, symBinAddr: 0x1000278E4, symSize: 0x44 }
  - { offsetInCU: 0x4EE8A, offset: 0x4EE8A, size: 0x8, addend: 0x0, symName: __ZN8nlohmann16json_abi_v3_11_26detail13concat_lengthIJEEEmcDpOT_, symObjAddr: 0x1F834, symBinAddr: 0x100027928, symSize: 0x24 }
  - { offsetInCU: 0x4EEBB, offset: 0x4EEBB, size: 0x8, addend: 0x0, symName: __ZN8nlohmann16json_abi_v3_11_26detail11concat_intoINSt3__112basic_stringIcNS3_11char_traitsIcEENS3_9allocatorIcEEEES9_JcELi0EEEvRT_OT0_DpOT1_, symObjAddr: 0x1F858, symBinAddr: 0x10002794C, symSize: 0x3C }
  - { offsetInCU: 0x4EF27, offset: 0x4EF27, size: 0x8, addend: 0x0, symName: __ZN8nlohmann16json_abi_v3_11_26detail11concat_intoINSt3__112basic_stringIcNS3_11char_traitsIcEENS3_9allocatorIcEEEEcJELi0EEEvRT_OT0_DpOT1_, symObjAddr: 0x1F894, symBinAddr: 0x100027988, symSize: 0x38 }
  - { offsetInCU: 0x4EF7E, offset: 0x4EF7E, size: 0x8, addend: 0x0, symName: __ZN8nlohmann16json_abi_v3_11_26detail7to_jsonINS0_10basic_jsonINSt3__13mapENS4_6vectorENS4_12basic_stringIcNS4_11char_traitsIcEENS4_9allocatorIcEEEEbxydSA_NS0_14adl_serializerENS6_IhNSA_IhEEEEEEbLi0EEEvRT_T0_, symObjAddr: 0x203A4, symBinAddr: 0x100028498, symSize: 0x38 }
  - { offsetInCU: 0x4F001, offset: 0x4F001, size: 0x8, addend: 0x0, symName: __ZN8nlohmann16json_abi_v3_11_26detail7to_jsonINS0_10basic_jsonINSt3__13mapENS4_6vectorENS4_12basic_stringIcNS4_11char_traitsIcEENS4_9allocatorIcEEEEbxydSA_NS0_14adl_serializerENS6_IhNSA_IhEEEEEExLi0EEEvRT_T0_, symObjAddr: 0x21FD4, symBinAddr: 0x10002A0C8, symSize: 0x2C }
  - { offsetInCU: 0x4F084, offset: 0x4F084, size: 0x8, addend: 0x0, symName: __ZN8nlohmann16json_abi_v3_11_26detail7to_jsonINS0_10basic_jsonINSt3__13mapENS4_6vectorENS4_12basic_stringIcNS4_11char_traitsIcEENS4_9allocatorIcEEEEbxydSA_NS0_14adl_serializerENS6_IhNSA_IhEEEEEEyLi0EEEvRT_T0_, symObjAddr: 0x22B18, symBinAddr: 0x10002AC0C, symSize: 0x2C }
  - { offsetInCU: 0x4F106, offset: 0x4F106, size: 0x8, addend: 0x0, symName: __ZN8nlohmann16json_abi_v3_11_26detail6concatINSt3__112basic_stringIcNS3_11char_traitsIcEENS3_9allocatorIcEEEEJS9_RA12_KcS9_RA3_SA_S9_RKS9_EEET_DpOT0_, symObjAddr: 0x22D78, symBinAddr: 0x10002AE6C, symSize: 0xFC }
  - { offsetInCU: 0x4F1BC, offset: 0x4F1BC, size: 0x8, addend: 0x0, symName: __ZN8nlohmann16json_abi_v3_11_26detail13concat_lengthINSt3__112basic_stringIcNS3_11char_traitsIcEENS3_9allocatorIcEEEEJRA12_KcS9_RA3_SA_S9_RKS9_EEEmRKT_DpOT0_, symObjAddr: 0x22F74, symBinAddr: 0x10002B068, symSize: 0x60 }
  - { offsetInCU: 0x4F25E, offset: 0x4F25E, size: 0x8, addend: 0x0, symName: __ZN8nlohmann16json_abi_v3_11_26detail11concat_intoINSt3__112basic_stringIcNS3_11char_traitsIcEENS3_9allocatorIcEEEES9_JRA12_KcS9_RA3_SA_S9_RKS9_ELi0EEEvRT_OT0_DpOT1_, symObjAddr: 0x22FD4, symBinAddr: 0x10002B0C8, symSize: 0x5C }
  - { offsetInCU: 0x4F319, offset: 0x4F319, size: 0x8, addend: 0x0, symName: __ZN8nlohmann16json_abi_v3_11_26detail13concat_lengthIJNSt3__112basic_stringIcNS3_11char_traitsIcEENS3_9allocatorIcEEEERA3_KcS9_RKS9_EEEmPSA_DpOT_, symObjAddr: 0x23030, symBinAddr: 0x10002B124, symSize: 0x58 }
  - { offsetInCU: 0x4F39D, offset: 0x4F39D, size: 0x8, addend: 0x0, symName: __ZN8nlohmann16json_abi_v3_11_26detail13concat_lengthINSt3__112basic_stringIcNS3_11char_traitsIcEENS3_9allocatorIcEEEEJRA3_KcS9_RKS9_EEEmRKT_DpOT0_, symObjAddr: 0x23088, symBinAddr: 0x10002B17C, symSize: 0x50 }
  - { offsetInCU: 0x4F416, offset: 0x4F416, size: 0x8, addend: 0x0, symName: __ZN8nlohmann16json_abi_v3_11_26detail13concat_lengthIJNSt3__112basic_stringIcNS3_11char_traitsIcEENS3_9allocatorIcEEEERKS9_EEEmPKcDpOT_, symObjAddr: 0x230D8, symBinAddr: 0x10002B1CC, symSize: 0x48 }
  - { offsetInCU: 0x4F473, offset: 0x4F473, size: 0x8, addend: 0x0, symName: __ZN8nlohmann16json_abi_v3_11_26detail11concat_intoINSt3__112basic_stringIcNS3_11char_traitsIcEENS3_9allocatorIcEEEERA12_KcJS9_RA3_SA_S9_RKS9_ELi0EEEvRT_OT0_DpOT1_, symObjAddr: 0x23120, symBinAddr: 0x10002B214, symSize: 0x54 }
  - { offsetInCU: 0x4F51B, offset: 0x4F51B, size: 0x8, addend: 0x0, symName: __ZN8nlohmann16json_abi_v3_11_26detail11concat_intoINSt3__112basic_stringIcNS3_11char_traitsIcEENS3_9allocatorIcEEEES9_JRA3_KcS9_RKS9_ELi0EEEvRT_OT0_DpOT1_, symObjAddr: 0x23174, symBinAddr: 0x10002B268, symSize: 0x4C }
  - { offsetInCU: 0x4F5AF, offset: 0x4F5AF, size: 0x8, addend: 0x0, symName: __ZN8nlohmann16json_abi_v3_11_26detail11concat_intoINSt3__112basic_stringIcNS3_11char_traitsIcEENS3_9allocatorIcEEEERA3_KcJS9_RKS9_ELi0EEEvRT_OT0_DpOT1_, symObjAddr: 0x231C0, symBinAddr: 0x10002B2B4, symSize: 0x44 }
  - { offsetInCU: 0x4F62E, offset: 0x4F62E, size: 0x8, addend: 0x0, symName: __ZN8nlohmann16json_abi_v3_11_26detail6concatINSt3__112basic_stringIcNS3_11char_traitsIcEENS3_9allocatorIcEEEEJRA10_KcS9_SC_S9_EEET_DpOT0_, symObjAddr: 0x23204, symBinAddr: 0x10002B2F8, symSize: 0xE4 }
  - { offsetInCU: 0x4F6BC, offset: 0x4F6BC, size: 0x8, addend: 0x0, symName: __ZN8nlohmann16json_abi_v3_11_26detail13concat_lengthIJNSt3__112basic_stringIcNS3_11char_traitsIcEENS3_9allocatorIcEEEERA10_KcS9_EEEmPSA_DpOT_, symObjAddr: 0x232E8, symBinAddr: 0x10002B3DC, symSize: 0x50 }
  - { offsetInCU: 0x4F72D, offset: 0x4F72D, size: 0x8, addend: 0x0, symName: __ZN8nlohmann16json_abi_v3_11_26detail11concat_intoINSt3__112basic_stringIcNS3_11char_traitsIcEENS3_9allocatorIcEEEERA10_KcJS9_SC_S9_ELi0EEEvRT_OT0_DpOT1_, symObjAddr: 0x23338, symBinAddr: 0x10002B42C, symSize: 0x4C }
  - { offsetInCU: 0x4F7C0, offset: 0x4F7C0, size: 0x8, addend: 0x0, symName: __ZN8nlohmann16json_abi_v3_11_26detail13concat_lengthINSt3__112basic_stringIcNS3_11char_traitsIcEENS3_9allocatorIcEEEEJRA10_KcS9_EEEmRKT_DpOT0_, symObjAddr: 0x23384, symBinAddr: 0x10002B478, symSize: 0x48 }
  - { offsetInCU: 0x4F826, offset: 0x4F826, size: 0x8, addend: 0x0, symName: __ZN8nlohmann16json_abi_v3_11_26detail11concat_intoINSt3__112basic_stringIcNS3_11char_traitsIcEENS3_9allocatorIcEEEES9_JRA10_KcS9_ELi0EEEvRT_OT0_DpOT1_, symObjAddr: 0x233CC, symBinAddr: 0x10002B4C0, symSize: 0x44 }
  - { offsetInCU: 0x4F8A6, offset: 0x4F8A6, size: 0x8, addend: 0x0, symName: __ZN8nlohmann16json_abi_v3_11_26detail11concat_intoINSt3__112basic_stringIcNS3_11char_traitsIcEENS3_9allocatorIcEEEERA10_KcJS9_ELi0EEEvRT_OT0_DpOT1_, symObjAddr: 0x23410, symBinAddr: 0x10002B504, symSize: 0x3C }
  - { offsetInCU: 0x4F911, offset: 0x4F911, size: 0x8, addend: 0x0, symName: __ZN8nlohmann16json_abi_v3_11_26detail6concatINSt3__112basic_stringIcNS3_11char_traitsIcEENS3_9allocatorIcEEEEJRA15_KcRKS9_cEEET_DpOT0_, symObjAddr: 0x234DC, symBinAddr: 0x10002B5D0, symSize: 0xD8 }
  - { offsetInCU: 0x4F98B, offset: 0x4F98B, size: 0x8, addend: 0x0, symName: __ZN8nlohmann16json_abi_v3_11_26detail6concatINSt3__112basic_stringIcNS3_11char_traitsIcEENS3_9allocatorIcEEEEJPKcRA15_SA_S9_cEEET_DpOT0_, symObjAddr: 0x235E0, symBinAddr: 0x10002B6D4, symSize: 0xE8 }
  - { offsetInCU: 0x4FA19, offset: 0x4FA19, size: 0x8, addend: 0x0, symName: __ZN8nlohmann16json_abi_v3_11_26detail6concatINSt3__112basic_stringIcNS3_11char_traitsIcEENS3_9allocatorIcEEEEJRA12_KcPSA_EEET_DpOT0_, symObjAddr: 0x236E0, symBinAddr: 0x10002B7D4, symSize: 0xCC }
  - { offsetInCU: 0x4FA7F, offset: 0x4FA7F, size: 0x8, addend: 0x0, symName: __ZN8nlohmann16json_abi_v3_11_26detail13concat_lengthIJRKNSt3__112basic_stringIcNS3_11char_traitsIcEENS3_9allocatorIcEEEEcEEEmPKcDpOT_, symObjAddr: 0x23938, symBinAddr: 0x10002BA2C, symSize: 0x48 }
  - { offsetInCU: 0x4FADC, offset: 0x4FADC, size: 0x8, addend: 0x0, symName: __ZN8nlohmann16json_abi_v3_11_26detail11concat_intoINSt3__112basic_stringIcNS3_11char_traitsIcEENS3_9allocatorIcEEEERA15_KcJRKS9_cELi0EEEvRT_OT0_DpOT1_, symObjAddr: 0x23980, symBinAddr: 0x10002BA74, symSize: 0x44 }
  - { offsetInCU: 0x4FB5C, offset: 0x4FB5C, size: 0x8, addend: 0x0, symName: __ZN8nlohmann16json_abi_v3_11_26detail11concat_intoINSt3__112basic_stringIcNS3_11char_traitsIcEENS3_9allocatorIcEEEERKS9_JcELi0EEEvRT_OT0_DpOT1_, symObjAddr: 0x239C4, symBinAddr: 0x10002BAB8, symSize: 0x3C }
  - { offsetInCU: 0x4FBC7, offset: 0x4FBC7, size: 0x8, addend: 0x0, symName: __ZN8nlohmann16json_abi_v3_11_26detail13concat_lengthIJRA15_KcNSt3__112basic_stringIcNS6_11char_traitsIcEENS6_9allocatorIcEEEEcEEEmPS3_DpOT_, symObjAddr: 0x23A00, symBinAddr: 0x10002BAF4, symSize: 0x50 }
  - { offsetInCU: 0x4FC38, offset: 0x4FC38, size: 0x8, addend: 0x0, symName: __ZN8nlohmann16json_abi_v3_11_26detail11concat_intoINSt3__112basic_stringIcNS3_11char_traitsIcEENS3_9allocatorIcEEEEPKcJRA15_SA_S9_cELi0EEEvRT_OT0_DpOT1_, symObjAddr: 0x23A50, symBinAddr: 0x10002BB44, symSize: 0x50 }
  - { offsetInCU: 0x4FCCC, offset: 0x4FCCC, size: 0x8, addend: 0x0, symName: __ZN8nlohmann16json_abi_v3_11_26detail11concat_intoINSt3__112basic_stringIcNS3_11char_traitsIcEENS3_9allocatorIcEEEERA15_KcJS9_cELi0EEEvRT_OT0_DpOT1_, symObjAddr: 0x23AA0, symBinAddr: 0x10002BB94, symSize: 0x44 }
  - { offsetInCU: 0x4FD4C, offset: 0x4FD4C, size: 0x8, addend: 0x0, symName: __ZN8nlohmann16json_abi_v3_11_26detail11concat_intoINSt3__112basic_stringIcNS3_11char_traitsIcEENS3_9allocatorIcEEEERA12_KcJPSA_ELi0EEEvRT_OT0_DpOT1_, symObjAddr: 0x23AE4, symBinAddr: 0x10002BBD8, symSize: 0x3C }
  - { offsetInCU: 0x4FE3F, offset: 0x4FE3F, size: 0x8, addend: 0x0, symName: __ZN8nlohmann16json_abi_v3_11_26detail9from_jsonINS0_10basic_jsonINSt3__13mapENS4_6vectorENS4_12basic_stringIcNS4_11char_traitsIcEENS4_9allocatorIcEEEEbxydSA_NS0_14adl_serializerENS6_IhNSA_IhEEEEEEEEvRKT_RNSH_8string_tE, symObjAddr: 0x297AC, symBinAddr: 0x1000318A0, symSize: 0x118 }
  - { offsetInCU: 0x4FE81, offset: 0x4FE81, size: 0x8, addend: 0x0, symName: __ZN8nlohmann16json_abi_v3_11_26detail6concatINSt3__112basic_stringIcNS3_11char_traitsIcEENS3_9allocatorIcEEEEJRA29_KcPSA_EEET_DpOT0_, symObjAddr: 0x299F4, symBinAddr: 0x100031AE8, symSize: 0xCC }
  - { offsetInCU: 0x4FEE8, offset: 0x4FEE8, size: 0x8, addend: 0x0, symName: __ZN8nlohmann16json_abi_v3_11_26detail11concat_intoINSt3__112basic_stringIcNS3_11char_traitsIcEENS3_9allocatorIcEEEERA29_KcJPSA_ELi0EEEvRT_OT0_DpOT1_, symObjAddr: 0x29AE8, symBinAddr: 0x100031BDC, symSize: 0x3C }
  - { offsetInCU: 0x4FF54, offset: 0x4FF54, size: 0x8, addend: 0x0, symName: __ZN8nlohmann16json_abi_v3_11_26detail9from_jsonINS0_10basic_jsonINSt3__13mapENS4_6vectorENS4_12basic_stringIcNS4_11char_traitsIcEENS4_9allocatorIcEEEEbxydSA_NS0_14adl_serializerENS6_IhNSA_IhEEEEEEfLi0EEEvRKT_RT0_, symObjAddr: 0x29C10, symBinAddr: 0x100031D04, symSize: 0x1B4 }
  - { offsetInCU: 0x4FFA5, offset: 0x4FFA5, size: 0x8, addend: 0x0, symName: __ZN8nlohmann16json_abi_v3_11_26detail6concatINSt3__112basic_stringIcNS3_11char_traitsIcEENS3_9allocatorIcEEEEJRA51_KcPSA_EEET_DpOT0_, symObjAddr: 0x2AFAC, symBinAddr: 0x1000330A0, symSize: 0xCC }
  - { offsetInCU: 0x5000C, offset: 0x5000C, size: 0x8, addend: 0x0, symName: __ZN8nlohmann16json_abi_v3_11_26detail11concat_intoINSt3__112basic_stringIcNS3_11char_traitsIcEENS3_9allocatorIcEEEERA51_KcJPSA_ELi0EEEvRT_OT0_DpOT1_, symObjAddr: 0x2B44C, symBinAddr: 0x100033540, symSize: 0x3C }
  - { offsetInCU: 0x50078, offset: 0x50078, size: 0x8, addend: 0x0, symName: __ZN8nlohmann16json_abi_v3_11_26detail7to_jsonINS0_10basic_jsonINSt3__13mapENS4_6vectorENS4_12basic_stringIcNS4_11char_traitsIcEENS4_9allocatorIcEEEEbxydSA_NS0_14adl_serializerENS6_IhNSA_IhEEEEEEPKcLi0EEEvRT_RKT0_, symObjAddr: 0x2C9F4, symBinAddr: 0x100034AE8, symSize: 0x2C }
  - { offsetInCU: 0x50129, offset: 0x50129, size: 0x8, addend: 0x0, symName: __ZN8nlohmann16json_abi_v3_11_26detail6concatINSt3__112basic_stringIcNS3_11char_traitsIcEENS3_9allocatorIcEEEEJRA29_KcS9_RA5_SA_S9_EEET_DpOT0_, symObjAddr: 0x57250, symBinAddr: 0x10005F344, symSize: 0xE4 }
  - { offsetInCU: 0x505AE, offset: 0x505AE, size: 0x8, addend: 0x0, symName: __ZN8nlohmann16json_abi_v3_11_26detail6concatINSt3__112basic_stringIcNS3_11char_traitsIcEENS3_9allocatorIcEEEEJRA39_KcS9_EEET_DpOT0_, symObjAddr: 0x57444, symBinAddr: 0x10005F538, symSize: 0xCC }
  - { offsetInCU: 0x50614, offset: 0x50614, size: 0x8, addend: 0x0, symName: __ZN8nlohmann16json_abi_v3_11_26detail13concat_lengthIJNSt3__112basic_stringIcNS3_11char_traitsIcEENS3_9allocatorIcEEEERA5_KcS9_EEEmPSA_DpOT_, symObjAddr: 0x5758C, symBinAddr: 0x10005F680, symSize: 0x50 }
  - { offsetInCU: 0x50685, offset: 0x50685, size: 0x8, addend: 0x0, symName: __ZN8nlohmann16json_abi_v3_11_26detail11concat_intoINSt3__112basic_stringIcNS3_11char_traitsIcEENS3_9allocatorIcEEEERA29_KcJS9_RA5_SA_S9_ELi0EEEvRT_OT0_DpOT1_, symObjAddr: 0x575DC, symBinAddr: 0x10005F6D0, symSize: 0x4C }
  - { offsetInCU: 0x50718, offset: 0x50718, size: 0x8, addend: 0x0, symName: __ZN8nlohmann16json_abi_v3_11_26detail13concat_lengthINSt3__112basic_stringIcNS3_11char_traitsIcEENS3_9allocatorIcEEEEJRA5_KcS9_EEEmRKT_DpOT0_, symObjAddr: 0x57628, symBinAddr: 0x10005F71C, symSize: 0x48 }
  - { offsetInCU: 0x5077E, offset: 0x5077E, size: 0x8, addend: 0x0, symName: __ZN8nlohmann16json_abi_v3_11_26detail11concat_intoINSt3__112basic_stringIcNS3_11char_traitsIcEENS3_9allocatorIcEEEES9_JRA5_KcS9_ELi0EEEvRT_OT0_DpOT1_, symObjAddr: 0x57670, symBinAddr: 0x10005F764, symSize: 0x44 }
  - { offsetInCU: 0x507FE, offset: 0x507FE, size: 0x8, addend: 0x0, symName: __ZN8nlohmann16json_abi_v3_11_26detail11concat_intoINSt3__112basic_stringIcNS3_11char_traitsIcEENS3_9allocatorIcEEEERA5_KcJS9_ELi0EEEvRT_OT0_DpOT1_, symObjAddr: 0x576B4, symBinAddr: 0x10005F7A8, symSize: 0x3C }
  - { offsetInCU: 0x5086A, offset: 0x5086A, size: 0x8, addend: 0x0, symName: __ZN8nlohmann16json_abi_v3_11_26detail11concat_intoINSt3__112basic_stringIcNS3_11char_traitsIcEENS3_9allocatorIcEEEERA39_KcJS9_ELi0EEEvRT_OT0_DpOT1_, symObjAddr: 0x576F0, symBinAddr: 0x10005F7E4, symSize: 0x3C }
  - { offsetInCU: 0x508D5, offset: 0x508D5, size: 0x8, addend: 0x0, symName: __ZN8nlohmann16json_abi_v3_11_26detail8to_charsIdEEPcS3_PKcT_, symObjAddr: 0x57C40, symBinAddr: 0x10005FD34, symSize: 0x26C }
  - { offsetInCU: 0x50967, offset: 0x50967, size: 0x8, addend: 0x0, symName: __ZN8nlohmann16json_abi_v3_11_26detail7to_jsonINS0_10basic_jsonINSt3__13mapENS4_6vectorENS4_12basic_stringIcNS4_11char_traitsIcEENS4_9allocatorIcEEEEbxydSA_NS0_14adl_serializerENS6_IhNSA_IhEEEEEEiLi0EEEvRT_T0_, symObjAddr: 0x5A9DC, symBinAddr: 0x100062AD0, symSize: 0x2C }
  - { offsetInCU: 0x509B9, offset: 0x509B9, size: 0x8, addend: 0x0, symName: __ZN8nlohmann16json_abi_v3_11_26detail7to_jsonINS0_10basic_jsonINSt3__13mapENS4_6vectorENS4_12basic_stringIcNS4_11char_traitsIcEENS4_9allocatorIcEEEEbxydSA_NS0_14adl_serializerENS6_IhNSA_IhEEEEEESC_Li0EEEvRT_RKT0_, symObjAddr: 0x5AAC0, symBinAddr: 0x100062BB4, symSize: 0x2C }
  - { offsetInCU: 0x50A0B, offset: 0x50A0B, size: 0x8, addend: 0x0, symName: __ZN8nlohmann16json_abi_v3_11_26detail7to_jsonINS0_10basic_jsonINSt3__13mapENS4_6vectorENS4_12basic_stringIcNS4_11char_traitsIcEENS4_9allocatorIcEEEEbxydSA_NS0_14adl_serializerENS6_IhNSA_IhEEEEEEdLi0EEEvRT_T0_, symObjAddr: 0x5AC10, symBinAddr: 0x100062D04, symSize: 0x2C }
  - { offsetInCU: 0x525B8, offset: 0x525B8, size: 0x8, addend: 0x0, symName: __ZN8nlohmann16json_abi_v3_11_2eqIiLi0EEEbRKNS0_10basic_jsonINSt3__13mapENS3_6vectorENS3_12basic_stringIcNS3_11char_traitsIcEENS3_9allocatorIcEEEEbxydS9_NS0_14adl_serializerENS5_IhNS9_IhEEEEEET_, symObjAddr: 0x1CA0, symBinAddr: 0x100009D94, symSize: 0x60 }
  - { offsetInCU: 0x52604, offset: 0x52604, size: 0x8, addend: 0x0, symName: __ZN8nlohmann16json_abi_v3_11_2eqIPKcLi0EEEbRKNS0_10basic_jsonINSt3__13mapENS5_6vectorENS5_12basic_stringIcNS5_11char_traitsIcEENS5_9allocatorIcEEEEbxydSB_NS0_14adl_serializerENS7_IhNSB_IhEEEEEET_, symObjAddr: 0x4218, symBinAddr: 0x10000C30C, symSize: 0x68 }
  - { offsetInCU: 0x527AF, offset: 0x527AF, size: 0x8, addend: 0x0, symName: __ZN8nlohmann16json_abi_v3_11_2eqERKNS0_10basic_jsonINSt3__13mapENS2_6vectorENS2_12basic_stringIcNS2_11char_traitsIcEENS2_9allocatorIcEEEEbxydS8_NS0_14adl_serializerENS4_IhNS8_IhEEEEEESG_, symObjAddr: 0x2B488, symBinAddr: 0x10003357C, symSize: 0x470 }
  - { offsetInCU: 0x528D2, offset: 0x528D2, size: 0x8, addend: 0x0, symName: __ZN8nlohmann16json_abi_v3_11_26detail12static_constINS1_12from_json_fnEE5valueE, symObjAddr: 0x6544C, symBinAddr: 0x1001724FC, symSize: 0x0 }
  - { offsetInCU: 0x53E73, offset: 0x53E73, size: 0x8, addend: 0x0, symName: __ZN8nlohmann16json_abi_v3_11_26detail10serializerINS0_10basic_jsonINSt3__13mapENS4_6vectorENS4_12basic_stringIcNS4_11char_traitsIcEENS4_9allocatorIcEEEEbxydSA_NS0_14adl_serializerENS6_IhNSA_IhEEEEEEE6decodeERhRjh, symObjAddr: 0x56F68, symBinAddr: 0x10005F05C, symSize: 0x170 }
  - { offsetInCU: 0x53E94, offset: 0x53E94, size: 0x8, addend: 0x0, symName: __ZZN8nlohmann16json_abi_v3_11_26detail10serializerINS0_10basic_jsonINSt3__13mapENS4_6vectorENS4_12basic_stringIcNS4_11char_traitsIcEENS4_9allocatorIcEEEEbxydSA_NS0_14adl_serializerENS6_IhNSA_IhEEEEEEE6decodeERhRjhE5utf8d, symObjAddr: 0x65A3F, symBinAddr: 0x100172AEF, symSize: 0x0 }
  - { offsetInCU: 0x53F44, offset: 0x53F44, size: 0x8, addend: 0x0, symName: __ZN8nlohmann16json_abi_v3_11_26detail10serializerINS0_10basic_jsonINSt3__13mapENS4_6vectorENS4_12basic_stringIcNS4_11char_traitsIcEENS4_9allocatorIcEEEEbxydSA_NS0_14adl_serializerENS6_IhNSA_IhEEEEEEE12dump_integerIhLi0EEEvT_, symObjAddr: 0x56600, symBinAddr: 0x10005E6F4, symSize: 0x2C8 }
  - { offsetInCU: 0x53F69, offset: 0x53F69, size: 0x8, addend: 0x0, symName: __ZZN8nlohmann16json_abi_v3_11_26detail10serializerINS0_10basic_jsonINSt3__13mapENS4_6vectorENS4_12basic_stringIcNS4_11char_traitsIcEENS4_9allocatorIcEEEEbxydSA_NS0_14adl_serializerENS6_IhNSA_IhEEEEEEE12dump_integerIhLi0EEEvT_E12digits_to_99, symObjAddr: 0x65BCF, symBinAddr: 0x100172C7F, symSize: 0x0 }
  - { offsetInCU: 0x5408A, offset: 0x5408A, size: 0x8, addend: 0x0, symName: __ZN8nlohmann16json_abi_v3_11_26detail10serializerINS0_10basic_jsonINSt3__13mapENS4_6vectorENS4_12basic_stringIcNS4_11char_traitsIcEENS4_9allocatorIcEEEEbxydSA_NS0_14adl_serializerENS6_IhNSA_IhEEEEEEE12dump_integerIyLi0EEEvT_, symObjAddr: 0x56900, symBinAddr: 0x10005E9F4, symSize: 0x2C4 }
  - { offsetInCU: 0x540AF, offset: 0x540AF, size: 0x8, addend: 0x0, symName: __ZZN8nlohmann16json_abi_v3_11_26detail10serializerINS0_10basic_jsonINSt3__13mapENS4_6vectorENS4_12basic_stringIcNS4_11char_traitsIcEENS4_9allocatorIcEEEEbxydSA_NS0_14adl_serializerENS6_IhNSA_IhEEEEEEE12dump_integerIyLi0EEEvT_E12digits_to_99, symObjAddr: 0x65C97, symBinAddr: 0x100172D47, symSize: 0x0 }
  - { offsetInCU: 0x5414C, offset: 0x5414C, size: 0x8, addend: 0x0, symName: __ZN8nlohmann16json_abi_v3_11_26detail10serializerINS0_10basic_jsonINSt3__13mapENS4_6vectorENS4_12basic_stringIcNS4_11char_traitsIcEENS4_9allocatorIcEEEEbxydSA_NS0_14adl_serializerENS6_IhNSA_IhEEEEEEE12dump_integerIxLi0EEEvT_, symObjAddr: 0x56C08, symBinAddr: 0x10005ECFC, symSize: 0x2C4 }
  - { offsetInCU: 0x54171, offset: 0x54171, size: 0x8, addend: 0x0, symName: __ZZN8nlohmann16json_abi_v3_11_26detail10serializerINS0_10basic_jsonINSt3__13mapENS4_6vectorENS4_12basic_stringIcNS4_11char_traitsIcEENS4_9allocatorIcEEEEbxydSA_NS0_14adl_serializerENS6_IhNSA_IhEEEEEEE12dump_integerIxLi0EEEvT_E12digits_to_99, symObjAddr: 0x65D5F, symBinAddr: 0x100172E0F, symSize: 0x0 }
  - { offsetInCU: 0x5420E, offset: 0x5420E, size: 0x8, addend: 0x0, symName: __ZN8nlohmann16json_abi_v3_11_26detail10serializerINS0_10basic_jsonINSt3__13mapENS4_6vectorENS4_12basic_stringIcNS4_11char_traitsIcEENS4_9allocatorIcEEEEbxydSA_NS0_14adl_serializerENS6_IhNSA_IhEEEEEEE10dump_floatEd, symObjAddr: 0x56ECC, symBinAddr: 0x10005EFC0, symSize: 0x6C }
  - { offsetInCU: 0x54233, offset: 0x54233, size: 0x8, addend: 0x0, symName: __ZZN8nlohmann16json_abi_v3_11_26detail10serializerINS0_10basic_jsonINSt3__13mapENS4_6vectorENS4_12basic_stringIcNS4_11char_traitsIcEENS4_9allocatorIcEEEEbxydSA_NS0_14adl_serializerENS6_IhNSA_IhEEEEEEE10dump_floatEdE24is_ieee_single_or_double, symObjAddr: 0x65E27, symBinAddr: 0x100172ED7, symSize: 0x0 }
  - { offsetInCU: 0x59745, offset: 0x59745, size: 0x8, addend: 0x0, symName: __ZNSt3__16vectorIcNS_9allocatorIcEEE26__swap_out_circular_bufferERNS_14__split_bufferIcRS2_EE, symObjAddr: 0x7F98, symBinAddr: 0x10001008C, symSize: 0x118 }
  - { offsetInCU: 0x59AC9, offset: 0x59AC9, size: 0x8, addend: 0x0, symName: __ZNSt3__16vectorIN8nlohmann16json_abi_v3_11_210basic_jsonINS_3mapES0_NS_12basic_stringIcNS_11char_traitsIcEENS_9allocatorIcEEEEbxydS8_NS2_14adl_serializerENS0_IhNS8_IhEEEEEENS8_ISE_EEE26__swap_out_circular_bufferERNS_14__split_bufferISE_RSF_EE, symObjAddr: 0x12538, symBinAddr: 0x10001A62C, symSize: 0x118 }
  - { offsetInCU: 0x59B68, offset: 0x59B68, size: 0x8, addend: 0x0, symName: __ZNSt3__16vectorIPN8nlohmann16json_abi_v3_11_210basic_jsonINS_3mapES0_NS_12basic_stringIcNS_11char_traitsIcEENS_9allocatorIcEEEEbxydS8_NS2_14adl_serializerENS0_IhNS8_IhEEEEEENS8_ISF_EEE26__swap_out_circular_bufferERNS_14__split_bufferISF_RSG_EE, symObjAddr: 0x13B64, symBinAddr: 0x10001BC58, symSize: 0x118 }
  - { offsetInCU: 0x5A2F1, offset: 0x5A2F1, size: 0x8, addend: 0x0, symName: __ZNSt3__16vectorINS_7__stateIcEENS_9allocatorIS2_EEE26__swap_out_circular_bufferERNS_14__split_bufferIS2_RS4_EE, symObjAddr: 0x34294, symBinAddr: 0x10003C388, symSize: 0x118 }
  - { offsetInCU: 0x5A396, offset: 0x5A396, size: 0x8, addend: 0x0, symName: __ZNSt3__16vectorINS_9sub_matchIPKcEENS_9allocatorIS4_EEE26__swap_out_circular_bufferERNS_14__split_bufferIS4_RS6_EE, symObjAddr: 0x35EBC, symBinAddr: 0x10003DFB0, symSize: 0x118 }
  - { offsetInCU: 0x5A435, offset: 0x5A435, size: 0x8, addend: 0x0, symName: __ZNSt3__16vectorINS_4pairImPKcEENS_9allocatorIS4_EEE26__swap_out_circular_bufferERNS_14__split_bufferIS4_RS6_EE, symObjAddr: 0x370FC, symBinAddr: 0x10003F1F0, symSize: 0x118 }
  - { offsetInCU: 0x5A8FB, offset: 0x5A8FB, size: 0x8, addend: 0x0, symName: __ZNSt3__16vectorINS_4pairINS_12basic_stringIcNS_11char_traitsIcEENS_9allocatorIcEEEES7_EENS5_IS8_EEE26__swap_out_circular_bufferERNS_14__split_bufferIS8_RS9_EE, symObjAddr: 0x4203C, symBinAddr: 0x10004A130, symSize: 0x118 }
  - { offsetInCU: 0x5A99A, offset: 0x5A99A, size: 0x8, addend: 0x0, symName: __ZNSt3__16vectorINS_4pairIccEENS_9allocatorIS2_EEE26__swap_out_circular_bufferERNS_14__split_bufferIS2_RS4_EE, symObjAddr: 0x43534, symBinAddr: 0x10004B628, symSize: 0x118 }
  - { offsetInCU: 0x5ABD3, offset: 0x5ABD3, size: 0x8, addend: 0x0, symName: __ZNSt3__16vectorINS_9sub_matchINS_11__wrap_iterIPKcEEEENS_9allocatorIS6_EEE26__swap_out_circular_bufferERNS_14__split_bufferIS6_RS8_EE, symObjAddr: 0x4E304, symBinAddr: 0x1000563F8, symSize: 0x118 }
  - { offsetInCU: 0x5AC72, offset: 0x5AC72, size: 0x8, addend: 0x0, symName: __ZNSt3__16vectorIdNS_9allocatorIdEEE26__swap_out_circular_bufferERNS_14__split_bufferIdRS2_EE, symObjAddr: 0x500B8, symBinAddr: 0x1000581AC, symSize: 0x118 }
  - { offsetInCU: 0x5ACCC, offset: 0x5ACCC, size: 0x8, addend: 0x0, symName: __ZNSt3__16vectorINS_12basic_stringIcNS_11char_traitsIcEENS_9allocatorIcEEEENS4_IS6_EEE26__swap_out_circular_bufferERNS_14__split_bufferIS6_RS7_EE, symObjAddr: 0x51E00, symBinAddr: 0x100059EF4, symSize: 0x118 }
  - { offsetInCU: 0x605C0, offset: 0x605C0, size: 0x8, addend: 0x0, symName: __ZNSt3__16vectorIN7Cabbage10IdentifierENS_9allocatorIS2_EEE26__swap_out_circular_bufferERNS_14__split_bufferIS2_RS4_EE, symObjAddr: 0x5C3FC, symBinAddr: 0x1000644F0, symSize: 0x118 }
  - { offsetInCU: 0x62788, offset: 0x62788, size: 0x8, addend: 0x0, symName: __ZN7CabbageC2ER16CabbageProcessorNSt3__112basic_stringIcNS2_11char_traitsIcEENS2_9allocatorIcEEEE, symObjAddr: 0x0, symBinAddr: 0x1000080F4, symSize: 0x114 }
  - { offsetInCU: 0x627D1, offset: 0x627D1, size: 0x8, addend: 0x0, symName: __ZNSt3__16vectorINS_12basic_stringIcNS_11char_traitsIcEENS_9allocatorIcEEEENS4_IS6_EEEC1B7v160006Ev, symObjAddr: 0x114, symBinAddr: 0x100008208, symSize: 0x2C }
  - { offsetInCU: 0x627FB, offset: 0x627FB, size: 0x8, addend: 0x0, symName: __ZNSt3__16vectorIN8nlohmann16json_abi_v3_11_210basic_jsonINS_3mapES0_NS_12basic_stringIcNS_11char_traitsIcEENS_9allocatorIcEEEEbxydS8_NS2_14adl_serializerENS0_IhNS8_IhEEEEEENS8_ISE_EEEC1B7v160006Ev, symObjAddr: 0x140, symBinAddr: 0x100008234, symSize: 0x2C }
  - { offsetInCU: 0x62825, offset: 0x62825, size: 0x8, addend: 0x0, symName: __ZNSt3__112basic_stringIcNS_11char_traitsIcEENS_9allocatorIcEEEC1B7v160006Ev, symObjAddr: 0x16C, symBinAddr: 0x100008260, symSize: 0x2C }
  - { offsetInCU: 0x6284F, offset: 0x6284F, size: 0x8, addend: 0x0, symName: __ZNSt3__110unique_ptrI13CSOUND_PARAMSNS_14default_deleteIS1_EEEC1B7v160006ILb1EvEEv, symObjAddr: 0x198, symBinAddr: 0x10000828C, symSize: 0x2C }
  - { offsetInCU: 0x62884, offset: 0x62884, size: 0x8, addend: 0x0, symName: __ZNSt3__110unique_ptrI6CsoundNS_14default_deleteIS1_EEEC1B7v160006ILb1EvEEv, symObjAddr: 0x1C4, symBinAddr: 0x1000082B8, symSize: 0x2C }
  - { offsetInCU: 0x628B9, offset: 0x628B9, size: 0x8, addend: 0x0, symName: __ZNSt3__110unique_ptrI13CSOUND_PARAMSNS_14default_deleteIS1_EEED1B7v160006Ev, symObjAddr: 0x1F0, symBinAddr: 0x1000082E4, symSize: 0x2C }
  - { offsetInCU: 0x628E3, offset: 0x628E3, size: 0x8, addend: 0x0, symName: __ZNSt3__16vectorIN8nlohmann16json_abi_v3_11_210basic_jsonINS_3mapES0_NS_12basic_stringIcNS_11char_traitsIcEENS_9allocatorIcEEEEbxydS8_NS2_14adl_serializerENS0_IhNS8_IhEEEEEENS8_ISE_EEED1B7v160006Ev, symObjAddr: 0x21C, symBinAddr: 0x100008310, symSize: 0x2C }
  - { offsetInCU: 0x6290D, offset: 0x6290D, size: 0x8, addend: 0x0, symName: __ZNSt3__16vectorINS_12basic_stringIcNS_11char_traitsIcEENS_9allocatorIcEEEENS4_IS6_EEED1B7v160006Ev, symObjAddr: 0x248, symBinAddr: 0x10000833C, symSize: 0x2C }
  - { offsetInCU: 0x62937, offset: 0x62937, size: 0x8, addend: 0x0, symName: __ZN7CabbageC1ER16CabbageProcessorNSt3__112basic_stringIcNS2_11char_traitsIcEENS2_9allocatorIcEEEE, symObjAddr: 0x274, symBinAddr: 0x100008368, symSize: 0x3C }
  - { offsetInCU: 0x62980, offset: 0x62980, size: 0x8, addend: 0x0, symName: __ZN7CabbageD2Ev, symObjAddr: 0x2B0, symBinAddr: 0x1000083A4, symSize: 0xC0 }
  - { offsetInCU: 0x629AC, offset: 0x629AC, size: 0x8, addend: 0x0, symName: __ZNKSt3__110unique_ptrI6CsoundNS_14default_deleteIS1_EEEcvbB7v160006Ev, symObjAddr: 0x370, symBinAddr: 0x100008464, symSize: 0x34 }
  - { offsetInCU: 0x629D2, offset: 0x629D2, size: 0x8, addend: 0x0, symName: __ZNSt3__110unique_ptrI6CsoundNS_14default_deleteIS1_EEEaSB7v160006EDn, symObjAddr: 0x3A4, symBinAddr: 0x100008498, symSize: 0x34 }
  - { offsetInCU: 0x62A04, offset: 0x62A04, size: 0x8, addend: 0x0, symName: __ZNSt3__110unique_ptrI13CSOUND_PARAMSNS_14default_deleteIS1_EEEaSB7v160006EDn, symObjAddr: 0x3D8, symBinAddr: 0x1000084CC, symSize: 0x34 }
  - { offsetInCU: 0x62A36, offset: 0x62A36, size: 0x8, addend: 0x0, symName: __ZNSt3__110unique_ptrI6CsoundNS_14default_deleteIS1_EEED1B7v160006Ev, symObjAddr: 0x40C, symBinAddr: 0x100008500, symSize: 0x2C }
  - { offsetInCU: 0x62A60, offset: 0x62A60, size: 0x8, addend: 0x0, symName: __ZN7CabbageD1Ev, symObjAddr: 0x438, symBinAddr: 0x10000852C, symSize: 0x2C }
  - { offsetInCU: 0x62A8C, offset: 0x62A8C, size: 0x8, addend: 0x0, symName: __ZN7Cabbage18parseCsdForWidgetsENSt3__112basic_stringIcNS0_11char_traitsIcEENS0_9allocatorIcEEEE, symObjAddr: 0x464, symBinAddr: 0x100008558, symSize: 0x334 }
  - { offsetInCU: 0x62BA5, offset: 0x62BA5, size: 0x8, addend: 0x0, symName: __ZNSt3__114basic_ifstreamIcNS_11char_traitsIcEEEC1ERKNS_12basic_stringIcS2_NS_9allocatorIcEEEEj, symObjAddr: 0x798, symBinAddr: 0x10000888C, symSize: 0x16C }
  - { offsetInCU: 0x62C4B, offset: 0x62C4B, size: 0x8, addend: 0x0, symName: __ZNSt3__119basic_ostringstreamIcNS_11char_traitsIcEENS_9allocatorIcEEEC1B7v160006Ev, symObjAddr: 0x904, symBinAddr: 0x1000089F8, symSize: 0xEC }
  - { offsetInCU: 0x62C75, offset: 0x62C75, size: 0x8, addend: 0x0, symName: __ZNKSt3__114basic_ifstreamIcNS_11char_traitsIcEEE5rdbufEv, symObjAddr: 0x9F0, symBinAddr: 0x100008AE4, symSize: 0x18 }
  - { offsetInCU: 0x62C9D, offset: 0x62C9D, size: 0x8, addend: 0x0, symName: __ZNKSt3__119basic_ostringstreamIcNS_11char_traitsIcEENS_9allocatorIcEEE3strB7v160006Ev, symObjAddr: 0xA08, symBinAddr: 0x100008AFC, symSize: 0x30 }
  - { offsetInCU: 0x62CEB, offset: 0x62CEB, size: 0x8, addend: 0x0, symName: __ZNSt3__119basic_istringstreamIcNS_11char_traitsIcEENS_9allocatorIcEEEC1B7v160006ERKNS_12basic_stringIcS2_S4_EEj, symObjAddr: 0xA38, symBinAddr: 0x100008B2C, symSize: 0xFC }
  - { offsetInCU: 0x62D33, offset: 0x62D33, size: 0x8, addend: 0x0, symName: __ZNKSt3__19basic_iosIcNS_11char_traitsIcEEEcvbB7v160006Ev, symObjAddr: 0xB90, symBinAddr: 0x100008C84, symSize: 0x2C }
  - { offsetInCU: 0x62D59, offset: 0x62D59, size: 0x8, addend: 0x0, symName: __ZN8nlohmann16json_abi_v3_11_210basic_jsonINSt3__13mapENS2_6vectorENS2_12basic_stringIcNS2_11char_traitsIcEENS2_9allocatorIcEEEEbxydS8_NS0_14adl_serializerENS4_IhNS8_IhEEEEEC1EDn, symObjAddr: 0xBBC, symBinAddr: 0x100008CB0, symSize: 0x4C }
  - { offsetInCU: 0x62D8F, offset: 0x62D8F, size: 0x8, addend: 0x0, symName: __ZN7Cabbage13getWidgetTypeERKNSt3__112basic_stringIcNS0_11char_traitsIcEENS0_9allocatorIcEEEE, symObjAddr: 0xCB4, symBinAddr: 0x100008DA8, symSize: 0xEC }
  - { offsetInCU: 0x62DEC, offset: 0x62DEC, size: 0x8, addend: 0x0, symName: __ZN24CabbageWidgetDescriptors15getRotarySliderEv, symObjAddr: 0xDA0, symBinAddr: 0x100008E94, symSize: 0xD4 }
  - { offsetInCU: 0x62E0F, offset: 0x62E0F, size: 0x8, addend: 0x0, symName: __ZN8nlohmann16json_abi_v3_11_210basic_jsonINSt3__13mapENS2_6vectorENS2_12basic_stringIcNS2_11char_traitsIcEENS2_9allocatorIcEEEEbxydS8_NS0_14adl_serializerENS4_IhNS8_IhEEEEEaSESE_, symObjAddr: 0xE74, symBinAddr: 0x100008F68, symSize: 0x80 }
  - { offsetInCU: 0x62E45, offset: 0x62E45, size: 0x8, addend: 0x0, symName: __ZN8nlohmann16json_abi_v3_11_210basic_jsonINSt3__13mapENS2_6vectorENS2_12basic_stringIcNS2_11char_traitsIcEENS2_9allocatorIcEEEEbxydS8_NS0_14adl_serializerENS4_IhNS8_IhEEEEED1Ev, symObjAddr: 0xEF4, symBinAddr: 0x100008FE8, symSize: 0x2C }
  - { offsetInCU: 0x62E6F, offset: 0x62E6F, size: 0x8, addend: 0x0, symName: __ZN7Cabbage20updateJsonFromSyntaxERN8nlohmann16json_abi_v3_11_210basic_jsonINSt3__13mapENS3_6vectorENS3_12basic_stringIcNS3_11char_traitsIcEENS3_9allocatorIcEEEEbxydS9_NS1_14adl_serializerENS5_IhNS9_IhEEEEEERKSB_, symObjAddr: 0xF20, symBinAddr: 0x100009014, symSize: 0x798 }
  - { offsetInCU: 0x62F8A, offset: 0x62F8A, size: 0x8, addend: 0x0, symName: __ZNK8nlohmann16json_abi_v3_11_210basic_jsonINSt3__13mapENS2_6vectorENS2_12basic_stringIcNS2_11char_traitsIcEENS2_9allocatorIcEEEEbxydS8_NS0_14adl_serializerENS4_IhNS8_IhEEEEE4dumpEicbNS0_6detail15error_handler_tE, symObjAddr: 0x1704, symBinAddr: 0x1000097F8, symSize: 0x1F4 }
  - { offsetInCU: 0x63012, offset: 0x63012, size: 0x8, addend: 0x0, symName: __ZNSt3__16vectorIN8nlohmann16json_abi_v3_11_210basic_jsonINS_3mapES0_NS_12basic_stringIcNS_11char_traitsIcEENS_9allocatorIcEEEEbxydS8_NS2_14adl_serializerENS0_IhNS8_IhEEEEEENS8_ISE_EEE9push_backB7v160006ERKSE_, symObjAddr: 0x18F8, symBinAddr: 0x1000099EC, symSize: 0x6C }
  - { offsetInCU: 0x6304F, offset: 0x6304F, size: 0x8, addend: 0x0, symName: __ZNSt3__119basic_istringstreamIcNS_11char_traitsIcEENS_9allocatorIcEEED1Ev, symObjAddr: 0x1964, symBinAddr: 0x100009A58, symSize: 0x40 }
  - { offsetInCU: 0x63082, offset: 0x63082, size: 0x8, addend: 0x0, symName: __ZNSt3__119basic_ostringstreamIcNS_11char_traitsIcEENS_9allocatorIcEEED1Ev, symObjAddr: 0x19A4, symBinAddr: 0x100009A98, symSize: 0x40 }
  - { offsetInCU: 0x630B5, offset: 0x630B5, size: 0x8, addend: 0x0, symName: __ZNSt3__114basic_ifstreamIcNS_11char_traitsIcEEED1Ev, symObjAddr: 0x19E4, symBinAddr: 0x100009AD8, symSize: 0x40 }
  - { offsetInCU: 0x630E2, offset: 0x630E2, size: 0x8, addend: 0x0, symName: __ZN7Cabbage21getNumberOfParametersERKNSt3__112basic_stringIcNS0_11char_traitsIcEENS0_9allocatorIcEEEE, symObjAddr: 0x1A24, symBinAddr: 0x100009B18, symSize: 0x148 }
  - { offsetInCU: 0x63166, offset: 0x63166, size: 0x8, addend: 0x0, symName: __ZNSt3__16vectorIN8nlohmann16json_abi_v3_11_210basic_jsonINS_3mapES0_NS_12basic_stringIcNS_11char_traitsIcEENS_9allocatorIcEEEEbxydS8_NS2_14adl_serializerENS0_IhNS8_IhEEEEEENS8_ISE_EEE5beginB7v160006Ev, symObjAddr: 0x1B6C, symBinAddr: 0x100009C60, symSize: 0x30 }
  - { offsetInCU: 0x6318E, offset: 0x6318E, size: 0x8, addend: 0x0, symName: __ZNSt3__16vectorIN8nlohmann16json_abi_v3_11_210basic_jsonINS_3mapES0_NS_12basic_stringIcNS_11char_traitsIcEENS_9allocatorIcEEEEbxydS8_NS2_14adl_serializerENS0_IhNS8_IhEEEEEENS8_ISE_EEE3endB7v160006Ev, symObjAddr: 0x1B9C, symBinAddr: 0x100009C90, symSize: 0x30 }
  - { offsetInCU: 0x631B6, offset: 0x631B6, size: 0x8, addend: 0x0, symName: __ZNKSt3__111__wrap_iterIPN8nlohmann16json_abi_v3_11_210basic_jsonINS_3mapENS_6vectorENS_12basic_stringIcNS_11char_traitsIcEENS_9allocatorIcEEEEbxydS9_NS2_14adl_serializerENS5_IhNS9_IhEEEEEEEdeB7v160006Ev, symObjAddr: 0x1C00, symBinAddr: 0x100009CF4, symSize: 0x18 }
  - { offsetInCU: 0x631F5, offset: 0x631F5, size: 0x8, addend: 0x0, symName: __ZNK8nlohmann16json_abi_v3_11_210basic_jsonINSt3__13mapENS2_6vectorENS2_12basic_stringIcNS2_11char_traitsIcEENS2_9allocatorIcEEEEbxydS8_NS0_14adl_serializerENS4_IhNS8_IhEEEEE8containsIRA12_KcLi0EEEbOT_, symObjAddr: 0x1C18, symBinAddr: 0x100009D0C, symSize: 0x88 }
  - { offsetInCU: 0x63239, offset: 0x63239, size: 0x8, addend: 0x0, symName: __ZN8nlohmann16json_abi_v3_11_210basic_jsonINSt3__13mapENS2_6vectorENS2_12basic_stringIcNS2_11char_traitsIcEENS2_9allocatorIcEEEEbxydS8_NS0_14adl_serializerENS4_IhNS8_IhEEEEEixIKcEERSE_PT_, symObjAddr: 0x1D00, symBinAddr: 0x100009DF4, symSize: 0x78 }
  - { offsetInCU: 0x63277, offset: 0x63277, size: 0x8, addend: 0x0, symName: __ZNSt3__111__wrap_iterIPN8nlohmann16json_abi_v3_11_210basic_jsonINS_3mapENS_6vectorENS_12basic_stringIcNS_11char_traitsIcEENS_9allocatorIcEEEEbxydS9_NS2_14adl_serializerENS5_IhNS9_IhEEEEEEEppB7v160006Ev, symObjAddr: 0x1D78, symBinAddr: 0x100009E6C, symSize: 0x20 }
  - { offsetInCU: 0x6329D, offset: 0x6329D, size: 0x8, addend: 0x0, symName: __ZN7Cabbage12tokeniseLineERKNSt3__112basic_stringIcNS0_11char_traitsIcEENS0_9allocatorIcEEEE, symObjAddr: 0x1D98, symBinAddr: 0x100009E8C, symSize: 0x5DC }
  - { offsetInCU: 0x633AF, offset: 0x633AF, size: 0x8, addend: 0x0, symName: __ZNKSt3__16vectorIN7Cabbage10IdentifierENS_9allocatorIS2_EEE4sizeB7v160006Ev, symObjAddr: 0x2374, symBinAddr: 0x10000A468, symSize: 0x28 }
  - { offsetInCU: 0x633D5, offset: 0x633D5, size: 0x8, addend: 0x0, symName: __ZNSt3__16vectorIN7Cabbage10IdentifierENS_9allocatorIS2_EEEixB7v160006Em, symObjAddr: 0x239C, symBinAddr: 0x10000A490, symSize: 0x2C }
  - { offsetInCU: 0x6340C, offset: 0x6340C, size: 0x8, addend: 0x0, symName: __ZNKSt3__16vectorIdNS_9allocatorIdEEE4sizeB7v160006Ev, symObjAddr: 0x23C8, symBinAddr: 0x10000A4BC, symSize: 0x28 }
  - { offsetInCU: 0x63432, offset: 0x63432, size: 0x8, addend: 0x0, symName: __ZNSt3__16vectorIdNS_9allocatorIdEEEixB7v160006Em, symObjAddr: 0x23F0, symBinAddr: 0x10000A4E4, symSize: 0x24 }
  - { offsetInCU: 0x63469, offset: 0x63469, size: 0x8, addend: 0x0, symName: __ZN8nlohmann16json_abi_v3_11_210basic_jsonINSt3__13mapENS2_6vectorENS2_12basic_stringIcNS2_11char_traitsIcEENS2_9allocatorIcEEEEbxydS8_NS0_14adl_serializerENS4_IhNS8_IhEEEEEC1IRiiLi0EEEOT_, symObjAddr: 0x2414, symBinAddr: 0x10000A508, symSize: 0x34 }
  - { offsetInCU: 0x634BA, offset: 0x634BA, size: 0x8, addend: 0x0, symName: __ZNSt3__113basic_ostreamIcNS_11char_traitsIcEEElsB7v160006EPFRS3_S4_E, symObjAddr: 0x2490, symBinAddr: 0x10000A584, symSize: 0x2C }
  - { offsetInCU: 0x634EE, offset: 0x634EE, size: 0x8, addend: 0x0, symName: __ZNSt3__16vectorINS_12basic_stringIcNS_11char_traitsIcEENS_9allocatorIcEEEENS4_IS6_EEEixB7v160006Em, symObjAddr: 0x2514, symBinAddr: 0x10000A608, symSize: 0x2C }
  - { offsetInCU: 0x63525, offset: 0x63525, size: 0x8, addend: 0x0, symName: __ZN8nlohmann16json_abi_v3_11_210basic_jsonINSt3__13mapENS2_6vectorENS2_12basic_stringIcNS2_11char_traitsIcEENS2_9allocatorIcEEEEbxydS8_NS0_14adl_serializerENS4_IhNS8_IhEEEEEC1IRSA_SA_Li0EEEOT_, symObjAddr: 0x2540, symBinAddr: 0x10000A634, symSize: 0x34 }
  - { offsetInCU: 0x63576, offset: 0x63576, size: 0x8, addend: 0x0, symName: __ZN8nlohmann16json_abi_v3_11_210basic_jsonINSt3__13mapENS2_6vectorENS2_12basic_stringIcNS2_11char_traitsIcEENS2_9allocatorIcEEEEbxydS8_NS0_14adl_serializerENS4_IhNS8_IhEEEEEC1IRddLi0EEEOT_, symObjAddr: 0x2574, symBinAddr: 0x10000A668, symSize: 0x34 }
  - { offsetInCU: 0x635C7, offset: 0x635C7, size: 0x8, addend: 0x0, symName: __ZNSt3__16vectorIN7Cabbage10IdentifierENS_9allocatorIS2_EEED1B7v160006Ev, symObjAddr: 0x25A8, symBinAddr: 0x10000A69C, symSize: 0x2C }
  - { offsetInCU: 0x635F1, offset: 0x635F1, size: 0x8, addend: 0x0, symName: __ZNSt3__16vectorIN7Cabbage10IdentifierENS_9allocatorIS2_EEEC1B7v160006Ev, symObjAddr: 0x25D4, symBinAddr: 0x10000A6C8, symSize: 0x2C }
  - { offsetInCU: 0x6361B, offset: 0x6361B, size: 0x8, addend: 0x0, symName: __ZNSt3__111basic_regexIcNS_12regex_traitsIcEEEC1B7v160006EPKcNS_15regex_constants18syntax_option_typeE, symObjAddr: 0x2600, symBinAddr: 0x10000A6F4, symSize: 0x3C }
  - { offsetInCU: 0x6369B, offset: 0x6369B, size: 0x8, addend: 0x0, symName: __ZNSt3__113match_resultsINS_11__wrap_iterIPKcEENS_9allocatorINS_9sub_matchIS4_EEEEEC1Ev, symObjAddr: 0x263C, symBinAddr: 0x10000A730, symSize: 0x40 }
  - { offsetInCU: 0x636C5, offset: 0x636C5, size: 0x8, addend: 0x0, symName: __ZNKSt3__112basic_stringIcNS_11char_traitsIcEENS_9allocatorIcEEE6cbeginB7v160006Ev, symObjAddr: 0x267C, symBinAddr: 0x10000A770, symSize: 0x2C }
  - { offsetInCU: 0x636EB, offset: 0x636EB, size: 0x8, addend: 0x0, symName: __ZNKSt3__112basic_stringIcNS_11char_traitsIcEENS_9allocatorIcEEE4cendB7v160006Ev, symObjAddr: 0x27CC, symBinAddr: 0x10000A8C0, symSize: 0x2C }
  - { offsetInCU: 0x63717, offset: 0x63717, size: 0x8, addend: 0x0, symName: __ZN7Cabbage10IdentifierC1Ev, symObjAddr: 0x27F8, symBinAddr: 0x10000A8EC, symSize: 0x2C }
  - { offsetInCU: 0x63743, offset: 0x63743, size: 0x8, addend: 0x0, symName: __ZNKSt3__113match_resultsINS_11__wrap_iterIPKcEENS_9allocatorINS_9sub_matchIS4_EEEEEixB7v160006Em, symObjAddr: 0x2824, symBinAddr: 0x10000A918, symSize: 0x70 }
  - { offsetInCU: 0x63778, offset: 0x63778, size: 0x8, addend: 0x0, symName: __ZNKSt3__19sub_matchINS_11__wrap_iterIPKcEEE3strB7v160006Ev, symObjAddr: 0x2894, symBinAddr: 0x10000A988, symSize: 0x6C }
  - { offsetInCU: 0x6379E, offset: 0x6379E, size: 0x8, addend: 0x0, symName: __ZNSt3__112basic_stringIcNS_11char_traitsIcEENS_9allocatorIcEEEaSB7v160006EOS5_, symObjAddr: 0x2900, symBinAddr: 0x10000A9F4, symSize: 0x34 }
  - { offsetInCU: 0x637D3, offset: 0x637D3, size: 0x8, addend: 0x0, symName: __ZNSt3__112basic_stringIcNS_11char_traitsIcEENS_9allocatorIcEEE5beginB7v160006Ev, symObjAddr: 0x2934, symBinAddr: 0x10000AA28, symSize: 0x4C }
  - { offsetInCU: 0x63805, offset: 0x63805, size: 0x8, addend: 0x0, symName: __ZNSt3__111__wrap_iterIPKcEC1B7v160006IPcEERKNS0_IT_EEPNS_9enable_ifIXsr14is_convertibleIS6_S2_EE5valueEvE4typeE, symObjAddr: 0x2980, symBinAddr: 0x10000AA74, symSize: 0x3C }
  - { offsetInCU: 0x63851, offset: 0x63851, size: 0x8, addend: 0x0, symName: __ZNSt3__112basic_stringIcNS_11char_traitsIcEENS_9allocatorIcEEE3endB7v160006Ev, symObjAddr: 0x29BC, symBinAddr: 0x10000AAB0, symSize: 0x54 }
  - { offsetInCU: 0x638BC, offset: 0x638BC, size: 0x8, addend: 0x0, symName: __ZNSt3__114regex_iteratorINS_11__wrap_iterIPKcEEcNS_12regex_traitsIcEEEC1ES4_S4_RKNS_11basic_regexIcS6_EENS_15regex_constants15match_flag_typeE, symObjAddr: 0x2A10, symBinAddr: 0x10000AB04, symSize: 0x4C }
  - { offsetInCU: 0x63924, offset: 0x63924, size: 0x8, addend: 0x0, symName: __ZNSt3__114regex_iteratorINS_11__wrap_iterIPKcEEcNS_12regex_traitsIcEEEC1Ev, symObjAddr: 0x2A5C, symBinAddr: 0x10000AB50, symSize: 0x2C }
  - { offsetInCU: 0x63950, offset: 0x63950, size: 0x8, addend: 0x0, symName: __ZNKSt3__114regex_iteratorINS_11__wrap_iterIPKcEEcNS_12regex_traitsIcEEEneB7v160006ERKS7_, symObjAddr: 0x2A88, symBinAddr: 0x10000AB7C, symSize: 0x34 }
  - { offsetInCU: 0x63985, offset: 0x63985, size: 0x8, addend: 0x0, symName: __ZNSt3__16vectorIdNS_9allocatorIdEEE9push_backB7v160006EOd, symObjAddr: 0x2ABC, symBinAddr: 0x10000ABB0, symSize: 0x6C }
  - { offsetInCU: 0x639BC, offset: 0x639BC, size: 0x8, addend: 0x0, symName: __ZNKSt3__114regex_iteratorINS_11__wrap_iterIPKcEEcNS_12regex_traitsIcEEEptB7v160006Ev, symObjAddr: 0x2B28, symBinAddr: 0x10000AC1C, symSize: 0x18 }
  - { offsetInCU: 0x639E2, offset: 0x639E2, size: 0x8, addend: 0x0, symName: __ZNKSt3__113match_resultsINS_11__wrap_iterIPKcEENS_9allocatorINS_9sub_matchIS4_EEEEE3strB7v160006Em, symObjAddr: 0x2B40, symBinAddr: 0x10000AC34, symSize: 0x3C }
  - { offsetInCU: 0x63A17, offset: 0x63A17, size: 0x8, addend: 0x0, symName: __ZNSt3__114regex_iteratorINS_11__wrap_iterIPKcEEcNS_12regex_traitsIcEEEppEv, symObjAddr: 0x2B7C, symBinAddr: 0x10000AC70, symSize: 0x1CC }
  - { offsetInCU: 0x63A54, offset: 0x63A54, size: 0x8, addend: 0x0, symName: __ZN7Cabbage14StringArgumentC1Ev, symObjAddr: 0x2D48, symBinAddr: 0x10000AE3C, symSize: 0x2C }
  - { offsetInCU: 0x63A80, offset: 0x63A80, size: 0x8, addend: 0x0, symName: __ZNSt3__16vectorINS_12basic_stringIcNS_11char_traitsIcEENS_9allocatorIcEEEENS4_IS6_EEE9push_backB7v160006ERKS6_, symObjAddr: 0x3090, symBinAddr: 0x10000B184, symSize: 0x6C }
  - { offsetInCU: 0x63AB7, offset: 0x63AB7, size: 0x8, addend: 0x0, symName: __ZN7Cabbage14StringArgumentD1Ev, symObjAddr: 0x30FC, symBinAddr: 0x10000B1F0, symSize: 0x2C }
  - { offsetInCU: 0x63AE3, offset: 0x63AE3, size: 0x8, addend: 0x0, symName: __ZNSt3__16vectorIN7Cabbage10IdentifierENS_9allocatorIS2_EEE9push_backB7v160006ERKS2_, symObjAddr: 0x3128, symBinAddr: 0x10000B21C, symSize: 0x6C }
  - { offsetInCU: 0x63B1A, offset: 0x63B1A, size: 0x8, addend: 0x0, symName: __ZNKSt3__113match_resultsINS_11__wrap_iterIPKcEENS_9allocatorINS_9sub_matchIS4_EEEEE6suffixB7v160006Ev, symObjAddr: 0x3194, symBinAddr: 0x10000B288, symSize: 0x18 }
  - { offsetInCU: 0x63B46, offset: 0x63B46, size: 0x8, addend: 0x0, symName: __ZNSt3__114regex_iteratorINS_11__wrap_iterIPKcEEcNS_12regex_traitsIcEEED1Ev, symObjAddr: 0x31AC, symBinAddr: 0x10000B2A0, symSize: 0x2C }
  - { offsetInCU: 0x63B73, offset: 0x63B73, size: 0x8, addend: 0x0, symName: __ZN7Cabbage10IdentifierD1Ev, symObjAddr: 0x31D8, symBinAddr: 0x10000B2CC, symSize: 0x2C }
  - { offsetInCU: 0x63BA5, offset: 0x63BA5, size: 0x8, addend: 0x0, symName: __ZNSt3__113match_resultsINS_11__wrap_iterIPKcEENS_9allocatorINS_9sub_matchIS4_EEEEED1Ev, symObjAddr: 0x3204, symBinAddr: 0x10000B2F8, symSize: 0x2C }
  - { offsetInCU: 0x63BD8, offset: 0x63BD8, size: 0x8, addend: 0x0, symName: __ZNSt3__111basic_regexIcNS_12regex_traitsIcEEED1Ev, symObjAddr: 0x3230, symBinAddr: 0x10000B324, symSize: 0x2C }
  - { offsetInCU: 0x63C05, offset: 0x63C05, size: 0x8, addend: 0x0, symName: __ZNSt3__113basic_istreamIcNS_11char_traitsIcEEErsB7v160006EPFRS3_S4_E, symObjAddr: 0x325C, symBinAddr: 0x10000B350, symSize: 0x2C }
  - { offsetInCU: 0x63C39, offset: 0x63C39, size: 0x8, addend: 0x0, symName: __ZN7Cabbage11setupCsoundEv, symObjAddr: 0x34C0, symBinAddr: 0x10000B5B4, symSize: 0x9BC }
  - { offsetInCU: 0x63CDA, offset: 0x63CDA, size: 0x8, addend: 0x0, symName: __ZNSt3__110unique_ptrI6CsoundNS_14default_deleteIS1_EEEaSB7v160006EOS4_, symObjAddr: 0x3EE0, symBinAddr: 0x10000BFD4, symSize: 0x50 }
  - { offsetInCU: 0x63D0E, offset: 0x63D0E, size: 0x8, addend: 0x0, symName: __ZNKSt3__110unique_ptrI6CsoundNS_14default_deleteIS1_EEEptB7v160006Ev, symObjAddr: 0x3F30, symBinAddr: 0x10000C024, symSize: 0x28 }
  - { offsetInCU: 0x63D34, offset: 0x63D34, size: 0x8, addend: 0x0, symName: __ZNSt3__110unique_ptrI13CSOUND_PARAMSNS_14default_deleteIS1_EEEaSB7v160006EOS4_, symObjAddr: 0x3FA0, symBinAddr: 0x10000C094, symSize: 0x50 }
  - { offsetInCU: 0x63D68, offset: 0x63D68, size: 0x8, addend: 0x0, symName: __ZNKSt3__110unique_ptrI13CSOUND_PARAMSNS_14default_deleteIS1_EEEptB7v160006Ev, symObjAddr: 0x3FF0, symBinAddr: 0x10000C0E4, symSize: 0x28 }
  - { offsetInCU: 0x63D8E, offset: 0x63D8E, size: 0x8, addend: 0x0, symName: __ZNKSt3__110unique_ptrI13CSOUND_PARAMSNS_14default_deleteIS1_EEE3getB7v160006Ev, symObjAddr: 0x4018, symBinAddr: 0x10000C10C, symSize: 0x28 }
  - { offsetInCU: 0x63DB4, offset: 0x63DB4, size: 0x8, addend: 0x0, symName: __ZNSt3__14__fs10filesystem4pathC1B7v160006INS_12basic_stringIcNS_11char_traitsIcEENS_9allocatorIcEEEEvEERKT_NS2_6formatE, symObjAddr: 0x4040, symBinAddr: 0x10000C134, symSize: 0x3C }
  - { offsetInCU: 0x63E03, offset: 0x63E03, size: 0x8, addend: 0x0, symName: __ZNKSt3__14__fs10filesystem4path11parent_pathB7v160006Ev, symObjAddr: 0x40CC, symBinAddr: 0x10000C1C0, symSize: 0x60 }
  - { offsetInCU: 0x63E29, offset: 0x63E29, size: 0x8, addend: 0x0, symName: __ZNSt3__14__fs10filesystem4pathD1B7v160006Ev, symObjAddr: 0x412C, symBinAddr: 0x10000C220, symSize: 0x2C }
  - { offsetInCU: 0x63E53, offset: 0x63E53, size: 0x8, addend: 0x0, symName: __ZNKSt3__112basic_stringIcNS_11char_traitsIcEENS_9allocatorIcEEE5c_strB7v160006Ev, symObjAddr: 0x4158, symBinAddr: 0x10000C24C, symSize: 0x24 }
  - { offsetInCU: 0x63E79, offset: 0x63E79, size: 0x8, addend: 0x0, symName: __ZN7Cabbage23csdCompiledWithoutErrorEv, symObjAddr: 0x417C, symBinAddr: 0x10000C270, symSize: 0x34 }
  - { offsetInCU: 0x63EA5, offset: 0x63EA5, size: 0x8, addend: 0x0, symName: __ZNSt3__112basic_stringIcNS_11char_traitsIcEENS_9allocatorIcEEEC1B7v160006IDnEEPKc, symObjAddr: 0x41B0, symBinAddr: 0x10000C2A4, symSize: 0x34 }
  - { offsetInCU: 0x63EE3, offset: 0x63EE3, size: 0x8, addend: 0x0, symName: __ZNSt3__16vectorIN8nlohmann16json_abi_v3_11_210basic_jsonINS_3mapES0_NS_12basic_stringIcNS_11char_traitsIcEENS_9allocatorIcEEEEbxydS8_NS2_14adl_serializerENS0_IhNS8_IhEEEEEENS8_ISE_EEEaSB7v160006EOSG_, symObjAddr: 0x41E4, symBinAddr: 0x10000C2D8, symSize: 0x34 }
  - { offsetInCU: 0x63F1A, offset: 0x63F1A, size: 0x8, addend: 0x0, symName: __ZN5iplug15IEditorDelegate8GetParamEi, symObjAddr: 0x4280, symBinAddr: 0x10000C374, symSize: 0x30 }
  - { offsetInCU: 0x63F4E, offset: 0x63F4E, size: 0x8, addend: 0x0, symName: __ZNK8nlohmann16json_abi_v3_11_210basic_jsonINSt3__13mapENS2_6vectorENS2_12basic_stringIcNS2_11char_traitsIcEENS2_9allocatorIcEEEEbxydS8_NS0_14adl_serializerENS4_IhNS8_IhEEEEE3getISA_SA_EEDTcldtclL_ZNS2_7declvalIRKSE_EEDTclsr3stdE9__declvalIT_ELi0EEEvEE8get_implIT0_EtlNS0_6detail12priority_tagILj4EEEEEEv, symObjAddr: 0x42B0, symBinAddr: 0x10000C3A4, symSize: 0x2C }
  - { offsetInCU: 0x63F86, offset: 0x63F86, size: 0x8, addend: 0x0, symName: __ZNK8nlohmann16json_abi_v3_11_210basic_jsonINSt3__13mapENS2_6vectorENS2_12basic_stringIcNS2_11char_traitsIcEENS2_9allocatorIcEEEEbxydS8_NS0_14adl_serializerENS4_IhNS8_IhEEEEE3getIffEEDTcldtclL_ZNS2_7declvalIRKSE_EEDTclsr3stdE9__declvalIT_ELi0EEEvEE8get_implIT0_EtlNS0_6detail12priority_tagILj4EEEEEEv, symObjAddr: 0x42DC, symBinAddr: 0x10000C3D0, symSize: 0x24 }
  - { offsetInCU: 0x63FBE, offset: 0x63FBE, size: 0x8, addend: 0x0, symName: __ZNSt3__18functionIFvdR10WDL_StringEEC1B7v160006EDn, symObjAddr: 0x4340, symBinAddr: 0x10000C434, symSize: 0x34 }
  - { offsetInCU: 0x63FF4, offset: 0x63FF4, size: 0x8, addend: 0x0, symName: __ZNSt3__18functionIFvdR10WDL_StringEED1Ev, symObjAddr: 0x4374, symBinAddr: 0x10000C468, symSize: 0x2C }
  - { offsetInCU: 0x64020, offset: 0x64020, size: 0x8, addend: 0x0, symName: __ZN5iplug6IParam13ShapePowCurveD1Ev, symObjAddr: 0x43A0, symBinAddr: 0x10000C494, symSize: 0x2C }
  - { offsetInCU: 0x6404C, offset: 0x6404C, size: 0x8, addend: 0x0, symName: __ZNSt3__16vectorINS_12basic_stringIcNS_11char_traitsIcEENS_9allocatorIcEEEENS4_IS6_EEE9push_backB7v160006EOS6_, symObjAddr: 0x43CC, symBinAddr: 0x10000C4C0, symSize: 0x6C }
  - { offsetInCU: 0x64486, offset: 0x64486, size: 0x8, addend: 0x0, symName: __ZN13CabbageParser12removeQuotesERKNSt3__112basic_stringIcNS0_11char_traitsIcEENS0_9allocatorIcEEEE, symObjAddr: 0x4438, symBinAddr: 0x10000C52C, symSize: 0x11C }
  - { offsetInCU: 0x644D7, offset: 0x644D7, size: 0x8, addend: 0x0, symName: __ZNSt3__110unique_ptrI13CSOUND_PARAMSNS_14default_deleteIS1_EEEC2B7v160006ILb1EvEEv, symObjAddr: 0x4554, symBinAddr: 0x10000C648, symSize: 0x3C }
  - { offsetInCU: 0x64512, offset: 0x64512, size: 0x8, addend: 0x0, symName: __ZNSt3__117__compressed_pairIP13CSOUND_PARAMSNS_14default_deleteIS1_EEEC1B7v160006INS_16__value_init_tagES7_EEOT_OT0_, symObjAddr: 0x4590, symBinAddr: 0x10000C684, symSize: 0x3C }
  - { offsetInCU: 0x6456A, offset: 0x6456A, size: 0x8, addend: 0x0, symName: __ZNSt3__117__compressed_pairIP13CSOUND_PARAMSNS_14default_deleteIS1_EEEC2B7v160006INS_16__value_init_tagES7_EEOT_OT0_, symObjAddr: 0x45D8, symBinAddr: 0x10000C6CC, symSize: 0x3C }
  - { offsetInCU: 0x645C2, offset: 0x645C2, size: 0x8, addend: 0x0, symName: __ZNSt3__122__compressed_pair_elemIP13CSOUND_PARAMSLi0ELb0EEC2B7v160006ENS_16__value_init_tagE, symObjAddr: 0x4614, symBinAddr: 0x10000C708, symSize: 0x18 }
  - { offsetInCU: 0x645F7, offset: 0x645F7, size: 0x8, addend: 0x0, symName: __ZNSt3__122__compressed_pair_elemINS_14default_deleteI13CSOUND_PARAMSEELi1ELb1EEC2B7v160006ENS_16__value_init_tagE, symObjAddr: 0x462C, symBinAddr: 0x10000C720, symSize: 0x14 }
  - { offsetInCU: 0x6462C, offset: 0x6462C, size: 0x8, addend: 0x0, symName: __ZNSt3__110unique_ptrI6CsoundNS_14default_deleteIS1_EEEC2B7v160006ILb1EvEEv, symObjAddr: 0x4640, symBinAddr: 0x10000C734, symSize: 0x3C }
  - { offsetInCU: 0x64661, offset: 0x64661, size: 0x8, addend: 0x0, symName: __ZNSt3__117__compressed_pairIP6CsoundNS_14default_deleteIS1_EEEC1B7v160006INS_16__value_init_tagES7_EEOT_OT0_, symObjAddr: 0x467C, symBinAddr: 0x10000C770, symSize: 0x3C }
  - { offsetInCU: 0x646B9, offset: 0x646B9, size: 0x8, addend: 0x0, symName: __ZNSt3__117__compressed_pairIP6CsoundNS_14default_deleteIS1_EEEC2B7v160006INS_16__value_init_tagES7_EEOT_OT0_, symObjAddr: 0x46B8, symBinAddr: 0x10000C7AC, symSize: 0x3C }
  - { offsetInCU: 0x64711, offset: 0x64711, size: 0x8, addend: 0x0, symName: __ZNSt3__122__compressed_pair_elemIP6CsoundLi0ELb0EEC2B7v160006ENS_16__value_init_tagE, symObjAddr: 0x46F4, symBinAddr: 0x10000C7E8, symSize: 0x18 }
  - { offsetInCU: 0x64746, offset: 0x64746, size: 0x8, addend: 0x0, symName: __ZNSt3__122__compressed_pair_elemINS_14default_deleteI6CsoundEELi1ELb1EEC2B7v160006ENS_16__value_init_tagE, symObjAddr: 0x470C, symBinAddr: 0x10000C800, symSize: 0x14 }
  - { offsetInCU: 0x6477B, offset: 0x6477B, size: 0x8, addend: 0x0, symName: __ZN8nlohmann16json_abi_v3_11_210basic_jsonINSt3__13mapENS2_6vectorENS2_12basic_stringIcNS2_11char_traitsIcEENS2_9allocatorIcEEEEbxydS8_NS0_14adl_serializerENS4_IhNS8_IhEEEEE5parseIRSA_EESE_OT_NS2_8functionIFbiNS0_6detail13parse_event_tERSE_EEEbb, symObjAddr: 0x4720, symBinAddr: 0x10000C814, symSize: 0x1A4 }
  - { offsetInCU: 0x647EB, offset: 0x647EB, size: 0x8, addend: 0x0, symName: __ZNSt3__18functionIFbiN8nlohmann16json_abi_v3_11_26detail13parse_event_tERNS2_10basic_jsonINS_3mapENS_6vectorENS_12basic_stringIcNS_11char_traitsIcEENS_9allocatorIcEEEEbxydSB_NS2_14adl_serializerENS7_IhNSB_IhEEEEEEEEC1B7v160006EDn, symObjAddr: 0x48C4, symBinAddr: 0x10000C9B8, symSize: 0x34 }
  - { offsetInCU: 0x64821, offset: 0x64821, size: 0x8, addend: 0x0, symName: __ZNSt3__18functionIFbiN8nlohmann16json_abi_v3_11_26detail13parse_event_tERNS2_10basic_jsonINS_3mapENS_6vectorENS_12basic_stringIcNS_11char_traitsIcEENS_9allocatorIcEEEEbxydSB_NS2_14adl_serializerENS7_IhNSB_IhEEEEEEEED1Ev, symObjAddr: 0x48F8, symBinAddr: 0x10000C9EC, symSize: 0x2C }
  - { offsetInCU: 0x6485D, offset: 0x6485D, size: 0x8, addend: 0x0, symName: __ZN8nlohmann16json_abi_v3_11_210basic_jsonINSt3__13mapENS2_6vectorENS2_12basic_stringIcNS2_11char_traitsIcEENS2_9allocatorIcEEEEbxydS8_NS0_14adl_serializerENS4_IhNS8_IhEEEEE6parserINS0_6detail22iterator_input_adapterINS2_11__wrap_iterIPKcEEEEEENSG_6parserISE_T_EESO_NS2_8functionIFbiNSG_13parse_event_tERSE_EEEbb, symObjAddr: 0x4924, symBinAddr: 0x10000CA18, symSize: 0xE4 }
  - { offsetInCU: 0x648B9, offset: 0x648B9, size: 0x8, addend: 0x0, symName: __ZNSt3__18functionIFbiN8nlohmann16json_abi_v3_11_26detail13parse_event_tERNS2_10basic_jsonINS_3mapENS_6vectorENS_12basic_stringIcNS_11char_traitsIcEENS_9allocatorIcEEEEbxydSB_NS2_14adl_serializerENS7_IhNSB_IhEEEEEEEEC1ERKSK_, symObjAddr: 0x4A3C, symBinAddr: 0x10000CB30, symSize: 0x34 }
  - { offsetInCU: 0x648F4, offset: 0x648F4, size: 0x8, addend: 0x0, symName: __ZN8nlohmann16json_abi_v3_11_26detail6parserINS0_10basic_jsonINSt3__13mapENS4_6vectorENS4_12basic_stringIcNS4_11char_traitsIcEENS4_9allocatorIcEEEEbxydSA_NS0_14adl_serializerENS6_IhNSA_IhEEEEEENS1_22iterator_input_adapterINS4_11__wrap_iterIPKcEEEEE5parseEbRSG_, symObjAddr: 0x4A70, symBinAddr: 0x10000CB64, symSize: 0x564 }
  - { offsetInCU: 0x6496F, offset: 0x6496F, size: 0x8, addend: 0x0, symName: __ZN8nlohmann16json_abi_v3_11_26detail6parserINS0_10basic_jsonINSt3__13mapENS4_6vectorENS4_12basic_stringIcNS4_11char_traitsIcEENS4_9allocatorIcEEEEbxydSA_NS0_14adl_serializerENS6_IhNSA_IhEEEEEENS1_22iterator_input_adapterINS4_11__wrap_iterIPKcEEEEED1Ev, symObjAddr: 0x4FD4, symBinAddr: 0x10000D0C8, symSize: 0x2C }
  - { offsetInCU: 0x6499C, offset: 0x6499C, size: 0x8, addend: 0x0, symName: __ZNSt3__18functionIFbiN8nlohmann16json_abi_v3_11_26detail13parse_event_tERNS2_10basic_jsonINS_3mapENS_6vectorENS_12basic_stringIcNS_11char_traitsIcEENS_9allocatorIcEEEEbxydSB_NS2_14adl_serializerENS7_IhNSB_IhEEEEEEEEC1EOSK_, symObjAddr: 0x5000, symBinAddr: 0x10000D0F4, symSize: 0x34 }
  - { offsetInCU: 0x649D7, offset: 0x649D7, size: 0x8, addend: 0x0, symName: __ZN8nlohmann16json_abi_v3_11_26detail6parserINS0_10basic_jsonINSt3__13mapENS4_6vectorENS4_12basic_stringIcNS4_11char_traitsIcEENS4_9allocatorIcEEEEbxydSA_NS0_14adl_serializerENS6_IhNSA_IhEEEEEENS1_22iterator_input_adapterINS4_11__wrap_iterIPKcEEEEEC1EOSM_NS4_8functionIFbiNS1_13parse_event_tERSG_EEEbb, symObjAddr: 0x5034, symBinAddr: 0x10000D128, symSize: 0x60 }
  - { offsetInCU: 0x64A3E, offset: 0x64A3E, size: 0x8, addend: 0x0, symName: __ZNSt3__18functionIFbiN8nlohmann16json_abi_v3_11_26detail13parse_event_tERNS2_10basic_jsonINS_3mapENS_6vectorENS_12basic_stringIcNS_11char_traitsIcEENS_9allocatorIcEEEEbxydSB_NS2_14adl_serializerENS7_IhNSB_IhEEEEEEEEC2EOSK_, symObjAddr: 0x5094, symBinAddr: 0x10000D188, symSize: 0x34 }
  - { offsetInCU: 0x64A79, offset: 0x64A79, size: 0x8, addend: 0x0, symName: __ZNSt3__110__function12__value_funcIFbiN8nlohmann16json_abi_v3_11_26detail13parse_event_tERNS3_10basic_jsonINS_3mapENS_6vectorENS_12basic_stringIcNS_11char_traitsIcEENS_9allocatorIcEEEEbxydSC_NS3_14adl_serializerENS8_IhNSC_IhEEEEEEEEC1B7v160006EOSL_, symObjAddr: 0x50C8, symBinAddr: 0x10000D1BC, symSize: 0x34 }
  - { offsetInCU: 0x64AB2, offset: 0x64AB2, size: 0x8, addend: 0x0, symName: __ZNSt3__110__function12__value_funcIFbiN8nlohmann16json_abi_v3_11_26detail13parse_event_tERNS3_10basic_jsonINS_3mapENS_6vectorENS_12basic_stringIcNS_11char_traitsIcEENS_9allocatorIcEEEEbxydSC_NS3_14adl_serializerENS8_IhNSC_IhEEEEEEEEC2B7v160006EOSL_, symObjAddr: 0x50FC, symBinAddr: 0x10000D1F0, symSize: 0xD0 }
  - { offsetInCU: 0x64AEB, offset: 0x64AEB, size: 0x8, addend: 0x0, symName: __ZNSt3__110__function12__value_funcIFbiN8nlohmann16json_abi_v3_11_26detail13parse_event_tERNS3_10basic_jsonINS_3mapENS_6vectorENS_12basic_stringIcNS_11char_traitsIcEENS_9allocatorIcEEEEbxydSC_NS3_14adl_serializerENS8_IhNSC_IhEEEEEEEE9__as_baseEPv, symObjAddr: 0x51CC, symBinAddr: 0x10000D2C0, symSize: 0x14 }
  - { offsetInCU: 0x64B0F, offset: 0x64B0F, size: 0x8, addend: 0x0, symName: __ZN8nlohmann16json_abi_v3_11_26detail6parserINS0_10basic_jsonINSt3__13mapENS4_6vectorENS4_12basic_stringIcNS4_11char_traitsIcEENS4_9allocatorIcEEEEbxydSA_NS0_14adl_serializerENS6_IhNSA_IhEEEEEENS1_22iterator_input_adapterINS4_11__wrap_iterIPKcEEEEEC2EOSM_NS4_8functionIFbiNS1_13parse_event_tERSG_EEEbb, symObjAddr: 0x51E0, symBinAddr: 0x10000D2D4, symSize: 0xC0 }
  - { offsetInCU: 0x64B76, offset: 0x64B76, size: 0x8, addend: 0x0, symName: __ZN8nlohmann16json_abi_v3_11_26detail5lexerINS0_10basic_jsonINSt3__13mapENS4_6vectorENS4_12basic_stringIcNS4_11char_traitsIcEENS4_9allocatorIcEEEEbxydSA_NS0_14adl_serializerENS6_IhNSA_IhEEEEEENS1_22iterator_input_adapterINS4_11__wrap_iterIPKcEEEEEC1EOSM_b, symObjAddr: 0x52A0, symBinAddr: 0x10000D394, symSize: 0x48 }
  - { offsetInCU: 0x64BBE, offset: 0x64BBE, size: 0x8, addend: 0x0, symName: __ZN8nlohmann16json_abi_v3_11_26detail6parserINS0_10basic_jsonINSt3__13mapENS4_6vectorENS4_12basic_stringIcNS4_11char_traitsIcEENS4_9allocatorIcEEEEbxydSA_NS0_14adl_serializerENS6_IhNSA_IhEEEEEENS1_22iterator_input_adapterINS4_11__wrap_iterIPKcEEEEE9get_tokenEv, symObjAddr: 0x52E8, symBinAddr: 0x10000D3DC, symSize: 0x34 }
  - { offsetInCU: 0x64BE4, offset: 0x64BE4, size: 0x8, addend: 0x0, symName: __ZN8nlohmann16json_abi_v3_11_26detail5lexerINS0_10basic_jsonINSt3__13mapENS4_6vectorENS4_12basic_stringIcNS4_11char_traitsIcEENS4_9allocatorIcEEEEbxydSA_NS0_14adl_serializerENS6_IhNSA_IhEEEEEENS1_22iterator_input_adapterINS4_11__wrap_iterIPKcEEEEED1Ev, symObjAddr: 0x531C, symBinAddr: 0x10000D410, symSize: 0x2C }
  - { offsetInCU: 0x64C0E, offset: 0x64C0E, size: 0x8, addend: 0x0, symName: __ZN8nlohmann16json_abi_v3_11_26detail5lexerINS0_10basic_jsonINSt3__13mapENS4_6vectorENS4_12basic_stringIcNS4_11char_traitsIcEENS4_9allocatorIcEEEEbxydSA_NS0_14adl_serializerENS6_IhNSA_IhEEEEEENS1_22iterator_input_adapterINS4_11__wrap_iterIPKcEEEEEC2EOSM_b, symObjAddr: 0x5348, symBinAddr: 0x10000D43C, symSize: 0xB0 }
  - { offsetInCU: 0x64C56, offset: 0x64C56, size: 0x8, addend: 0x0, symName: __ZNSt3__111char_traitsIcE3eofEv, symObjAddr: 0x53F8, symBinAddr: 0x10000D4EC, symSize: 0x8 }
  - { offsetInCU: 0x64C6A, offset: 0x64C6A, size: 0x8, addend: 0x0, symName: __ZNSt3__16vectorIcNS_9allocatorIcEEEC1B7v160006Ev, symObjAddr: 0x5400, symBinAddr: 0x10000D4F4, symSize: 0x2C }
  - { offsetInCU: 0x64C94, offset: 0x64C94, size: 0x8, addend: 0x0, symName: __ZN8nlohmann16json_abi_v3_11_26detail5lexerINS0_10basic_jsonINSt3__13mapENS4_6vectorENS4_12basic_stringIcNS4_11char_traitsIcEENS4_9allocatorIcEEEEbxydSA_NS0_14adl_serializerENS6_IhNSA_IhEEEEEENS1_22iterator_input_adapterINS4_11__wrap_iterIPKcEEEEE17get_decimal_pointEv, symObjAddr: 0x542C, symBinAddr: 0x10000D520, symSize: 0xB0 }
  - { offsetInCU: 0x64CB8, offset: 0x64CB8, size: 0x8, addend: 0x0, symName: __ZNSt3__16vectorIcNS_9allocatorIcEEEC2B7v160006Ev, symObjAddr: 0x54DC, symBinAddr: 0x10000D5D0, symSize: 0x58 }
  - { offsetInCU: 0x64CEE, offset: 0x64CEE, size: 0x8, addend: 0x0, symName: __ZNSt3__117__compressed_pairIPcNS_9allocatorIcEEEC1B7v160006IDnNS_18__default_init_tagEEEOT_OT0_, symObjAddr: 0x5534, symBinAddr: 0x10000D628, symSize: 0x3C }
  - { offsetInCU: 0x64D46, offset: 0x64D46, size: 0x8, addend: 0x0, symName: __ZNSt3__117__compressed_pairIPcNS_9allocatorIcEEEC2B7v160006IDnNS_18__default_init_tagEEEOT_OT0_, symObjAddr: 0x5580, symBinAddr: 0x10000D674, symSize: 0x40 }
  - { offsetInCU: 0x64D9E, offset: 0x64D9E, size: 0x8, addend: 0x0, symName: __ZNSt3__122__compressed_pair_elemIPcLi0ELb0EEC2B7v160006IDnvEEOT_, symObjAddr: 0x55C0, symBinAddr: 0x10000D6B4, symSize: 0x1C }
  - { offsetInCU: 0x64DE0, offset: 0x64DE0, size: 0x8, addend: 0x0, symName: __ZNSt3__122__compressed_pair_elemINS_9allocatorIcEELi1ELb1EEC2B7v160006ENS_18__default_init_tagE, symObjAddr: 0x55DC, symBinAddr: 0x10000D6D0, symSize: 0x2C }
  - { offsetInCU: 0x64E15, offset: 0x64E15, size: 0x8, addend: 0x0, symName: __ZNSt3__19allocatorIcEC2B7v160006Ev, symObjAddr: 0x5608, symBinAddr: 0x10000D6FC, symSize: 0x2C }
  - { offsetInCU: 0x64E3F, offset: 0x64E3F, size: 0x8, addend: 0x0, symName: __ZNSt3__116__non_trivial_ifILb1ENS_9allocatorIcEEEC2B7v160006Ev, symObjAddr: 0x5634, symBinAddr: 0x10000D728, symSize: 0x14 }
  - { offsetInCU: 0x64E69, offset: 0x64E69, size: 0x8, addend: 0x0, symName: __ZN8nlohmann16json_abi_v3_11_26detail5lexerINS0_10basic_jsonINSt3__13mapENS4_6vectorENS4_12basic_stringIcNS4_11char_traitsIcEENS4_9allocatorIcEEEEbxydSA_NS0_14adl_serializerENS6_IhNSA_IhEEEEEENS1_22iterator_input_adapterINS4_11__wrap_iterIPKcEEEEE4scanEv, symObjAddr: 0x5648, symBinAddr: 0x10000D73C, symSize: 0x280 }
  - { offsetInCU: 0x64EE6, offset: 0x64EE6, size: 0x8, addend: 0x0, symName: __ZN8nlohmann16json_abi_v3_11_26detail5lexerINS0_10basic_jsonINSt3__13mapENS4_6vectorENS4_12basic_stringIcNS4_11char_traitsIcEENS4_9allocatorIcEEEEbxydSA_NS0_14adl_serializerENS6_IhNSA_IhEEEEEENS1_22iterator_input_adapterINS4_11__wrap_iterIPKcEEEEE8skip_bomEv, symObjAddr: 0x5AC4, symBinAddr: 0x10000DBB8, symSize: 0xA8 }
  - { offsetInCU: 0x64F0C, offset: 0x64F0C, size: 0x8, addend: 0x0, symName: __ZN8nlohmann16json_abi_v3_11_26detail5lexerINS0_10basic_jsonINSt3__13mapENS4_6vectorENS4_12basic_stringIcNS4_11char_traitsIcEENS4_9allocatorIcEEEEbxydSA_NS0_14adl_serializerENS6_IhNSA_IhEEEEEENS1_22iterator_input_adapterINS4_11__wrap_iterIPKcEEEEE15skip_whitespaceEv, symObjAddr: 0x5B6C, symBinAddr: 0x10000DC60, symSize: 0xB8 }
  - { offsetInCU: 0x64F32, offset: 0x64F32, size: 0x8, addend: 0x0, symName: __ZN8nlohmann16json_abi_v3_11_26detail5lexerINS0_10basic_jsonINSt3__13mapENS4_6vectorENS4_12basic_stringIcNS4_11char_traitsIcEENS4_9allocatorIcEEEEbxydSA_NS0_14adl_serializerENS6_IhNSA_IhEEEEEENS1_22iterator_input_adapterINS4_11__wrap_iterIPKcEEEEE12scan_commentEv, symObjAddr: 0x5C24, symBinAddr: 0x10000DD18, symSize: 0x17C }
  - { offsetInCU: 0x64F58, offset: 0x64F58, size: 0x8, addend: 0x0, symName: __ZN8nlohmann16json_abi_v3_11_26detail5lexerINS0_10basic_jsonINSt3__13mapENS4_6vectorENS4_12basic_stringIcNS4_11char_traitsIcEENS4_9allocatorIcEEEEbxydSA_NS0_14adl_serializerENS6_IhNSA_IhEEEEEENS1_22iterator_input_adapterINS4_11__wrap_iterIPKcEEEEE12scan_literalESK_mNS1_10lexer_baseISG_E10token_typeE, symObjAddr: 0x5DA0, symBinAddr: 0x10000DE94, symSize: 0x100 }
  - { offsetInCU: 0x6500A, offset: 0x6500A, size: 0x8, addend: 0x0, symName: __ZNSt3__15arrayIcLm4EE4dataB7v160006Ev, symObjAddr: 0x5EA0, symBinAddr: 0x10000DF94, symSize: 0x14 }
  - { offsetInCU: 0x65030, offset: 0x65030, size: 0x8, addend: 0x0, symName: __ZNKSt3__15arrayIcLm4EE4sizeB7v160006Ev, symObjAddr: 0x5EB4, symBinAddr: 0x10000DFA8, symSize: 0x14 }
  - { offsetInCU: 0x6508A, offset: 0x6508A, size: 0x8, addend: 0x0, symName: __ZNSt3__15arrayIcLm5EE4dataB7v160006Ev, symObjAddr: 0x5EC8, symBinAddr: 0x10000DFBC, symSize: 0x14 }
  - { offsetInCU: 0x650B0, offset: 0x650B0, size: 0x8, addend: 0x0, symName: __ZNKSt3__15arrayIcLm5EE4sizeB7v160006Ev, symObjAddr: 0x5EDC, symBinAddr: 0x10000DFD0, symSize: 0x14 }
  - { offsetInCU: 0x650D6, offset: 0x650D6, size: 0x8, addend: 0x0, symName: __ZN8nlohmann16json_abi_v3_11_26detail5lexerINS0_10basic_jsonINSt3__13mapENS4_6vectorENS4_12basic_stringIcNS4_11char_traitsIcEENS4_9allocatorIcEEEEbxydSA_NS0_14adl_serializerENS6_IhNSA_IhEEEEEENS1_22iterator_input_adapterINS4_11__wrap_iterIPKcEEEEE11scan_stringEv, symObjAddr: 0x5EF0, symBinAddr: 0x10000DFE4, symSize: 0xB64 }
  - { offsetInCU: 0x65149, offset: 0x65149, size: 0x8, addend: 0x0, symName: __ZN8nlohmann16json_abi_v3_11_26detail5lexerINS0_10basic_jsonINSt3__13mapENS4_6vectorENS4_12basic_stringIcNS4_11char_traitsIcEENS4_9allocatorIcEEEEbxydSA_NS0_14adl_serializerENS6_IhNSA_IhEEEEEENS1_22iterator_input_adapterINS4_11__wrap_iterIPKcEEEEE11scan_numberEv, symObjAddr: 0x6F7C, symBinAddr: 0x10000F070, symSize: 0x658 }
  - { offsetInCU: 0x65260, offset: 0x65260, size: 0x8, addend: 0x0, symName: __ZN8nlohmann16json_abi_v3_11_26detail5lexerINS0_10basic_jsonINSt3__13mapENS4_6vectorENS4_12basic_stringIcNS4_11char_traitsIcEENS4_9allocatorIcEEEEbxydSA_NS0_14adl_serializerENS6_IhNSA_IhEEEEEENS1_22iterator_input_adapterINS4_11__wrap_iterIPKcEEEEE3getEv, symObjAddr: 0x76B4, symBinAddr: 0x10000F7A8, symSize: 0xF0 }
  - { offsetInCU: 0x65286, offset: 0x65286, size: 0x8, addend: 0x0, symName: __ZN8nlohmann16json_abi_v3_11_26detail5lexerINS0_10basic_jsonINSt3__13mapENS4_6vectorENS4_12basic_stringIcNS4_11char_traitsIcEENS4_9allocatorIcEEEEbxydSA_NS0_14adl_serializerENS6_IhNSA_IhEEEEEENS1_22iterator_input_adapterINS4_11__wrap_iterIPKcEEEEE5ungetEv, symObjAddr: 0x77A4, symBinAddr: 0x10000F898, symSize: 0xFC }
  - { offsetInCU: 0x652AC, offset: 0x652AC, size: 0x8, addend: 0x0, symName: __ZN8nlohmann16json_abi_v3_11_26detail22iterator_input_adapterINSt3__111__wrap_iterIPKcEEE13get_characterEv, symObjAddr: 0x78A0, symBinAddr: 0x10000F994, symSize: 0x78 }
  - { offsetInCU: 0x652EF, offset: 0x652EF, size: 0x8, addend: 0x0, symName: __ZNSt3__16vectorIcNS_9allocatorIcEEE9push_backB7v160006EOc, symObjAddr: 0x7918, symBinAddr: 0x10000FA0C, symSize: 0x6C }
  - { offsetInCU: 0x65326, offset: 0x65326, size: 0x8, addend: 0x0, symName: __ZNSt3__111char_traitsIcE12to_char_typeEi, symObjAddr: 0x7984, symBinAddr: 0x10000FA78, symSize: 0x18 }
  - { offsetInCU: 0x65349, offset: 0x65349, size: 0x8, addend: 0x0, symName: __ZNSt3__111char_traitsIcE11to_int_typeEc, symObjAddr: 0x79D0, symBinAddr: 0x10000FAC4, symSize: 0x14 }
  - { offsetInCU: 0x6536C, offset: 0x6536C, size: 0x8, addend: 0x0, symName: __ZNKSt3__111__wrap_iterIPKcEdeB7v160006Ev, symObjAddr: 0x79E4, symBinAddr: 0x10000FAD8, symSize: 0x18 }
  - { offsetInCU: 0x65392, offset: 0x65392, size: 0x8, addend: 0x0, symName: __ZNKSt3__111__wrap_iterIPKcE4baseB7v160006Ev, symObjAddr: 0x7A9C, symBinAddr: 0x10000FB90, symSize: 0x18 }
  - { offsetInCU: 0x653B8, offset: 0x653B8, size: 0x8, addend: 0x0, symName: __ZNSt3__111__wrap_iterIPKcEpLB7v160006El, symObjAddr: 0x7AF4, symBinAddr: 0x10000FBE8, symSize: 0x28 }
  - { offsetInCU: 0x653EC, offset: 0x653EC, size: 0x8, addend: 0x0, symName: __ZNSt3__16vectorIcNS_9allocatorIcEEE9__end_capB7v160006Ev, symObjAddr: 0x7B1C, symBinAddr: 0x10000FC10, symSize: 0x28 }
  - { offsetInCU: 0x65418, offset: 0x65418, size: 0x8, addend: 0x0, symName: __ZNSt3__16vectorIcNS_9allocatorIcEEE22__construct_one_at_endB7v160006IJcEEEvDpOT_, symObjAddr: 0x7B44, symBinAddr: 0x10000FC38, symSize: 0x90 }
  - { offsetInCU: 0x65467, offset: 0x65467, size: 0x8, addend: 0x0, symName: __ZNSt3__16vectorIcNS_9allocatorIcEEE21__push_back_slow_pathIcEEvOT_, symObjAddr: 0x7BD4, symBinAddr: 0x10000FCC8, symSize: 0xD8 }
  - { offsetInCU: 0x654C5, offset: 0x654C5, size: 0x8, addend: 0x0, symName: __ZNSt3__117__compressed_pairIPcNS_9allocatorIcEEE5firstB7v160006Ev, symObjAddr: 0x7CAC, symBinAddr: 0x10000FDA0, symSize: 0x24 }
  - { offsetInCU: 0x654EB, offset: 0x654EB, size: 0x8, addend: 0x0, symName: __ZNSt3__122__compressed_pair_elemIPcLi0ELb0EE5__getB7v160006Ev, symObjAddr: 0x7CD0, symBinAddr: 0x10000FDC4, symSize: 0x14 }
  - { offsetInCU: 0x6552D, offset: 0x6552D, size: 0x8, addend: 0x0, symName: __ZNSt3__16vectorIcNS_9allocatorIcEEE21_ConstructTransactionC1B7v160006ERS3_m, symObjAddr: 0x7CE4, symBinAddr: 0x10000FDD8, symSize: 0x3C }
  - { offsetInCU: 0x65575, offset: 0x65575, size: 0x8, addend: 0x0, symName: __ZNSt3__116allocator_traitsINS_9allocatorIcEEE9constructB7v160006IcJcEvEEvRS2_PT_DpOT0_, symObjAddr: 0x7D20, symBinAddr: 0x10000FE14, symSize: 0x34 }
  - { offsetInCU: 0x655CC, offset: 0x655CC, size: 0x8, addend: 0x0, symName: __ZNSt3__16vectorIcNS_9allocatorIcEEE7__allocB7v160006Ev, symObjAddr: 0x7D54, symBinAddr: 0x10000FE48, symSize: 0x28 }
  - { offsetInCU: 0x655F2, offset: 0x655F2, size: 0x8, addend: 0x0, symName: __ZNSt3__16vectorIcNS_9allocatorIcEEE21_ConstructTransactionD1B7v160006Ev, symObjAddr: 0x7D90, symBinAddr: 0x10000FE84, symSize: 0x2C }
  - { offsetInCU: 0x6561C, offset: 0x6561C, size: 0x8, addend: 0x0, symName: __ZNSt3__16vectorIcNS_9allocatorIcEEE21_ConstructTransactionC2B7v160006ERS3_m, symObjAddr: 0x7DBC, symBinAddr: 0x10000FEB0, symSize: 0x44 }
  - { offsetInCU: 0x65664, offset: 0x65664, size: 0x8, addend: 0x0, symName: __ZNSt3__19allocatorIcE9constructB7v160006IcJcEEEvPT_DpOT0_, symObjAddr: 0x7E00, symBinAddr: 0x10000FEF4, symSize: 0x28 }
  - { offsetInCU: 0x656BA, offset: 0x656BA, size: 0x8, addend: 0x0, symName: __ZNSt3__117__compressed_pairIPcNS_9allocatorIcEEE6secondB7v160006Ev, symObjAddr: 0x7E28, symBinAddr: 0x10000FF1C, symSize: 0x24 }
  - { offsetInCU: 0x656E0, offset: 0x656E0, size: 0x8, addend: 0x0, symName: __ZNSt3__122__compressed_pair_elemINS_9allocatorIcEELi1ELb1EE5__getB7v160006Ev, symObjAddr: 0x7E4C, symBinAddr: 0x10000FF40, symSize: 0x14 }
  - { offsetInCU: 0x65706, offset: 0x65706, size: 0x8, addend: 0x0, symName: __ZNSt3__16vectorIcNS_9allocatorIcEEE21_ConstructTransactionD2B7v160006Ev, symObjAddr: 0x7E60, symBinAddr: 0x10000FF54, symSize: 0x20 }
  - { offsetInCU: 0x65730, offset: 0x65730, size: 0x8, addend: 0x0, symName: __ZNKSt3__16vectorIcNS_9allocatorIcEEE11__recommendB7v160006Em, symObjAddr: 0x7E80, symBinAddr: 0x10000FF74, symSize: 0xB4 }
  - { offsetInCU: 0x65785, offset: 0x65785, size: 0x8, addend: 0x0, symName: __ZNKSt3__16vectorIcNS_9allocatorIcEEE4sizeB7v160006Ev, symObjAddr: 0x7F34, symBinAddr: 0x100010028, symSize: 0x20 }
  - { offsetInCU: 0x657AB, offset: 0x657AB, size: 0x8, addend: 0x0, symName: __ZNSt3__114__split_bufferIcRNS_9allocatorIcEEEC1EmmS3_, symObjAddr: 0x7F54, symBinAddr: 0x100010048, symSize: 0x44 }
  - { offsetInCU: 0x65801, offset: 0x65801, size: 0x8, addend: 0x0, symName: __ZNSt3__114__split_bufferIcRNS_9allocatorIcEEED1Ev, symObjAddr: 0x80B0, symBinAddr: 0x1000101A4, symSize: 0x2C }
  - { offsetInCU: 0x6582D, offset: 0x6582D, size: 0x8, addend: 0x0, symName: __ZNKSt3__16vectorIcNS_9allocatorIcEEE8max_sizeEv, symObjAddr: 0x80DC, symBinAddr: 0x1000101D0, symSize: 0x60 }
  - { offsetInCU: 0x65855, offset: 0x65855, size: 0x8, addend: 0x0, symName: __ZNKSt3__16vectorIcNS_9allocatorIcEEE20__throw_length_errorB7v160006Ev, symObjAddr: 0x813C, symBinAddr: 0x100010230, symSize: 0x1C }
  - { offsetInCU: 0x6587B, offset: 0x6587B, size: 0x8, addend: 0x0, symName: __ZNKSt3__16vectorIcNS_9allocatorIcEEE8capacityB7v160006Ev, symObjAddr: 0x8158, symBinAddr: 0x10001024C, symSize: 0x38 }
  - { offsetInCU: 0x658AC, offset: 0x658AC, size: 0x8, addend: 0x0, symName: __ZNSt3__116allocator_traitsINS_9allocatorIcEEE8max_sizeB7v160006IS2_vEEmRKS2_, symObjAddr: 0x81E8, symBinAddr: 0x1000102DC, symSize: 0x24 }
  - { offsetInCU: 0x658DA, offset: 0x658DA, size: 0x8, addend: 0x0, symName: __ZNKSt3__16vectorIcNS_9allocatorIcEEE7__allocB7v160006Ev, symObjAddr: 0x820C, symBinAddr: 0x100010300, symSize: 0x28 }
  - { offsetInCU: 0x65900, offset: 0x65900, size: 0x8, addend: 0x0, symName: __ZNSt3__114numeric_limitsIlE3maxB7v160006Ev, symObjAddr: 0x8234, symBinAddr: 0x100010328, symSize: 0x14 }
  - { offsetInCU: 0x6591F, offset: 0x6591F, size: 0x8, addend: 0x0, symName: __ZNKSt3__16__lessImmEclB7v160006ERKmS3_, symObjAddr: 0x829C, symBinAddr: 0x100010390, symSize: 0x34 }
  - { offsetInCU: 0x65961, offset: 0x65961, size: 0x8, addend: 0x0, symName: __ZNKSt3__19allocatorIcE8max_sizeB7v160006Ev, symObjAddr: 0x82D0, symBinAddr: 0x1000103C4, symSize: 0x14 }
  - { offsetInCU: 0x65987, offset: 0x65987, size: 0x8, addend: 0x0, symName: __ZNKSt3__117__compressed_pairIPcNS_9allocatorIcEEE6secondB7v160006Ev, symObjAddr: 0x82E4, symBinAddr: 0x1000103D8, symSize: 0x24 }
  - { offsetInCU: 0x659AD, offset: 0x659AD, size: 0x8, addend: 0x0, symName: __ZNKSt3__122__compressed_pair_elemINS_9allocatorIcEELi1ELb1EE5__getB7v160006Ev, symObjAddr: 0x8308, symBinAddr: 0x1000103FC, symSize: 0x14 }
  - { offsetInCU: 0x659D3, offset: 0x659D3, size: 0x8, addend: 0x0, symName: __ZNSt3__123__libcpp_numeric_limitsIlLb1EE3maxB7v160006Ev, symObjAddr: 0x831C, symBinAddr: 0x100010410, symSize: 0x8 }
  - { offsetInCU: 0x659E7, offset: 0x659E7, size: 0x8, addend: 0x0, symName: __ZNSt12length_errorC1B7v160006EPKc, symObjAddr: 0x8388, symBinAddr: 0x10001047C, symSize: 0x34 }
  - { offsetInCU: 0x65A1F, offset: 0x65A1F, size: 0x8, addend: 0x0, symName: __ZNSt12length_errorC2B7v160006EPKc, symObjAddr: 0x83BC, symBinAddr: 0x1000104B0, symSize: 0x4C }
  - { offsetInCU: 0x65A57, offset: 0x65A57, size: 0x8, addend: 0x0, symName: __ZNKSt3__16vectorIcNS_9allocatorIcEEE9__end_capB7v160006Ev, symObjAddr: 0x8408, symBinAddr: 0x1000104FC, symSize: 0x28 }
  - { offsetInCU: 0x65A7D, offset: 0x65A7D, size: 0x8, addend: 0x0, symName: __ZNKSt3__117__compressed_pairIPcNS_9allocatorIcEEE5firstB7v160006Ev, symObjAddr: 0x8430, symBinAddr: 0x100010524, symSize: 0x24 }
  - { offsetInCU: 0x65AA3, offset: 0x65AA3, size: 0x8, addend: 0x0, symName: __ZNKSt3__122__compressed_pair_elemIPcLi0ELb0EE5__getB7v160006Ev, symObjAddr: 0x8454, symBinAddr: 0x100010548, symSize: 0x14 }
  - { offsetInCU: 0x65AC9, offset: 0x65AC9, size: 0x8, addend: 0x0, symName: __ZNSt3__114__split_bufferIcRNS_9allocatorIcEEEC2EmmS3_, symObjAddr: 0x84BC, symBinAddr: 0x1000105B0, symSize: 0xD4 }
  - { offsetInCU: 0x65B3C, offset: 0x65B3C, size: 0x8, addend: 0x0, symName: __ZNSt3__117__compressed_pairIPcRNS_9allocatorIcEEEC1B7v160006IDnS4_EEOT_OT0_, symObjAddr: 0x8590, symBinAddr: 0x100010684, symSize: 0x3C }
  - { offsetInCU: 0x65B94, offset: 0x65B94, size: 0x8, addend: 0x0, symName: __ZNSt3__114__split_bufferIcRNS_9allocatorIcEEE7__allocB7v160006Ev, symObjAddr: 0x860C, symBinAddr: 0x100010700, symSize: 0x28 }
  - { offsetInCU: 0x65BBA, offset: 0x65BBA, size: 0x8, addend: 0x0, symName: __ZNSt3__114__split_bufferIcRNS_9allocatorIcEEE9__end_capB7v160006Ev, symObjAddr: 0x8634, symBinAddr: 0x100010728, symSize: 0x28 }
  - { offsetInCU: 0x65BE0, offset: 0x65BE0, size: 0x8, addend: 0x0, symName: __ZNSt3__117__compressed_pairIPcRNS_9allocatorIcEEEC2B7v160006IDnS4_EEOT_OT0_, symObjAddr: 0x865C, symBinAddr: 0x100010750, symSize: 0x48 }
  - { offsetInCU: 0x65C38, offset: 0x65C38, size: 0x8, addend: 0x0, symName: __ZNSt3__122__compressed_pair_elemIRNS_9allocatorIcEELi1ELb0EEC2B7v160006IS3_vEEOT_, symObjAddr: 0x86A4, symBinAddr: 0x100010798, symSize: 0x20 }
  - { offsetInCU: 0x65C7A, offset: 0x65C7A, size: 0x8, addend: 0x0, symName: __ZNSt3__19allocatorIcE8allocateB7v160006Em, symObjAddr: 0x86C4, symBinAddr: 0x1000107B8, symSize: 0x58 }
  - { offsetInCU: 0x65CAE, offset: 0x65CAE, size: 0x8, addend: 0x0, symName: __ZNSt3__117__compressed_pairIPcRNS_9allocatorIcEEE6secondB7v160006Ev, symObjAddr: 0x8820, symBinAddr: 0x100010914, symSize: 0x28 }
  - { offsetInCU: 0x65CD4, offset: 0x65CD4, size: 0x8, addend: 0x0, symName: __ZNSt3__122__compressed_pair_elemIRNS_9allocatorIcEELi1ELb0EE5__getB7v160006Ev, symObjAddr: 0x8848, symBinAddr: 0x10001093C, symSize: 0x18 }
  - { offsetInCU: 0x65CFA, offset: 0x65CFA, size: 0x8, addend: 0x0, symName: __ZNSt3__117__compressed_pairIPcRNS_9allocatorIcEEE5firstB7v160006Ev, symObjAddr: 0x8860, symBinAddr: 0x100010954, symSize: 0x24 }
  - { offsetInCU: 0x65D20, offset: 0x65D20, size: 0x8, addend: 0x0, symName: __ZNKSt3__16vectorIcNS_9allocatorIcEEE17__annotate_deleteB7v160006Ev, symObjAddr: 0x8884, symBinAddr: 0x100010978, symSize: 0xB8 }
  - { offsetInCU: 0x65D46, offset: 0x65D46, size: 0x8, addend: 0x0, symName: __ZNSt3__116reverse_iteratorIPcEC1B7v160006ES1_, symObjAddr: 0x89B4, symBinAddr: 0x100010AA8, symSize: 0x34 }
  - { offsetInCU: 0x65D7E, offset: 0x65D7E, size: 0x8, addend: 0x0, symName: __ZNKSt3__116reverse_iteratorIPcE4baseB7v160006Ev, symObjAddr: 0x89E8, symBinAddr: 0x100010ADC, symSize: 0x18 }
  - { offsetInCU: 0x65DA4, offset: 0x65DA4, size: 0x8, addend: 0x0, symName: __ZNKSt3__16vectorIcNS_9allocatorIcEEE14__annotate_newB7v160006Em, symObjAddr: 0x8A3C, symBinAddr: 0x100010B30, symSize: 0xAC }
  - { offsetInCU: 0x65DD9, offset: 0x65DD9, size: 0x8, addend: 0x0, symName: __ZNKSt3__16vectorIcNS_9allocatorIcEEE31__annotate_contiguous_containerB7v160006EPKvS5_S5_S5_, symObjAddr: 0x8AF8, symBinAddr: 0x100010BEC, symSize: 0x20 }
  - { offsetInCU: 0x65E2F, offset: 0x65E2F, size: 0x8, addend: 0x0, symName: __ZNKSt3__16vectorIcNS_9allocatorIcEEE4dataB7v160006Ev, symObjAddr: 0x8B18, symBinAddr: 0x100010C0C, symSize: 0x28 }
  - { offsetInCU: 0x65E7D, offset: 0x65E7D, size: 0x8, addend: 0x0, symName: __ZNKSt3__111__move_loopINS_17_ClassicAlgPolicyEEclB7v160006INS_16reverse_iteratorIPcEES6_S6_EENS_4pairIT_T1_EES8_T0_S9_, symObjAddr: 0x8E30, symBinAddr: 0x100010F24, symSize: 0xA0 }
  - { offsetInCU: 0x65EE8, offset: 0x65EE8, size: 0x8, addend: 0x0, symName: __ZNSt3__18_IterOpsINS_17_ClassicAlgPolicyEE11__iter_moveB7v160006IRNS_16reverse_iteratorIPcEEEENS_9enable_ifIXsr12is_referenceIDTdeclsr3stdE7declvalIRT_EEEEE5valueEDTclsr3stdE4movedeclsr3stdE7declvalISA_EEEEE4typeEOS9_, symObjAddr: 0x9064, symBinAddr: 0x100011158, symSize: 0x28 }
  - { offsetInCU: 0x65F14, offset: 0x65F14, size: 0x8, addend: 0x0, symName: __ZNKSt3__116reverse_iteratorIPcEdeB7v160006Ev, symObjAddr: 0x908C, symBinAddr: 0x100011180, symSize: 0x28 }
  - { offsetInCU: 0x65F48, offset: 0x65F48, size: 0x8, addend: 0x0, symName: __ZNSt3__116reverse_iteratorIPcEppB7v160006Ev, symObjAddr: 0x90B4, symBinAddr: 0x1000111A8, symSize: 0x20 }
  - { offsetInCU: 0x65F6E, offset: 0x65F6E, size: 0x8, addend: 0x0, symName: __ZNSt3__18_IterOpsINS_17_ClassicAlgPolicyEE25__validate_iter_referenceB7v160006IRNS_16reverse_iteratorIPcEEEEvv, symObjAddr: 0x90D4, symBinAddr: 0x1000111C8, symSize: 0x4 }
  - { offsetInCU: 0x65F8C, offset: 0x65F8C, size: 0x8, addend: 0x0, symName: __ZNSt3__118__unwrap_iter_implINS_16reverse_iteratorIPcEELb0EE8__unwrapB7v160006ES3_, symObjAddr: 0x90D8, symBinAddr: 0x1000111CC, symSize: 0x24 }
  - { offsetInCU: 0x65FB5, offset: 0x65FB5, size: 0x8, addend: 0x0, symName: __ZNSt3__14pairINS_16reverse_iteratorIPcEES3_EC1B7v160006IS3_S3_LPv0EEEOT_OT0_, symObjAddr: 0x90FC, symBinAddr: 0x1000111F0, symSize: 0x3C }
  - { offsetInCU: 0x66013, offset: 0x66013, size: 0x8, addend: 0x0, symName: __ZNSt3__14pairINS_16reverse_iteratorIPcEES3_EC2B7v160006IS3_S3_LPv0EEEOT_OT0_, symObjAddr: 0x9138, symBinAddr: 0x10001122C, symSize: 0x34 }
  - { offsetInCU: 0x66071, offset: 0x66071, size: 0x8, addend: 0x0, symName: __ZNSt3__118__unwrap_iter_implINS_16reverse_iteratorIPcEELb0EE8__rewrapB7v160006ES3_S3_, symObjAddr: 0x916C, symBinAddr: 0x100011260, symSize: 0x2C }
  - { offsetInCU: 0x6609F, offset: 0x6609F, size: 0x8, addend: 0x0, symName: __ZNSt3__116reverse_iteratorIPcEC2B7v160006ES1_, symObjAddr: 0x9198, symBinAddr: 0x10001128C, symSize: 0x28 }
  - { offsetInCU: 0x660D7, offset: 0x660D7, size: 0x8, addend: 0x0, symName: __ZNSt3__114__split_bufferIcRNS_9allocatorIcEEED2Ev, symObjAddr: 0x91C0, symBinAddr: 0x1000112B4, symSize: 0x8C }
  - { offsetInCU: 0x66103, offset: 0x66103, size: 0x8, addend: 0x0, symName: __ZNSt3__114__split_bufferIcRNS_9allocatorIcEEE5clearB7v160006Ev, symObjAddr: 0x924C, symBinAddr: 0x100011340, symSize: 0x28 }
  - { offsetInCU: 0x66129, offset: 0x66129, size: 0x8, addend: 0x0, symName: __ZNSt3__116allocator_traitsINS_9allocatorIcEEE10deallocateB7v160006ERS2_Pcm, symObjAddr: 0x9274, symBinAddr: 0x100011368, symSize: 0x34 }
  - { offsetInCU: 0x6616B, offset: 0x6616B, size: 0x8, addend: 0x0, symName: __ZNKSt3__114__split_bufferIcRNS_9allocatorIcEEE8capacityB7v160006Ev, symObjAddr: 0x92A8, symBinAddr: 0x10001139C, symSize: 0x38 }
  - { offsetInCU: 0x66191, offset: 0x66191, size: 0x8, addend: 0x0, symName: __ZNSt3__114__split_bufferIcRNS_9allocatorIcEEE17__destruct_at_endB7v160006EPc, symObjAddr: 0x92E0, symBinAddr: 0x1000113D4, symSize: 0x2C }
  - { offsetInCU: 0x661C5, offset: 0x661C5, size: 0x8, addend: 0x0, symName: __ZNSt3__114__split_bufferIcRNS_9allocatorIcEEE17__destruct_at_endB7v160006EPcNS_17integral_constantIbLb0EEE, symObjAddr: 0x930C, symBinAddr: 0x100011400, symSize: 0x80 }
  - { offsetInCU: 0x66206, offset: 0x66206, size: 0x8, addend: 0x0, symName: __ZNSt3__116allocator_traitsINS_9allocatorIcEEE7destroyB7v160006IcvEEvRS2_PT_, symObjAddr: 0x938C, symBinAddr: 0x100011480, symSize: 0x2C }
  - { offsetInCU: 0x66243, offset: 0x66243, size: 0x8, addend: 0x0, symName: __ZNSt3__19allocatorIcE7destroyB7v160006EPc, symObjAddr: 0x93B8, symBinAddr: 0x1000114AC, symSize: 0x14 }
  - { offsetInCU: 0x66277, offset: 0x66277, size: 0x8, addend: 0x0, symName: __ZNSt3__19allocatorIcE10deallocateB7v160006EPcm, symObjAddr: 0x93CC, symBinAddr: 0x1000114C0, symSize: 0x40 }
  - { offsetInCU: 0x662B9, offset: 0x662B9, size: 0x8, addend: 0x0, symName: __ZNKSt3__114__split_bufferIcRNS_9allocatorIcEEE9__end_capB7v160006Ev, symObjAddr: 0x9514, symBinAddr: 0x100011608, symSize: 0x28 }
  - { offsetInCU: 0x662DF, offset: 0x662DF, size: 0x8, addend: 0x0, symName: __ZNKSt3__117__compressed_pairIPcRNS_9allocatorIcEEE5firstB7v160006Ev, symObjAddr: 0x953C, symBinAddr: 0x100011630, symSize: 0x24 }
  - { offsetInCU: 0x66305, offset: 0x66305, size: 0x8, addend: 0x0, symName: __ZNKSt3__16vectorIcNS_9allocatorIcEEE5emptyB7v160006Ev, symObjAddr: 0x9560, symBinAddr: 0x100011654, symSize: 0x28 }
  - { offsetInCU: 0x6632B, offset: 0x6632B, size: 0x8, addend: 0x0, symName: __ZNSt3__16vectorIcNS_9allocatorIcEEE8pop_backEv, symObjAddr: 0x9588, symBinAddr: 0x10001167C, symSize: 0x2C }
  - { offsetInCU: 0x66353, offset: 0x66353, size: 0x8, addend: 0x0, symName: __ZNSt3__16vectorIcNS_9allocatorIcEEE17__destruct_at_endB7v160006EPc, symObjAddr: 0x95B4, symBinAddr: 0x1000116A8, symSize: 0x60 }
  - { offsetInCU: 0x66397, offset: 0x66397, size: 0x8, addend: 0x0, symName: __ZNSt3__16vectorIcNS_9allocatorIcEEE27__invalidate_iterators_pastB7v160006EPc, symObjAddr: 0x9614, symBinAddr: 0x100011708, symSize: 0x14 }
  - { offsetInCU: 0x663CE, offset: 0x663CE, size: 0x8, addend: 0x0, symName: __ZNSt3__16vectorIcNS_9allocatorIcEEE22__base_destruct_at_endB7v160006EPc, symObjAddr: 0x9628, symBinAddr: 0x10001171C, symSize: 0x8C }
  - { offsetInCU: 0x66412, offset: 0x66412, size: 0x8, addend: 0x0, symName: __ZNKSt3__16vectorIcNS_9allocatorIcEEE17__annotate_shrinkB7v160006Em, symObjAddr: 0x96B4, symBinAddr: 0x1000117A8, symSize: 0xB4 }
  - { offsetInCU: 0x66447, offset: 0x66447, size: 0x8, addend: 0x0, symName: __ZN8nlohmann16json_abi_v3_11_26detail5lexerINS0_10basic_jsonINSt3__13mapENS4_6vectorENS4_12basic_stringIcNS4_11char_traitsIcEENS4_9allocatorIcEEEEbxydSA_NS0_14adl_serializerENS6_IhNSA_IhEEEEEENS1_22iterator_input_adapterINS4_11__wrap_iterIPKcEEEEE5resetEv, symObjAddr: 0x9768, symBinAddr: 0x10001185C, symSize: 0x60 }
  - { offsetInCU: 0x6646D, offset: 0x6646D, size: 0x8, addend: 0x0, symName: __ZN8nlohmann16json_abi_v3_11_26detail5lexerINS0_10basic_jsonINSt3__13mapENS4_6vectorENS4_12basic_stringIcNS4_11char_traitsIcEENS4_9allocatorIcEEEEbxydSA_NS0_14adl_serializerENS6_IhNSA_IhEEEEEENS1_22iterator_input_adapterINS4_11__wrap_iterIPKcEEEEE3addEi, symObjAddr: 0x97C8, symBinAddr: 0x1000118BC, symSize: 0x34 }
  - { offsetInCU: 0x664A2, offset: 0x664A2, size: 0x8, addend: 0x0, symName: __ZN8nlohmann16json_abi_v3_11_26detail5lexerINS0_10basic_jsonINSt3__13mapENS4_6vectorENS4_12basic_stringIcNS4_11char_traitsIcEENS4_9allocatorIcEEEEbxydSA_NS0_14adl_serializerENS6_IhNSA_IhEEEEEENS1_22iterator_input_adapterINS4_11__wrap_iterIPKcEEEEE13get_codepointEv, symObjAddr: 0x97FC, symBinAddr: 0x1000118F0, symSize: 0x2B0 }
  - { offsetInCU: 0x66538, offset: 0x66538, size: 0x8, addend: 0x0, symName: __ZN8nlohmann16json_abi_v3_11_26detail5lexerINS0_10basic_jsonINSt3__13mapENS4_6vectorENS4_12basic_stringIcNS4_11char_traitsIcEENS4_9allocatorIcEEEEbxydSA_NS0_14adl_serializerENS6_IhNSA_IhEEEEEENS1_22iterator_input_adapterINS4_11__wrap_iterIPKcEEEEE18next_byte_in_rangeESt16initializer_listIiE, symObjAddr: 0x9AAC, symBinAddr: 0x100011BA0, symSize: 0x1C0 }
  - { offsetInCU: 0x6658A, offset: 0x6658A, size: 0x8, addend: 0x0, symName: __ZNSt3__112basic_stringIcNS_11char_traitsIcEENS_9allocatorIcEEE5clearB7v160006Ev, symObjAddr: 0x9C6C, symBinAddr: 0x100011D60, symSize: 0x88 }
  - { offsetInCU: 0x665B2, offset: 0x665B2, size: 0x8, addend: 0x0, symName: __ZNSt3__16vectorIcNS_9allocatorIcEEE5clearB7v160006Ev, symObjAddr: 0x9CF4, symBinAddr: 0x100011DE8, symSize: 0x4C }
  - { offsetInCU: 0x665E7, offset: 0x665E7, size: 0x8, addend: 0x0, symName: __ZNKSt3__112basic_stringIcNS_11char_traitsIcEENS_9allocatorIcEEE9__is_longB7v160006Ev, symObjAddr: 0x9D50, symBinAddr: 0x100011E44, symSize: 0x38 }
  - { offsetInCU: 0x6660D, offset: 0x6660D, size: 0x8, addend: 0x0, symName: __ZNSt3__111char_traitsIcE6assignERcRKc, symObjAddr: 0x9D88, symBinAddr: 0x100011E7C, symSize: 0x24 }
  - { offsetInCU: 0x6663E, offset: 0x6663E, size: 0x8, addend: 0x0, symName: __ZNSt3__112basic_stringIcNS_11char_traitsIcEENS_9allocatorIcEEE18__get_long_pointerB7v160006Ev, symObjAddr: 0x9DAC, symBinAddr: 0x100011EA0, symSize: 0x28 }
  - { offsetInCU: 0x66664, offset: 0x66664, size: 0x8, addend: 0x0, symName: __ZNSt3__112basic_stringIcNS_11char_traitsIcEENS_9allocatorIcEEE15__set_long_sizeB7v160006Em, symObjAddr: 0x9DD4, symBinAddr: 0x100011EC8, symSize: 0x38 }
  - { offsetInCU: 0x66699, offset: 0x66699, size: 0x8, addend: 0x0, symName: __ZNSt3__112basic_stringIcNS_11char_traitsIcEENS_9allocatorIcEEE19__get_short_pointerB7v160006Ev, symObjAddr: 0x9E0C, symBinAddr: 0x100011F00, symSize: 0x28 }
  - { offsetInCU: 0x666BF, offset: 0x666BF, size: 0x8, addend: 0x0, symName: __ZNSt3__112basic_stringIcNS_11char_traitsIcEENS_9allocatorIcEEE16__set_short_sizeB7v160006Em, symObjAddr: 0x9E34, symBinAddr: 0x100011F28, symSize: 0x78 }
  - { offsetInCU: 0x666F4, offset: 0x666F4, size: 0x8, addend: 0x0, symName: __ZNKSt3__117__compressed_pairINS_12basic_stringIcNS_11char_traitsIcEENS_9allocatorIcEEE5__repES5_E5firstB7v160006Ev, symObjAddr: 0x9EAC, symBinAddr: 0x100011FA0, symSize: 0x24 }
  - { offsetInCU: 0x6671A, offset: 0x6671A, size: 0x8, addend: 0x0, symName: __ZNKSt3__122__compressed_pair_elemINS_12basic_stringIcNS_11char_traitsIcEENS_9allocatorIcEEE5__repELi0ELb0EE5__getB7v160006Ev, symObjAddr: 0x9ED0, symBinAddr: 0x100011FC4, symSize: 0x14 }
  - { offsetInCU: 0x66740, offset: 0x66740, size: 0x8, addend: 0x0, symName: __ZNSt3__117__compressed_pairINS_12basic_stringIcNS_11char_traitsIcEENS_9allocatorIcEEE5__repES5_E5firstB7v160006Ev, symObjAddr: 0x9EE4, symBinAddr: 0x100011FD8, symSize: 0x24 }
  - { offsetInCU: 0x66766, offset: 0x66766, size: 0x8, addend: 0x0, symName: __ZNSt3__122__compressed_pair_elemINS_12basic_stringIcNS_11char_traitsIcEENS_9allocatorIcEEE5__repELi0ELb0EE5__getB7v160006Ev, symObjAddr: 0x9F08, symBinAddr: 0x100011FFC, symSize: 0x14 }
  - { offsetInCU: 0x6678C, offset: 0x6678C, size: 0x8, addend: 0x0, symName: __ZNSt3__114pointer_traitsIPcE10pointer_toB7v160006ERc, symObjAddr: 0x9F1C, symBinAddr: 0x100012010, symSize: 0x14 }
  - { offsetInCU: 0x667AF, offset: 0x667AF, size: 0x8, addend: 0x0, symName: __ZNSt3__16vectorIcNS_9allocatorIcEEE7__clearB7v160006Ev, symObjAddr: 0x9F30, symBinAddr: 0x100012024, symSize: 0x28 }
  - { offsetInCU: 0x667EC, offset: 0x667EC, size: 0x8, addend: 0x0, symName: __ZNKSt16initializer_listIjE5beginB7v160006Ev, symObjAddr: 0x9F58, symBinAddr: 0x10001204C, symSize: 0x18 }
  - { offsetInCU: 0x66812, offset: 0x66812, size: 0x8, addend: 0x0, symName: __ZNKSt16initializer_listIjE3endB7v160006Ev, symObjAddr: 0x9F70, symBinAddr: 0x100012064, symSize: 0x20 }
  - { offsetInCU: 0x66838, offset: 0x66838, size: 0x8, addend: 0x0, symName: __ZNKSt16initializer_listIiE4sizeB7v160006Ev, symObjAddr: 0x9F90, symBinAddr: 0x100012084, symSize: 0x18 }
  - { offsetInCU: 0x6685E, offset: 0x6685E, size: 0x8, addend: 0x0, symName: __ZNKSt16initializer_listIiE5beginB7v160006Ev, symObjAddr: 0x9FA8, symBinAddr: 0x10001209C, symSize: 0x18 }
  - { offsetInCU: 0x66884, offset: 0x66884, size: 0x8, addend: 0x0, symName: __ZNKSt16initializer_listIiE3endB7v160006Ev, symObjAddr: 0x9FC0, symBinAddr: 0x1000120B4, symSize: 0x20 }
  - { offsetInCU: 0x668AA, offset: 0x668AA, size: 0x8, addend: 0x0, symName: __ZNSt3__112basic_stringIcNS_11char_traitsIcEENS_9allocatorIcEEE4dataB7v160006Ev, symObjAddr: 0x9FE0, symBinAddr: 0x1000120D4, symSize: 0x28 }
  - { offsetInCU: 0x668D0, offset: 0x668D0, size: 0x8, addend: 0x0, symName: __ZNKSt3__112basic_stringIcNS_11char_traitsIcEENS_9allocatorIcEEE4sizeB7v160006Ev, symObjAddr: 0xA008, symBinAddr: 0x1000120FC, symSize: 0x54 }
  - { offsetInCU: 0x668F6, offset: 0x668F6, size: 0x8, addend: 0x0, symName: __ZN8nlohmann16json_abi_v3_11_26detail5lexerINS0_10basic_jsonINSt3__13mapENS4_6vectorENS4_12basic_stringIcNS4_11char_traitsIcEENS4_9allocatorIcEEEEbxydSA_NS0_14adl_serializerENS6_IhNSA_IhEEEEEENS1_22iterator_input_adapterINS4_11__wrap_iterIPKcEEEEE6strtofERdSK_PPc, symObjAddr: 0xA05C, symBinAddr: 0x100012150, symSize: 0x48 }
  - { offsetInCU: 0x66938, offset: 0x66938, size: 0x8, addend: 0x0, symName: __ZNSt3__112basic_stringIcNS_11char_traitsIcEENS_9allocatorIcEEE13__get_pointerB7v160006Ev, symObjAddr: 0xA0A4, symBinAddr: 0x100012198, symSize: 0x54 }
  - { offsetInCU: 0x6695E, offset: 0x6695E, size: 0x8, addend: 0x0, symName: __ZNKSt3__112basic_stringIcNS_11char_traitsIcEENS_9allocatorIcEEE15__get_long_sizeB7v160006Ev, symObjAddr: 0xA0F8, symBinAddr: 0x1000121EC, symSize: 0x28 }
  - { offsetInCU: 0x66984, offset: 0x66984, size: 0x8, addend: 0x0, symName: __ZNKSt3__112basic_stringIcNS_11char_traitsIcEENS_9allocatorIcEEE16__get_short_sizeB7v160006Ev, symObjAddr: 0xA120, symBinAddr: 0x100012214, symSize: 0x34 }
  - { offsetInCU: 0x669AA, offset: 0x669AA, size: 0x8, addend: 0x0, symName: __ZN8nlohmann16json_abi_v3_11_26detail5lexerINS0_10basic_jsonINSt3__13mapENS4_6vectorENS4_12basic_stringIcNS4_11char_traitsIcEENS4_9allocatorIcEEEEbxydSA_NS0_14adl_serializerENS6_IhNSA_IhEEEEEENS1_22iterator_input_adapterINS4_11__wrap_iterIPKcEEEEED2Ev, symObjAddr: 0xA154, symBinAddr: 0x100012248, symSize: 0x3C }
  - { offsetInCU: 0x669D4, offset: 0x669D4, size: 0x8, addend: 0x0, symName: __ZNSt3__16vectorIcNS_9allocatorIcEEED1B7v160006Ev, symObjAddr: 0xA190, symBinAddr: 0x100012284, symSize: 0x2C }
  - { offsetInCU: 0x669FE, offset: 0x669FE, size: 0x8, addend: 0x0, symName: __ZNSt3__16vectorIcNS_9allocatorIcEEED2B7v160006Ev, symObjAddr: 0xA1BC, symBinAddr: 0x1000122B0, symSize: 0x44 }
  - { offsetInCU: 0x66A28, offset: 0x66A28, size: 0x8, addend: 0x0, symName: __ZNSt3__16vectorIcNS_9allocatorIcEEE16__destroy_vectorC1ERS3_, symObjAddr: 0xA200, symBinAddr: 0x1000122F4, symSize: 0x34 }
  - { offsetInCU: 0x66A61, offset: 0x66A61, size: 0x8, addend: 0x0, symName: __ZNSt3__16vectorIcNS_9allocatorIcEEE16__destroy_vectorclB7v160006Ev, symObjAddr: 0xA234, symBinAddr: 0x100012328, symSize: 0x9C }
  - { offsetInCU: 0x66A87, offset: 0x66A87, size: 0x8, addend: 0x0, symName: __ZNSt3__16vectorIcNS_9allocatorIcEEE16__destroy_vectorC2ERS3_, symObjAddr: 0xA2D0, symBinAddr: 0x1000123C4, symSize: 0x20 }
  - { offsetInCU: 0x66AC0, offset: 0x66AC0, size: 0x8, addend: 0x0, symName: __ZN8nlohmann16json_abi_v3_11_26detail36container_input_adapter_factory_impl31container_input_adapter_factoryINSt3__112basic_stringIcNS4_11char_traitsIcEENS4_9allocatorIcEEEEvE6createERKSA_, symObjAddr: 0xA300, symBinAddr: 0x1000123F4, symSize: 0x50 }
  - { offsetInCU: 0x66AE4, offset: 0x66AE4, size: 0x8, addend: 0x0, symName: __ZN8nlohmann16json_abi_v3_11_26detail30iterator_input_adapter_factoryINSt3__111__wrap_iterIPKcEEvE6createES7_S7_, symObjAddr: 0xA3F4, symBinAddr: 0x1000124E8, symSize: 0x48 }
  - { offsetInCU: 0x66B17, offset: 0x66B17, size: 0x8, addend: 0x0, symName: __ZN8nlohmann16json_abi_v3_11_26detail22iterator_input_adapterINSt3__111__wrap_iterIPKcEEEC1ES7_S7_, symObjAddr: 0xA43C, symBinAddr: 0x100012530, symSize: 0x3C }
  - { offsetInCU: 0x66B5F, offset: 0x66B5F, size: 0x8, addend: 0x0, symName: __ZN8nlohmann16json_abi_v3_11_26detail22iterator_input_adapterINSt3__111__wrap_iterIPKcEEEC2ES7_S7_, symObjAddr: 0xA478, symBinAddr: 0x10001256C, symSize: 0x2C }
  - { offsetInCU: 0x66BA7, offset: 0x66BA7, size: 0x8, addend: 0x0, symName: __ZNKSt3__112basic_stringIcNS_11char_traitsIcEENS_9allocatorIcEEE5beginB7v160006Ev, symObjAddr: 0xA4A4, symBinAddr: 0x100012598, symSize: 0x4C }
  - { offsetInCU: 0x66BCD, offset: 0x66BCD, size: 0x8, addend: 0x0, symName: __ZNKSt3__112basic_stringIcNS_11char_traitsIcEENS_9allocatorIcEEE21__make_const_iteratorB7v160006EPKc, symObjAddr: 0xA4F0, symBinAddr: 0x1000125E4, symSize: 0x34 }
  - { offsetInCU: 0x66C02, offset: 0x66C02, size: 0x8, addend: 0x0, symName: __ZNKSt3__112basic_stringIcNS_11char_traitsIcEENS_9allocatorIcEEE13__get_pointerB7v160006Ev, symObjAddr: 0xA524, symBinAddr: 0x100012618, symSize: 0x54 }
  - { offsetInCU: 0x66C28, offset: 0x66C28, size: 0x8, addend: 0x0, symName: __ZNSt3__111__wrap_iterIPKcEC1B7v160006EPKvS2_, symObjAddr: 0xA578, symBinAddr: 0x10001266C, symSize: 0x3C }
  - { offsetInCU: 0x66C6E, offset: 0x66C6E, size: 0x8, addend: 0x0, symName: __ZNSt3__111__wrap_iterIPKcEC2B7v160006EPKvS2_, symObjAddr: 0xA5B4, symBinAddr: 0x1000126A8, symSize: 0x24 }
  - { offsetInCU: 0x66CB4, offset: 0x66CB4, size: 0x8, addend: 0x0, symName: __ZNKSt3__112basic_stringIcNS_11char_traitsIcEENS_9allocatorIcEEE18__get_long_pointerB7v160006Ev, symObjAddr: 0xA5D8, symBinAddr: 0x1000126CC, symSize: 0x28 }
  - { offsetInCU: 0x66CDA, offset: 0x66CDA, size: 0x8, addend: 0x0, symName: __ZNKSt3__112basic_stringIcNS_11char_traitsIcEENS_9allocatorIcEEE19__get_short_pointerB7v160006Ev, symObjAddr: 0xA600, symBinAddr: 0x1000126F4, symSize: 0x28 }
  - { offsetInCU: 0x66D00, offset: 0x66D00, size: 0x8, addend: 0x0, symName: __ZNSt3__114pointer_traitsIPKcE10pointer_toB7v160006ERS1_, symObjAddr: 0xA628, symBinAddr: 0x10001271C, symSize: 0x14 }
  - { offsetInCU: 0x66D23, offset: 0x66D23, size: 0x8, addend: 0x0, symName: __ZNKSt3__112basic_stringIcNS_11char_traitsIcEENS_9allocatorIcEEE3endB7v160006Ev, symObjAddr: 0xA63C, symBinAddr: 0x100012730, symSize: 0x54 }
  - { offsetInCU: 0x66D49, offset: 0x66D49, size: 0x8, addend: 0x0, symName: __ZNSt3__18functionIFbiN8nlohmann16json_abi_v3_11_26detail13parse_event_tERNS2_10basic_jsonINS_3mapENS_6vectorENS_12basic_stringIcNS_11char_traitsIcEENS_9allocatorIcEEEEbxydSB_NS2_14adl_serializerENS7_IhNSB_IhEEEEEEEEC2ERKSK_, symObjAddr: 0xA690, symBinAddr: 0x100012784, symSize: 0x34 }
  - { offsetInCU: 0x66D84, offset: 0x66D84, size: 0x8, addend: 0x0, symName: __ZNSt3__110__function12__value_funcIFbiN8nlohmann16json_abi_v3_11_26detail13parse_event_tERNS3_10basic_jsonINS_3mapENS_6vectorENS_12basic_stringIcNS_11char_traitsIcEENS_9allocatorIcEEEEbxydSC_NS3_14adl_serializerENS8_IhNSC_IhEEEEEEEEC1B7v160006ERKSL_, symObjAddr: 0xA6C4, symBinAddr: 0x1000127B8, symSize: 0x34 }
  - { offsetInCU: 0x66DBD, offset: 0x66DBD, size: 0x8, addend: 0x0, symName: __ZNSt3__110__function12__value_funcIFbiN8nlohmann16json_abi_v3_11_26detail13parse_event_tERNS3_10basic_jsonINS_3mapENS_6vectorENS_12basic_stringIcNS_11char_traitsIcEENS_9allocatorIcEEEEbxydSC_NS3_14adl_serializerENS8_IhNSC_IhEEEEEEEEC2B7v160006ERKSL_, symObjAddr: 0xA6F8, symBinAddr: 0x1000127EC, symSize: 0xC0 }
  - { offsetInCU: 0x66DF6, offset: 0x66DF6, size: 0x8, addend: 0x0, symName: __ZNKSt3__18functionIFbiN8nlohmann16json_abi_v3_11_26detail13parse_event_tERNS2_10basic_jsonINS_3mapENS_6vectorENS_12basic_stringIcNS_11char_traitsIcEENS_9allocatorIcEEEEbxydSB_NS2_14adl_serializerENS7_IhNSB_IhEEEEEEEEcvbB7v160006Ev, symObjAddr: 0xA7B8, symBinAddr: 0x1000128AC, symSize: 0x28 }
  - { offsetInCU: 0x66E5B, offset: 0x66E5B, size: 0x8, addend: 0x0, symName: __ZN8nlohmann16json_abi_v3_11_26detail28json_sax_dom_callback_parserINS0_10basic_jsonINSt3__13mapENS4_6vectorENS4_12basic_stringIcNS4_11char_traitsIcEENS4_9allocatorIcEEEEbxydSA_NS0_14adl_serializerENS6_IhNSA_IhEEEEEEEC1ERSG_NS4_8functionIFbiNS1_13parse_event_tESI_EEEb, symObjAddr: 0xA7E0, symBinAddr: 0x1000128D4, symSize: 0x50 }
  - { offsetInCU: 0x66EB9, offset: 0x66EB9, size: 0x8, addend: 0x0, symName: __ZN8nlohmann16json_abi_v3_11_26detail6parserINS0_10basic_jsonINSt3__13mapENS4_6vectorENS4_12basic_stringIcNS4_11char_traitsIcEENS4_9allocatorIcEEEEbxydSA_NS0_14adl_serializerENS6_IhNSA_IhEEEEEENS1_22iterator_input_adapterINS4_11__wrap_iterIPKcEEEEE18sax_parse_internalINS1_28json_sax_dom_callback_parserISG_EEEEbPT_, symObjAddr: 0xA830, symBinAddr: 0x100012924, symSize: 0x13FC }
  - { offsetInCU: 0x66F5C, offset: 0x66F5C, size: 0x8, addend: 0x0, symName: __ZN8nlohmann16json_abi_v3_11_26detail28json_sax_dom_callback_parserINS0_10basic_jsonINSt3__13mapENS4_6vectorENS4_12basic_stringIcNS4_11char_traitsIcEENS4_9allocatorIcEEEEbxydSA_NS0_14adl_serializerENS6_IhNSA_IhEEEEEEE11parse_errorINS1_11parse_errorEEEbmRKSC_RKT_, symObjAddr: 0xBC70, symBinAddr: 0x100013D64, symSize: 0x74 }
  - { offsetInCU: 0x66FB2, offset: 0x66FB2, size: 0x8, addend: 0x0, symName: __ZNK8nlohmann16json_abi_v3_11_26detail5lexerINS0_10basic_jsonINSt3__13mapENS4_6vectorENS4_12basic_stringIcNS4_11char_traitsIcEENS4_9allocatorIcEEEEbxydSA_NS0_14adl_serializerENS6_IhNSA_IhEEEEEENS1_22iterator_input_adapterINS4_11__wrap_iterIPKcEEEEE12get_positionEv, symObjAddr: 0xBCE4, symBinAddr: 0x100013DD8, symSize: 0x28 }
  - { offsetInCU: 0x66FD8, offset: 0x66FD8, size: 0x8, addend: 0x0, symName: __ZNK8nlohmann16json_abi_v3_11_26detail10position_tcvmEv, symObjAddr: 0xBD0C, symBinAddr: 0x100013E00, symSize: 0x18 }
  - { offsetInCU: 0x66FFE, offset: 0x66FFE, size: 0x8, addend: 0x0, symName: __ZNK8nlohmann16json_abi_v3_11_26detail5lexerINS0_10basic_jsonINSt3__13mapENS4_6vectorENS4_12basic_stringIcNS4_11char_traitsIcEENS4_9allocatorIcEEEEbxydSA_NS0_14adl_serializerENS6_IhNSA_IhEEEEEENS1_22iterator_input_adapterINS4_11__wrap_iterIPKcEEEEE16get_token_stringEv, symObjAddr: 0xBD24, symBinAddr: 0x100013E18, symSize: 0x1B8 }
  - { offsetInCU: 0x67095, offset: 0x67095, size: 0x8, addend: 0x0, symName: __ZN8nlohmann16json_abi_v3_11_26detail11parse_error6createIDnLi0EEES2_iRKNS1_10position_tERKNSt3__112basic_stringIcNS7_11char_traitsIcEENS7_9allocatorIcEEEET_, symObjAddr: 0xBEDC, symBinAddr: 0x100013FD0, symSize: 0x18C }
  - { offsetInCU: 0x67104, offset: 0x67104, size: 0x8, addend: 0x0, symName: __ZN8nlohmann16json_abi_v3_11_26detail6parserINS0_10basic_jsonINSt3__13mapENS4_6vectorENS4_12basic_stringIcNS4_11char_traitsIcEENS4_9allocatorIcEEEEbxydSA_NS0_14adl_serializerENS6_IhNSA_IhEEEEEENS1_22iterator_input_adapterINS4_11__wrap_iterIPKcEEEEE17exception_messageENS1_10lexer_baseISG_E10token_typeERKSC_, symObjAddr: 0xC068, symBinAddr: 0x10001415C, symSize: 0x2B0 }
  - { offsetInCU: 0x67158, offset: 0x67158, size: 0x8, addend: 0x0, symName: __ZN8nlohmann16json_abi_v3_11_26detail11parse_errorD1Ev, symObjAddr: 0xC318, symBinAddr: 0x10001440C, symSize: 0x2C }
  - { offsetInCU: 0x67185, offset: 0x67185, size: 0x8, addend: 0x0, symName: __ZNK8nlohmann16json_abi_v3_11_26detail28json_sax_dom_callback_parserINS0_10basic_jsonINSt3__13mapENS4_6vectorENS4_12basic_stringIcNS4_11char_traitsIcEENS4_9allocatorIcEEEEbxydSA_NS0_14adl_serializerENS6_IhNSA_IhEEEEEEE10is_erroredEv, symObjAddr: 0xC344, symBinAddr: 0x100014438, symSize: 0x1C }
  - { offsetInCU: 0x671AB, offset: 0x671AB, size: 0x8, addend: 0x0, symName: __ZN8nlohmann16json_abi_v3_11_210basic_jsonINSt3__13mapENS2_6vectorENS2_12basic_stringIcNS2_11char_traitsIcEENS2_9allocatorIcEEEEbxydS8_NS0_14adl_serializerENS4_IhNS8_IhEEEEEC1ENS0_6detail7value_tE, symObjAddr: 0xC360, symBinAddr: 0x100014454, symSize: 0x34 }
  - { offsetInCU: 0x671E4, offset: 0x671E4, size: 0x8, addend: 0x0, symName: __ZNK8nlohmann16json_abi_v3_11_210basic_jsonINSt3__13mapENS2_6vectorENS2_12basic_stringIcNS2_11char_traitsIcEENS2_9allocatorIcEEEEbxydS8_NS0_14adl_serializerENS4_IhNS8_IhEEEEE12is_discardedEv, symObjAddr: 0xC394, symBinAddr: 0x100014488, symSize: 0x24 }
  - { offsetInCU: 0x6720A, offset: 0x6720A, size: 0x8, addend: 0x0, symName: __ZN8nlohmann16json_abi_v3_11_26detail28json_sax_dom_callback_parserINS0_10basic_jsonINSt3__13mapENS4_6vectorENS4_12basic_stringIcNS4_11char_traitsIcEENS4_9allocatorIcEEEEbxydSA_NS0_14adl_serializerENS6_IhNSA_IhEEEEEEED1Ev, symObjAddr: 0xC3B8, symBinAddr: 0x1000144AC, symSize: 0x2C }
  - { offsetInCU: 0x6726E, offset: 0x6726E, size: 0x8, addend: 0x0, symName: __ZN8nlohmann16json_abi_v3_11_26detail19json_sax_dom_parserINS0_10basic_jsonINSt3__13mapENS4_6vectorENS4_12basic_stringIcNS4_11char_traitsIcEENS4_9allocatorIcEEEEbxydSA_NS0_14adl_serializerENS6_IhNSA_IhEEEEEEEC1ERSG_b, symObjAddr: 0xC3E4, symBinAddr: 0x1000144D8, symSize: 0x48 }
  - { offsetInCU: 0x672BC, offset: 0x672BC, size: 0x8, addend: 0x0, symName: __ZN8nlohmann16json_abi_v3_11_26detail6parserINS0_10basic_jsonINSt3__13mapENS4_6vectorENS4_12basic_stringIcNS4_11char_traitsIcEENS4_9allocatorIcEEEEbxydSA_NS0_14adl_serializerENS6_IhNSA_IhEEEEEENS1_22iterator_input_adapterINS4_11__wrap_iterIPKcEEEEE18sax_parse_internalINS1_19json_sax_dom_parserISG_EEEEbPT_, symObjAddr: 0xC42C, symBinAddr: 0x100014520, symSize: 0x13B0 }
  - { offsetInCU: 0x67337, offset: 0x67337, size: 0x8, addend: 0x0, symName: __ZN8nlohmann16json_abi_v3_11_26detail19json_sax_dom_parserINS0_10basic_jsonINSt3__13mapENS4_6vectorENS4_12basic_stringIcNS4_11char_traitsIcEENS4_9allocatorIcEEEEbxydSA_NS0_14adl_serializerENS6_IhNSA_IhEEEEEEE11parse_errorINS1_11parse_errorEEEbmRKSC_RKT_, symObjAddr: 0xD820, symBinAddr: 0x100015914, symSize: 0x74 }
  - { offsetInCU: 0x6738D, offset: 0x6738D, size: 0x8, addend: 0x0, symName: __ZNK8nlohmann16json_abi_v3_11_26detail19json_sax_dom_parserINS0_10basic_jsonINSt3__13mapENS4_6vectorENS4_12basic_stringIcNS4_11char_traitsIcEENS4_9allocatorIcEEEEbxydSA_NS0_14adl_serializerENS6_IhNSA_IhEEEEEEE10is_erroredEv, symObjAddr: 0xD894, symBinAddr: 0x100015988, symSize: 0x1C }
  - { offsetInCU: 0x673B3, offset: 0x673B3, size: 0x8, addend: 0x0, symName: __ZN8nlohmann16json_abi_v3_11_26detail19json_sax_dom_parserINS0_10basic_jsonINSt3__13mapENS4_6vectorENS4_12basic_stringIcNS4_11char_traitsIcEENS4_9allocatorIcEEEEbxydSA_NS0_14adl_serializerENS6_IhNSA_IhEEEEEEED1Ev, symObjAddr: 0xD8B0, symBinAddr: 0x1000159A4, symSize: 0x2C }
  - { offsetInCU: 0x673DD, offset: 0x673DD, size: 0x8, addend: 0x0, symName: __ZNK8nlohmann16json_abi_v3_11_210basic_jsonINSt3__13mapENS2_6vectorENS2_12basic_stringIcNS2_11char_traitsIcEENS2_9allocatorIcEEEEbxydS8_NS0_14adl_serializerENS4_IhNS8_IhEEEEE16assert_invariantEb, symObjAddr: 0xD8DC, symBinAddr: 0x1000159D0, symSize: 0x1F0 }
  - { offsetInCU: 0x67412, offset: 0x67412, size: 0x8, addend: 0x0, symName: __ZNKSt3__110__function12__value_funcIFbiN8nlohmann16json_abi_v3_11_26detail13parse_event_tERNS3_10basic_jsonINS_3mapENS_6vectorENS_12basic_stringIcNS_11char_traitsIcEENS_9allocatorIcEEEEbxydSC_NS3_14adl_serializerENS8_IhNSC_IhEEEEEEEEcvbB7v160006Ev, symObjAddr: 0xDACC, symBinAddr: 0x100015BC0, symSize: 0x24 }
  - { offsetInCU: 0x67438, offset: 0x67438, size: 0x8, addend: 0x0, symName: __ZN8nlohmann16json_abi_v3_11_26detail28json_sax_dom_callback_parserINS0_10basic_jsonINSt3__13mapENS4_6vectorENS4_12basic_stringIcNS4_11char_traitsIcEENS4_9allocatorIcEEEEbxydSA_NS0_14adl_serializerENS6_IhNSA_IhEEEEEEEC2ERSG_NS4_8functionIFbiNS1_13parse_event_tESI_EEEb, symObjAddr: 0xDAF0, symBinAddr: 0x100015BE4, symSize: 0x13C }
  - { offsetInCU: 0x67490, offset: 0x67490, size: 0x8, addend: 0x0, symName: __ZNSt3__16vectorIPN8nlohmann16json_abi_v3_11_210basic_jsonINS_3mapES0_NS_12basic_stringIcNS_11char_traitsIcEENS_9allocatorIcEEEEbxydS8_NS2_14adl_serializerENS0_IhNS8_IhEEEEEENS8_ISF_EEEC1B7v160006Ev, symObjAddr: 0xDC2C, symBinAddr: 0x100015D20, symSize: 0x2C }
  - { offsetInCU: 0x674BA, offset: 0x674BA, size: 0x8, addend: 0x0, symName: __ZNSt3__16vectorIbNS_9allocatorIbEEEC1B7v160006Ev, symObjAddr: 0xDC58, symBinAddr: 0x100015D4C, symSize: 0x2C }
  - { offsetInCU: 0x674E6, offset: 0x674E6, size: 0x8, addend: 0x0, symName: __ZNSt3__16vectorIbNS_9allocatorIbEEE9push_backERKb, symObjAddr: 0xDC84, symBinAddr: 0x100015D78, symSize: 0xA4 }
  - { offsetInCU: 0x6751D, offset: 0x6751D, size: 0x8, addend: 0x0, symName: __ZNSt3__16vectorIbNS_9allocatorIbEEED1B7v160006Ev, symObjAddr: 0xDD28, symBinAddr: 0x100015E1C, symSize: 0x2C }
  - { offsetInCU: 0x67547, offset: 0x67547, size: 0x8, addend: 0x0, symName: __ZNSt3__16vectorIPN8nlohmann16json_abi_v3_11_210basic_jsonINS_3mapES0_NS_12basic_stringIcNS_11char_traitsIcEENS_9allocatorIcEEEEbxydS8_NS2_14adl_serializerENS0_IhNS8_IhEEEEEENS8_ISF_EEED1B7v160006Ev, symObjAddr: 0xDD54, symBinAddr: 0x100015E48, symSize: 0x2C }
  - { offsetInCU: 0x67571, offset: 0x67571, size: 0x8, addend: 0x0, symName: __ZNSt3__16vectorIPN8nlohmann16json_abi_v3_11_210basic_jsonINS_3mapES0_NS_12basic_stringIcNS_11char_traitsIcEENS_9allocatorIcEEEEbxydS8_NS2_14adl_serializerENS0_IhNS8_IhEEEEEENS8_ISF_EEEC2B7v160006Ev, symObjAddr: 0xDD80, symBinAddr: 0x100015E74, symSize: 0x58 }
  - { offsetInCU: 0x6759B, offset: 0x6759B, size: 0x8, addend: 0x0, symName: __ZNSt3__117__compressed_pairIPPN8nlohmann16json_abi_v3_11_210basic_jsonINS_3mapENS_6vectorENS_12basic_stringIcNS_11char_traitsIcEENS_9allocatorIcEEEEbxydS9_NS2_14adl_serializerENS5_IhNS9_IhEEEEEENS9_ISG_EEEC1B7v160006IDnNS_18__default_init_tagEEEOT_OT0_, symObjAddr: 0xDDD8, symBinAddr: 0x100015ECC, symSize: 0x3C }
  - { offsetInCU: 0x675F3, offset: 0x675F3, size: 0x8, addend: 0x0, symName: __ZNSt3__117__compressed_pairIPPN8nlohmann16json_abi_v3_11_210basic_jsonINS_3mapENS_6vectorENS_12basic_stringIcNS_11char_traitsIcEENS_9allocatorIcEEEEbxydS9_NS2_14adl_serializerENS5_IhNS9_IhEEEEEENS9_ISG_EEEC2B7v160006IDnNS_18__default_init_tagEEEOT_OT0_, symObjAddr: 0xDE24, symBinAddr: 0x100015F18, symSize: 0x40 }
  - { offsetInCU: 0x6764B, offset: 0x6764B, size: 0x8, addend: 0x0, symName: __ZNSt3__122__compressed_pair_elemIPPN8nlohmann16json_abi_v3_11_210basic_jsonINS_3mapENS_6vectorENS_12basic_stringIcNS_11char_traitsIcEENS_9allocatorIcEEEEbxydS9_NS2_14adl_serializerENS5_IhNS9_IhEEEEEELi0ELb0EEC2B7v160006IDnvEEOT_, symObjAddr: 0xDE64, symBinAddr: 0x100015F58, symSize: 0x1C }
  - { offsetInCU: 0x6768D, offset: 0x6768D, size: 0x8, addend: 0x0, symName: __ZNSt3__122__compressed_pair_elemINS_9allocatorIPN8nlohmann16json_abi_v3_11_210basic_jsonINS_3mapENS_6vectorENS_12basic_stringIcNS_11char_traitsIcEENS1_IcEEEEbxydS1_NS3_14adl_serializerENS6_IhNS1_IhEEEEEEEELi1ELb1EEC2B7v160006ENS_18__default_init_tagE, symObjAddr: 0xDE80, symBinAddr: 0x100015F74, symSize: 0x2C }
  - { offsetInCU: 0x676C2, offset: 0x676C2, size: 0x8, addend: 0x0, symName: __ZNSt3__19allocatorIPN8nlohmann16json_abi_v3_11_210basic_jsonINS_3mapENS_6vectorENS_12basic_stringIcNS_11char_traitsIcEENS0_IcEEEEbxydS0_NS2_14adl_serializerENS5_IhNS0_IhEEEEEEEC2B7v160006Ev, symObjAddr: 0xDEAC, symBinAddr: 0x100015FA0, symSize: 0x2C }
  - { offsetInCU: 0x676EC, offset: 0x676EC, size: 0x8, addend: 0x0, symName: __ZNSt3__116__non_trivial_ifILb1ENS_9allocatorIPN8nlohmann16json_abi_v3_11_210basic_jsonINS_3mapENS_6vectorENS_12basic_stringIcNS_11char_traitsIcEENS1_IcEEEEbxydS1_NS3_14adl_serializerENS6_IhNS1_IhEEEEEEEEEC2B7v160006Ev, symObjAddr: 0xDED8, symBinAddr: 0x100015FCC, symSize: 0x14 }
  - { offsetInCU: 0x67716, offset: 0x67716, size: 0x8, addend: 0x0, symName: __ZNSt3__16vectorIbNS_9allocatorIbEEEC2B7v160006Ev, symObjAddr: 0xDEEC, symBinAddr: 0x100015FE0, symSize: 0x4C }
  - { offsetInCU: 0x67742, offset: 0x67742, size: 0x8, addend: 0x0, symName: __ZNSt3__117__compressed_pairImNS_9allocatorImEEEC1B7v160006IiNS_18__default_init_tagEEEOT_OT0_, symObjAddr: 0xDF38, symBinAddr: 0x10001602C, symSize: 0x3C }
  - { offsetInCU: 0x6779A, offset: 0x6779A, size: 0x8, addend: 0x0, symName: __ZNSt3__117__compressed_pairImNS_9allocatorImEEEC2B7v160006IiNS_18__default_init_tagEEEOT_OT0_, symObjAddr: 0xDF74, symBinAddr: 0x100016068, symSize: 0x40 }
  - { offsetInCU: 0x677F2, offset: 0x677F2, size: 0x8, addend: 0x0, symName: __ZNSt3__122__compressed_pair_elemImLi0ELb0EEC2B7v160006IivEEOT_, symObjAddr: 0xDFB4, symBinAddr: 0x1000160A8, symSize: 0x24 }
  - { offsetInCU: 0x67834, offset: 0x67834, size: 0x8, addend: 0x0, symName: __ZNSt3__122__compressed_pair_elemINS_9allocatorImEELi1ELb1EEC2B7v160006ENS_18__default_init_tagE, symObjAddr: 0xDFD8, symBinAddr: 0x1000160CC, symSize: 0x2C }
  - { offsetInCU: 0x67869, offset: 0x67869, size: 0x8, addend: 0x0, symName: __ZNSt3__19allocatorImEC2B7v160006Ev, symObjAddr: 0xE004, symBinAddr: 0x1000160F8, symSize: 0x2C }
  - { offsetInCU: 0x67893, offset: 0x67893, size: 0x8, addend: 0x0, symName: __ZNSt3__116__non_trivial_ifILb1ENS_9allocatorImEEEC2B7v160006Ev, symObjAddr: 0xE030, symBinAddr: 0x100016124, symSize: 0x14 }
  - { offsetInCU: 0x678BD, offset: 0x678BD, size: 0x8, addend: 0x0, symName: __ZNKSt3__16vectorIbNS_9allocatorIbEEE8capacityB7v160006Ev, symObjAddr: 0xE044, symBinAddr: 0x100016138, symSize: 0x2C }
  - { offsetInCU: 0x678E3, offset: 0x678E3, size: 0x8, addend: 0x0, symName: __ZNSt3__16vectorIbNS_9allocatorIbEEE7reserveEm, symObjAddr: 0xE070, symBinAddr: 0x100016164, symSize: 0x114 }
  - { offsetInCU: 0x6792F, offset: 0x6792F, size: 0x8, addend: 0x0, symName: __ZNKSt3__16vectorIbNS_9allocatorIbEEE11__recommendB7v160006Em, symObjAddr: 0xE184, symBinAddr: 0x100016278, symSize: 0xCC }
  - { offsetInCU: 0x67984, offset: 0x67984, size: 0x8, addend: 0x0, symName: __ZNSt3__16vectorIbNS_9allocatorIbEEE4backB7v160006Ev, symObjAddr: 0xE250, symBinAddr: 0x100016344, symSize: 0x3C }
  - { offsetInCU: 0x679AA, offset: 0x679AA, size: 0x8, addend: 0x0, symName: __ZNSt3__115__bit_referenceINS_6vectorIbNS_9allocatorIbEEEELb1EEaSB7v160006Eb, symObjAddr: 0xE28C, symBinAddr: 0x100016380, symSize: 0x6C }
  - { offsetInCU: 0x679DE, offset: 0x679DE, size: 0x8, addend: 0x0, symName: __ZNSt3__16vectorIbNS_9allocatorIbEEE26__internal_cap_to_externalB7v160006Em, symObjAddr: 0xE2F8, symBinAddr: 0x1000163EC, symSize: 0x18 }
  - { offsetInCU: 0x67A02, offset: 0x67A02, size: 0x8, addend: 0x0, symName: __ZNKSt3__16vectorIbNS_9allocatorIbEEE5__capB7v160006Ev, symObjAddr: 0xE310, symBinAddr: 0x100016404, symSize: 0x28 }
  - { offsetInCU: 0x67A28, offset: 0x67A28, size: 0x8, addend: 0x0, symName: __ZNKSt3__117__compressed_pairImNS_9allocatorImEEE5firstB7v160006Ev, symObjAddr: 0xE338, symBinAddr: 0x10001642C, symSize: 0x24 }
  - { offsetInCU: 0x67A4E, offset: 0x67A4E, size: 0x8, addend: 0x0, symName: __ZNKSt3__122__compressed_pair_elemImLi0ELb0EE5__getB7v160006Ev, symObjAddr: 0xE35C, symBinAddr: 0x100016450, symSize: 0x14 }
  - { offsetInCU: 0x67A74, offset: 0x67A74, size: 0x8, addend: 0x0, symName: __ZNKSt3__16vectorIbNS_9allocatorIbEEE8max_sizeEv, symObjAddr: 0xE370, symBinAddr: 0x100016464, symSize: 0x7C }
  - { offsetInCU: 0x67ABA, offset: 0x67ABA, size: 0x8, addend: 0x0, symName: __ZNKSt3__16vectorIbNS_9allocatorIbEEE20__throw_length_errorB7v160006Ev, symObjAddr: 0xE3EC, symBinAddr: 0x1000164E0, symSize: 0x1C }
  - { offsetInCU: 0x67AE0, offset: 0x67AE0, size: 0x8, addend: 0x0, symName: __ZNKSt3__16vectorIbNS_9allocatorIbEEE13get_allocatorB7v160006Ev, symObjAddr: 0xE408, symBinAddr: 0x1000164FC, symSize: 0x30 }
  - { offsetInCU: 0x67B06, offset: 0x67B06, size: 0x8, addend: 0x0, symName: __ZNSt3__16vectorIbNS_9allocatorIbEEEC1B7v160006ERKS2_, symObjAddr: 0xE438, symBinAddr: 0x10001652C, symSize: 0x34 }
  - { offsetInCU: 0x67B41, offset: 0x67B41, size: 0x8, addend: 0x0, symName: __ZNSt3__16vectorIbNS_9allocatorIbEEE11__vallocateB7v160006Em, symObjAddr: 0xE46C, symBinAddr: 0x100016560, symSize: 0xA0 }
  - { offsetInCU: 0x67B85, offset: 0x67B85, size: 0x8, addend: 0x0, symName: __ZNSt3__16vectorIbNS_9allocatorIbEEE18__construct_at_endINS_14__bit_iteratorIS3_Lb0ELm0EEEEENS_9enable_ifIXsr27__is_cpp17_forward_iteratorIT_EE5valueEvE4typeES8_S8_, symObjAddr: 0xE50C, symBinAddr: 0x100016600, symSize: 0x154 }
  - { offsetInCU: 0x67BE5, offset: 0x67BE5, size: 0x8, addend: 0x0, symName: __ZNSt3__16vectorIbNS_9allocatorIbEEE5beginB7v160006Ev, symObjAddr: 0xE660, symBinAddr: 0x100016754, symSize: 0x30 }
  - { offsetInCU: 0x67C0B, offset: 0x67C0B, size: 0x8, addend: 0x0, symName: __ZNSt3__16vectorIbNS_9allocatorIbEEE3endB7v160006Ev, symObjAddr: 0xE690, symBinAddr: 0x100016784, symSize: 0x30 }
  - { offsetInCU: 0x67C31, offset: 0x67C31, size: 0x8, addend: 0x0, symName: __ZNSt3__16vectorIbNS_9allocatorIbEEE4swapERS3_, symObjAddr: 0xE6C0, symBinAddr: 0x1000167B4, symSize: 0x84 }
  - { offsetInCU: 0x67C73, offset: 0x67C73, size: 0x8, addend: 0x0, symName: __ZNSt3__116allocator_traitsINS_9allocatorImEEE8max_sizeB7v160006IS2_vEEmRKS2_, symObjAddr: 0xE754, symBinAddr: 0x100016848, symSize: 0x24 }
  - { offsetInCU: 0x67CA1, offset: 0x67CA1, size: 0x8, addend: 0x0, symName: __ZNKSt3__16vectorIbNS_9allocatorIbEEE7__allocB7v160006Ev, symObjAddr: 0xE778, symBinAddr: 0x10001686C, symSize: 0x28 }
  - { offsetInCU: 0x67CC7, offset: 0x67CC7, size: 0x8, addend: 0x0, symName: __ZNSt3__114numeric_limitsImE3maxB7v160006Ev, symObjAddr: 0xE7A0, symBinAddr: 0x100016894, symSize: 0x14 }
  - { offsetInCU: 0x67CDB, offset: 0x67CDB, size: 0x8, addend: 0x0, symName: __ZNKSt3__19allocatorImE8max_sizeB7v160006Ev, symObjAddr: 0xE7B4, symBinAddr: 0x1000168A8, symSize: 0x14 }
  - { offsetInCU: 0x67D01, offset: 0x67D01, size: 0x8, addend: 0x0, symName: __ZNKSt3__117__compressed_pairImNS_9allocatorImEEE6secondB7v160006Ev, symObjAddr: 0xE7C8, symBinAddr: 0x1000168BC, symSize: 0x24 }
  - { offsetInCU: 0x67D27, offset: 0x67D27, size: 0x8, addend: 0x0, symName: __ZNKSt3__122__compressed_pair_elemINS_9allocatorImEELi1ELb1EE5__getB7v160006Ev, symObjAddr: 0xE7EC, symBinAddr: 0x1000168E0, symSize: 0x14 }
  - { offsetInCU: 0x67D4D, offset: 0x67D4D, size: 0x8, addend: 0x0, symName: __ZNSt3__123__libcpp_numeric_limitsImLb1EE3maxB7v160006Ev, symObjAddr: 0xE800, symBinAddr: 0x1000168F4, symSize: 0x8 }
  - { offsetInCU: 0x67D61, offset: 0x67D61, size: 0x8, addend: 0x0, symName: __ZNSt3__19allocatorIbEC1B7v160006ImEERKNS0_IT_EE, symObjAddr: 0xE808, symBinAddr: 0x1000168FC, symSize: 0x34 }
  - { offsetInCU: 0x67D9F, offset: 0x67D9F, size: 0x8, addend: 0x0, symName: __ZNSt3__19allocatorIbEC2B7v160006ImEERKNS0_IT_EE, symObjAddr: 0xE83C, symBinAddr: 0x100016930, symSize: 0x30 }
  - { offsetInCU: 0x67DDD, offset: 0x67DDD, size: 0x8, addend: 0x0, symName: __ZNSt3__116__non_trivial_ifILb1ENS_9allocatorIbEEEC2B7v160006Ev, symObjAddr: 0xE86C, symBinAddr: 0x100016960, symSize: 0x14 }
  - { offsetInCU: 0x67E07, offset: 0x67E07, size: 0x8, addend: 0x0, symName: __ZNSt3__16vectorIbNS_9allocatorIbEEEC2B7v160006ERKS2_, symObjAddr: 0xE880, symBinAddr: 0x100016974, symSize: 0x6C }
  - { offsetInCU: 0x67E48, offset: 0x67E48, size: 0x8, addend: 0x0, symName: __ZNSt3__19allocatorImEC1B7v160006IbEERKNS0_IT_EE, symObjAddr: 0xE8EC, symBinAddr: 0x1000169E0, symSize: 0x34 }
  - { offsetInCU: 0x67E8C, offset: 0x67E8C, size: 0x8, addend: 0x0, symName: __ZNSt3__117__compressed_pairImNS_9allocatorImEEEC1B7v160006IiS2_EEOT_OT0_, symObjAddr: 0xE920, symBinAddr: 0x100016A14, symSize: 0x3C }
  - { offsetInCU: 0x67EE4, offset: 0x67EE4, size: 0x8, addend: 0x0, symName: __ZNSt3__19allocatorImEC2B7v160006IbEERKNS0_IT_EE, symObjAddr: 0xE95C, symBinAddr: 0x100016A50, symSize: 0x30 }
  - { offsetInCU: 0x67F22, offset: 0x67F22, size: 0x8, addend: 0x0, symName: __ZNSt3__117__compressed_pairImNS_9allocatorImEEEC2B7v160006IiS2_EEOT_OT0_, symObjAddr: 0xE98C, symBinAddr: 0x100016A80, symSize: 0x44 }
  - { offsetInCU: 0x67F7A, offset: 0x67F7A, size: 0x8, addend: 0x0, symName: __ZNSt3__122__compressed_pair_elemINS_9allocatorImEELi1ELb1EEC2B7v160006IS2_vEEOT_, symObjAddr: 0xE9D0, symBinAddr: 0x100016AC4, symSize: 0x18 }
  - { offsetInCU: 0x67FBC, offset: 0x67FBC, size: 0x8, addend: 0x0, symName: __ZNSt3__16vectorIbNS_9allocatorIbEEE7__allocB7v160006Ev, symObjAddr: 0xEA28, symBinAddr: 0x100016B1C, symSize: 0x28 }
  - { offsetInCU: 0x67FE2, offset: 0x67FE2, size: 0x8, addend: 0x0, symName: __ZNSt3__16vectorIbNS_9allocatorIbEEE26__external_cap_to_internalB7v160006Em, symObjAddr: 0xEA50, symBinAddr: 0x100016B44, symSize: 0x24 }
  - { offsetInCU: 0x68006, offset: 0x68006, size: 0x8, addend: 0x0, symName: __ZNSt3__16vectorIbNS_9allocatorIbEEE5__capB7v160006Ev, symObjAddr: 0xEA74, symBinAddr: 0x100016B68, symSize: 0x28 }
  - { offsetInCU: 0x6802C, offset: 0x6802C, size: 0x8, addend: 0x0, symName: __ZNSt3__19allocatorImE8allocateB7v160006Em, symObjAddr: 0xEA9C, symBinAddr: 0x100016B90, symSize: 0x58 }
  - { offsetInCU: 0x68060, offset: 0x68060, size: 0x8, addend: 0x0, symName: __ZNSt3__117__compressed_pairImNS_9allocatorImEEE6secondB7v160006Ev, symObjAddr: 0xEAF4, symBinAddr: 0x100016BE8, symSize: 0x24 }
  - { offsetInCU: 0x68086, offset: 0x68086, size: 0x8, addend: 0x0, symName: __ZNSt3__122__compressed_pair_elemINS_9allocatorImEELi1ELb1EE5__getB7v160006Ev, symObjAddr: 0xEB18, symBinAddr: 0x100016C0C, symSize: 0x14 }
  - { offsetInCU: 0x680AC, offset: 0x680AC, size: 0x8, addend: 0x0, symName: __ZNSt3__117__compressed_pairImNS_9allocatorImEEE5firstB7v160006Ev, symObjAddr: 0xEB2C, symBinAddr: 0x100016C20, symSize: 0x24 }
  - { offsetInCU: 0x680D2, offset: 0x680D2, size: 0x8, addend: 0x0, symName: __ZNSt3__122__compressed_pair_elemImLi0ELb0EE5__getB7v160006Ev, symObjAddr: 0xEB50, symBinAddr: 0x100016C44, symSize: 0x14 }
  - { offsetInCU: 0x680F8, offset: 0x680F8, size: 0x8, addend: 0x0, symName: __ZNSt3__114__bit_iteratorINS_6vectorIbNS_9allocatorIbEEEELb0ELm0EEC1B7v160006ERKS5_, symObjAddr: 0xEBC0, symBinAddr: 0x100016CB4, symSize: 0x34 }
  - { offsetInCU: 0x68131, offset: 0x68131, size: 0x8, addend: 0x0, symName: __ZNSt3__16vectorIbNS_9allocatorIbEEE11__make_iterB7v160006Em, symObjAddr: 0xECDC, symBinAddr: 0x100016DD0, symSize: 0x64 }
  - { offsetInCU: 0x68166, offset: 0x68166, size: 0x8, addend: 0x0, symName: __ZNSt3__114__bit_iteratorINS_6vectorIbNS_9allocatorIbEEEELb0ELm0EEC2B7v160006ERKS5_, symObjAddr: 0xEDC0, symBinAddr: 0x100016EB4, symSize: 0x30 }
  - { offsetInCU: 0x681B5, offset: 0x681B5, size: 0x8, addend: 0x0, symName: __ZNKSt3__16__lessIllEclB7v160006ERKlS3_, symObjAddr: 0xF680, symBinAddr: 0x100017774, symSize: 0x34 }
  - { offsetInCU: 0x6821F, offset: 0x6821F, size: 0x8, addend: 0x0, symName: __ZNKSt3__114__copy_trivialclB7v160006ImmLi0EEENS_4pairIPT_PT0_EES4_S4_S6_, symObjAddr: 0xF890, symBinAddr: 0x100017984, symSize: 0x48 }
  - { offsetInCU: 0x68293, offset: 0x68293, size: 0x8, addend: 0x0, symName: __ZNSt3__14pairIPmS1_EC1B7v160006IRS1_S1_LPv0EEEOT_OT0_, symObjAddr: 0xFA58, symBinAddr: 0x100017B4C, symSize: 0x3C }
  - { offsetInCU: 0x682F1, offset: 0x682F1, size: 0x8, addend: 0x0, symName: __ZNSt3__14pairIPmS1_EC2B7v160006IRS1_S1_LPv0EEEOT_OT0_, symObjAddr: 0xFA94, symBinAddr: 0x100017B88, symSize: 0x34 }
  - { offsetInCU: 0x6834F, offset: 0x6834F, size: 0x8, addend: 0x0, symName: __ZNSt3__118__unwrap_iter_implIPmLb1EE8__unwrapB7v160006ES1_, symObjAddr: 0xFAC8, symBinAddr: 0x100017BBC, symSize: 0x24 }
  - { offsetInCU: 0x68372, offset: 0x68372, size: 0x8, addend: 0x0, symName: __ZNSt3__14pairIPmS1_EC1B7v160006IS1_S1_LPv0EEEOT_OT0_, symObjAddr: 0xFAEC, symBinAddr: 0x100017BE0, symSize: 0x3C }
  - { offsetInCU: 0x683D0, offset: 0x683D0, size: 0x8, addend: 0x0, symName: __ZNSt3__14pairIPmS1_EC2B7v160006IS1_S1_LPv0EEEOT_OT0_, symObjAddr: 0xFB28, symBinAddr: 0x100017C1C, symSize: 0x34 }
  - { offsetInCU: 0x6842E, offset: 0x6842E, size: 0x8, addend: 0x0, symName: __ZNSt3__118__unwrap_iter_implIPmLb1EE8__rewrapB7v160006ES1_S1_, symObjAddr: 0xFB5C, symBinAddr: 0x100017C50, symSize: 0x50 }
  - { offsetInCU: 0x6845F, offset: 0x6845F, size: 0x8, addend: 0x0, symName: __ZNSt3__114__bit_iteratorINS_6vectorIbNS_9allocatorIbEEEELb0ELm0EEC1B7v160006EPmj, symObjAddr: 0xFBAC, symBinAddr: 0x100017CA0, symSize: 0x3C }
  - { offsetInCU: 0x684A7, offset: 0x684A7, size: 0x8, addend: 0x0, symName: __ZNSt3__114__bit_iteratorINS_6vectorIbNS_9allocatorIbEEEELb0ELm0EEC2B7v160006EPmj, symObjAddr: 0xFBE8, symBinAddr: 0x100017CDC, symSize: 0x2C }
  - { offsetInCU: 0x684EF, offset: 0x684EF, size: 0x8, addend: 0x0, symName: __ZNSt3__16vectorIbNS_9allocatorIbEEE10__align_itB7v160006Em, symObjAddr: 0xFCA0, symBinAddr: 0x100017D94, symSize: 0x1C }
  - { offsetInCU: 0x68513, offset: 0x68513, size: 0x8, addend: 0x0, symName: __ZNSt3__16vectorIbNS_9allocatorIbEEE10__make_refB7v160006Em, symObjAddr: 0xFCBC, symBinAddr: 0x100017DB0, symSize: 0x60 }
  - { offsetInCU: 0x68548, offset: 0x68548, size: 0x8, addend: 0x0, symName: __ZNSt3__115__bit_referenceINS_6vectorIbNS_9allocatorIbEEEELb1EEC1B7v160006EPmm, symObjAddr: 0xFD1C, symBinAddr: 0x100017E10, symSize: 0x3C }
  - { offsetInCU: 0x6858E, offset: 0x6858E, size: 0x8, addend: 0x0, symName: __ZNSt3__115__bit_referenceINS_6vectorIbNS_9allocatorIbEEEELb1EEC2B7v160006EPmm, symObjAddr: 0xFD58, symBinAddr: 0x100017E4C, symSize: 0x2C }
  - { offsetInCU: 0x685D4, offset: 0x685D4, size: 0x8, addend: 0x0, symName: __ZNSt3__16vectorIbNS_9allocatorIbEEED2B7v160006Ev, symObjAddr: 0xFD84, symBinAddr: 0x100017E78, symSize: 0x44 }
  - { offsetInCU: 0x685FE, offset: 0x685FE, size: 0x8, addend: 0x0, symName: __ZNSt3__16vectorIbNS_9allocatorIbEEE16__destroy_vectorC1ERS3_, symObjAddr: 0xFDC8, symBinAddr: 0x100017EBC, symSize: 0x34 }
  - { offsetInCU: 0x68637, offset: 0x68637, size: 0x8, addend: 0x0, symName: __ZNSt3__16vectorIbNS_9allocatorIbEEE16__destroy_vectorclB7v160006Ev, symObjAddr: 0xFDFC, symBinAddr: 0x100017EF0, symSize: 0x84 }
  - { offsetInCU: 0x6865D, offset: 0x6865D, size: 0x8, addend: 0x0, symName: __ZNSt3__16vectorIbNS_9allocatorIbEEE16__destroy_vectorC2ERS3_, symObjAddr: 0xFE80, symBinAddr: 0x100017F74, symSize: 0x20 }
  - { offsetInCU: 0x68696, offset: 0x68696, size: 0x8, addend: 0x0, symName: __ZNSt3__116allocator_traitsINS_9allocatorImEEE10deallocateB7v160006ERS2_Pmm, symObjAddr: 0xFEA0, symBinAddr: 0x100017F94, symSize: 0x34 }
  - { offsetInCU: 0x686D8, offset: 0x686D8, size: 0x8, addend: 0x0, symName: __ZNSt3__19allocatorImE10deallocateB7v160006EPmm, symObjAddr: 0xFEE4, symBinAddr: 0x100017FD8, symSize: 0x40 }
  - { offsetInCU: 0x6871A, offset: 0x6871A, size: 0x8, addend: 0x0, symName: __ZNSt3__16vectorIPN8nlohmann16json_abi_v3_11_210basic_jsonINS_3mapES0_NS_12basic_stringIcNS_11char_traitsIcEENS_9allocatorIcEEEEbxydS8_NS2_14adl_serializerENS0_IhNS8_IhEEEEEENS8_ISF_EEED2B7v160006Ev, symObjAddr: 0xFF24, symBinAddr: 0x100018018, symSize: 0x44 }
  - { offsetInCU: 0x68744, offset: 0x68744, size: 0x8, addend: 0x0, symName: __ZNSt3__16vectorIPN8nlohmann16json_abi_v3_11_210basic_jsonINS_3mapES0_NS_12basic_stringIcNS_11char_traitsIcEENS_9allocatorIcEEEEbxydS8_NS2_14adl_serializerENS0_IhNS8_IhEEEEEENS8_ISF_EEE16__destroy_vectorC1ERSH_, symObjAddr: 0xFF68, symBinAddr: 0x10001805C, symSize: 0x34 }
  - { offsetInCU: 0x6877D, offset: 0x6877D, size: 0x8, addend: 0x0, symName: __ZNSt3__16vectorIPN8nlohmann16json_abi_v3_11_210basic_jsonINS_3mapES0_NS_12basic_stringIcNS_11char_traitsIcEENS_9allocatorIcEEEEbxydS8_NS2_14adl_serializerENS0_IhNS8_IhEEEEEENS8_ISF_EEE16__destroy_vectorclB7v160006Ev, symObjAddr: 0xFF9C, symBinAddr: 0x100018090, symSize: 0x9C }
  - { offsetInCU: 0x687A3, offset: 0x687A3, size: 0x8, addend: 0x0, symName: __ZNSt3__16vectorIPN8nlohmann16json_abi_v3_11_210basic_jsonINS_3mapES0_NS_12basic_stringIcNS_11char_traitsIcEENS_9allocatorIcEEEEbxydS8_NS2_14adl_serializerENS0_IhNS8_IhEEEEEENS8_ISF_EEE16__destroy_vectorC2ERSH_, symObjAddr: 0x10038, symBinAddr: 0x10001812C, symSize: 0x20 }
  - { offsetInCU: 0x687DC, offset: 0x687DC, size: 0x8, addend: 0x0, symName: __ZNKSt3__16vectorIPN8nlohmann16json_abi_v3_11_210basic_jsonINS_3mapES0_NS_12basic_stringIcNS_11char_traitsIcEENS_9allocatorIcEEEEbxydS8_NS2_14adl_serializerENS0_IhNS8_IhEEEEEENS8_ISF_EEE17__annotate_deleteB7v160006Ev, symObjAddr: 0x10058, symBinAddr: 0x10001814C, symSize: 0xB8 }
  - { offsetInCU: 0x68802, offset: 0x68802, size: 0x8, addend: 0x0, symName: __ZNSt3__16vectorIPN8nlohmann16json_abi_v3_11_210basic_jsonINS_3mapES0_NS_12basic_stringIcNS_11char_traitsIcEENS_9allocatorIcEEEEbxydS8_NS2_14adl_serializerENS0_IhNS8_IhEEEEEENS8_ISF_EEE7__clearB7v160006Ev, symObjAddr: 0x10120, symBinAddr: 0x100018214, symSize: 0x28 }
  - { offsetInCU: 0x68828, offset: 0x68828, size: 0x8, addend: 0x0, symName: __ZNSt3__116allocator_traitsINS_9allocatorIPN8nlohmann16json_abi_v3_11_210basic_jsonINS_3mapENS_6vectorENS_12basic_stringIcNS_11char_traitsIcEENS1_IcEEEEbxydS1_NS3_14adl_serializerENS6_IhNS1_IhEEEEEEEEE10deallocateB7v160006ERSH_PSG_m, symObjAddr: 0x10148, symBinAddr: 0x10001823C, symSize: 0x34 }
  - { offsetInCU: 0x6886A, offset: 0x6886A, size: 0x8, addend: 0x0, symName: __ZNSt3__16vectorIPN8nlohmann16json_abi_v3_11_210basic_jsonINS_3mapES0_NS_12basic_stringIcNS_11char_traitsIcEENS_9allocatorIcEEEEbxydS8_NS2_14adl_serializerENS0_IhNS8_IhEEEEEENS8_ISF_EEE7__allocB7v160006Ev, symObjAddr: 0x1017C, symBinAddr: 0x100018270, symSize: 0x28 }
  - { offsetInCU: 0x68890, offset: 0x68890, size: 0x8, addend: 0x0, symName: __ZNKSt3__16vectorIPN8nlohmann16json_abi_v3_11_210basic_jsonINS_3mapES0_NS_12basic_stringIcNS_11char_traitsIcEENS_9allocatorIcEEEEbxydS8_NS2_14adl_serializerENS0_IhNS8_IhEEEEEENS8_ISF_EEE8capacityB7v160006Ev, symObjAddr: 0x101A4, symBinAddr: 0x100018298, symSize: 0x40 }
  - { offsetInCU: 0x688B6, offset: 0x688B6, size: 0x8, addend: 0x0, symName: __ZNKSt3__16vectorIPN8nlohmann16json_abi_v3_11_210basic_jsonINS_3mapES0_NS_12basic_stringIcNS_11char_traitsIcEENS_9allocatorIcEEEEbxydS8_NS2_14adl_serializerENS0_IhNS8_IhEEEEEENS8_ISF_EEE31__annotate_contiguous_containerB7v160006EPKvSJ_SJ_SJ_, symObjAddr: 0x101E4, symBinAddr: 0x1000182D8, symSize: 0x20 }
  - { offsetInCU: 0x6890C, offset: 0x6890C, size: 0x8, addend: 0x0, symName: __ZNKSt3__16vectorIPN8nlohmann16json_abi_v3_11_210basic_jsonINS_3mapES0_NS_12basic_stringIcNS_11char_traitsIcEENS_9allocatorIcEEEEbxydS8_NS2_14adl_serializerENS0_IhNS8_IhEEEEEENS8_ISF_EEE4dataB7v160006Ev, symObjAddr: 0x10204, symBinAddr: 0x1000182F8, symSize: 0x28 }
  - { offsetInCU: 0x68932, offset: 0x68932, size: 0x8, addend: 0x0, symName: __ZNKSt3__16vectorIPN8nlohmann16json_abi_v3_11_210basic_jsonINS_3mapES0_NS_12basic_stringIcNS_11char_traitsIcEENS_9allocatorIcEEEEbxydS8_NS2_14adl_serializerENS0_IhNS8_IhEEEEEENS8_ISF_EEE4sizeB7v160006Ev, symObjAddr: 0x1022C, symBinAddr: 0x100018320, symSize: 0x28 }
  - { offsetInCU: 0x68958, offset: 0x68958, size: 0x8, addend: 0x0, symName: __ZNSt3__16vectorIPN8nlohmann16json_abi_v3_11_210basic_jsonINS_3mapES0_NS_12basic_stringIcNS_11char_traitsIcEENS_9allocatorIcEEEEbxydS8_NS2_14adl_serializerENS0_IhNS8_IhEEEEEENS8_ISF_EEE22__base_destruct_at_endB7v160006EPSF_, symObjAddr: 0x10268, symBinAddr: 0x10001835C, symSize: 0x8C }
  - { offsetInCU: 0x6899C, offset: 0x6899C, size: 0x8, addend: 0x0, symName: __ZNSt3__116allocator_traitsINS_9allocatorIPN8nlohmann16json_abi_v3_11_210basic_jsonINS_3mapENS_6vectorENS_12basic_stringIcNS_11char_traitsIcEENS1_IcEEEEbxydS1_NS3_14adl_serializerENS6_IhNS1_IhEEEEEEEEE7destroyB7v160006ISG_vEEvRSH_PT_, symObjAddr: 0x102F4, symBinAddr: 0x1000183E8, symSize: 0x2C }
  - { offsetInCU: 0x689D9, offset: 0x689D9, size: 0x8, addend: 0x0, symName: __ZNSt3__19allocatorIPN8nlohmann16json_abi_v3_11_210basic_jsonINS_3mapENS_6vectorENS_12basic_stringIcNS_11char_traitsIcEENS0_IcEEEEbxydS0_NS2_14adl_serializerENS5_IhNS0_IhEEEEEEE7destroyB7v160006EPSF_, symObjAddr: 0x10320, symBinAddr: 0x100018414, symSize: 0x14 }
  - { offsetInCU: 0x68A0D, offset: 0x68A0D, size: 0x8, addend: 0x0, symName: __ZNSt3__19allocatorIPN8nlohmann16json_abi_v3_11_210basic_jsonINS_3mapENS_6vectorENS_12basic_stringIcNS_11char_traitsIcEENS0_IcEEEEbxydS0_NS2_14adl_serializerENS5_IhNS0_IhEEEEEEE10deallocateB7v160006EPSF_m, symObjAddr: 0x10334, symBinAddr: 0x100018428, symSize: 0x40 }
  - { offsetInCU: 0x68A4F, offset: 0x68A4F, size: 0x8, addend: 0x0, symName: __ZNSt3__117__compressed_pairIPPN8nlohmann16json_abi_v3_11_210basic_jsonINS_3mapENS_6vectorENS_12basic_stringIcNS_11char_traitsIcEENS_9allocatorIcEEEEbxydS9_NS2_14adl_serializerENS5_IhNS9_IhEEEEEENS9_ISG_EEE6secondB7v160006Ev, symObjAddr: 0x10374, symBinAddr: 0x100018468, symSize: 0x24 }
  - { offsetInCU: 0x68A75, offset: 0x68A75, size: 0x8, addend: 0x0, symName: __ZNSt3__122__compressed_pair_elemINS_9allocatorIPN8nlohmann16json_abi_v3_11_210basic_jsonINS_3mapENS_6vectorENS_12basic_stringIcNS_11char_traitsIcEENS1_IcEEEEbxydS1_NS3_14adl_serializerENS6_IhNS1_IhEEEEEEEELi1ELb1EE5__getB7v160006Ev, symObjAddr: 0x10398, symBinAddr: 0x10001848C, symSize: 0x14 }
  - { offsetInCU: 0x68A9B, offset: 0x68A9B, size: 0x8, addend: 0x0, symName: __ZNKSt3__16vectorIPN8nlohmann16json_abi_v3_11_210basic_jsonINS_3mapES0_NS_12basic_stringIcNS_11char_traitsIcEENS_9allocatorIcEEEEbxydS8_NS2_14adl_serializerENS0_IhNS8_IhEEEEEENS8_ISF_EEE9__end_capB7v160006Ev, symObjAddr: 0x103AC, symBinAddr: 0x1000184A0, symSize: 0x28 }
  - { offsetInCU: 0x68AC1, offset: 0x68AC1, size: 0x8, addend: 0x0, symName: __ZNKSt3__117__compressed_pairIPPN8nlohmann16json_abi_v3_11_210basic_jsonINS_3mapENS_6vectorENS_12basic_stringIcNS_11char_traitsIcEENS_9allocatorIcEEEEbxydS9_NS2_14adl_serializerENS5_IhNS9_IhEEEEEENS9_ISG_EEE5firstB7v160006Ev, symObjAddr: 0x103D4, symBinAddr: 0x1000184C8, symSize: 0x24 }
  - { offsetInCU: 0x68AE7, offset: 0x68AE7, size: 0x8, addend: 0x0, symName: __ZNKSt3__122__compressed_pair_elemIPPN8nlohmann16json_abi_v3_11_210basic_jsonINS_3mapENS_6vectorENS_12basic_stringIcNS_11char_traitsIcEENS_9allocatorIcEEEEbxydS9_NS2_14adl_serializerENS5_IhNS9_IhEEEEEELi0ELb0EE5__getB7v160006Ev, symObjAddr: 0x103F8, symBinAddr: 0x1000184EC, symSize: 0x14 }
  - { offsetInCU: 0x68B0D, offset: 0x68B0D, size: 0x8, addend: 0x0, symName: __ZN8nlohmann16json_abi_v3_11_26detail28json_sax_dom_callback_parserINS0_10basic_jsonINSt3__13mapENS4_6vectorENS4_12basic_stringIcNS4_11char_traitsIcEENS4_9allocatorIcEEEEbxydSA_NS0_14adl_serializerENS6_IhNSA_IhEEEEEEE12start_objectEm, symObjAddr: 0x1040C, symBinAddr: 0x100018500, symSize: 0x224 }
  - { offsetInCU: 0x68B60, offset: 0x68B60, size: 0x8, addend: 0x0, symName: __ZN8nlohmann16json_abi_v3_11_26detail28json_sax_dom_callback_parserINS0_10basic_jsonINSt3__13mapENS4_6vectorENS4_12basic_stringIcNS4_11char_traitsIcEENS4_9allocatorIcEEEEbxydSA_NS0_14adl_serializerENS6_IhNSA_IhEEEEEEE10end_objectEv, symObjAddr: 0x10630, symBinAddr: 0x100018724, symSize: 0x270 }
  - { offsetInCU: 0x68BA3, offset: 0x68BA3, size: 0x8, addend: 0x0, symName: __ZN8nlohmann16json_abi_v3_11_26detail28json_sax_dom_callback_parserINS0_10basic_jsonINSt3__13mapENS4_6vectorENS4_12basic_stringIcNS4_11char_traitsIcEENS4_9allocatorIcEEEEbxydSA_NS0_14adl_serializerENS6_IhNSA_IhEEEEEEE3keyERSC_, symObjAddr: 0x108A0, symBinAddr: 0x100018994, symSize: 0x15C }
  - { offsetInCU: 0x68BF6, offset: 0x68BF6, size: 0x8, addend: 0x0, symName: __ZN8nlohmann16json_abi_v3_11_26detail5lexerINS0_10basic_jsonINSt3__13mapENS4_6vectorENS4_12basic_stringIcNS4_11char_traitsIcEENS4_9allocatorIcEEEEbxydSA_NS0_14adl_serializerENS6_IhNSA_IhEEEEEENS1_22iterator_input_adapterINS4_11__wrap_iterIPKcEEEEE10get_stringEv, symObjAddr: 0x109FC, symBinAddr: 0x100018AF0, symSize: 0x18 }
  - { offsetInCU: 0x68C1C, offset: 0x68C1C, size: 0x8, addend: 0x0, symName: __ZN8nlohmann16json_abi_v3_11_26detail28json_sax_dom_callback_parserINS0_10basic_jsonINSt3__13mapENS4_6vectorENS4_12basic_stringIcNS4_11char_traitsIcEENS4_9allocatorIcEEEEbxydSA_NS0_14adl_serializerENS6_IhNSA_IhEEEEEEE11start_arrayEm, symObjAddr: 0x10A14, symBinAddr: 0x100018B08, symSize: 0x224 }
  - { offsetInCU: 0x68C6F, offset: 0x68C6F, size: 0x8, addend: 0x0, symName: __ZN8nlohmann16json_abi_v3_11_26detail28json_sax_dom_callback_parserINS0_10basic_jsonINSt3__13mapENS4_6vectorENS4_12basic_stringIcNS4_11char_traitsIcEENS4_9allocatorIcEEEEbxydSA_NS0_14adl_serializerENS6_IhNSA_IhEEEEEEE9end_arrayEv, symObjAddr: 0x10C38, symBinAddr: 0x100018D2C, symSize: 0x1E4 }
  - { offsetInCU: 0x68CA4, offset: 0x68CA4, size: 0x8, addend: 0x0, symName: __ZNK8nlohmann16json_abi_v3_11_26detail5lexerINS0_10basic_jsonINSt3__13mapENS4_6vectorENS4_12basic_stringIcNS4_11char_traitsIcEENS4_9allocatorIcEEEEbxydSA_NS0_14adl_serializerENS6_IhNSA_IhEEEEEENS1_22iterator_input_adapterINS4_11__wrap_iterIPKcEEEEE16get_number_floatEv, symObjAddr: 0x10E1C, symBinAddr: 0x100018F10, symSize: 0x18 }
  - { offsetInCU: 0x68CC9, offset: 0x68CC9, size: 0x8, addend: 0x0, symName: __Z8isfiniteB7v160006IdLi0EEbT_, symObjAddr: 0x10E34, symBinAddr: 0x100018F28, symSize: 0x34 }
  - { offsetInCU: 0x68D18, offset: 0x68D18, size: 0x8, addend: 0x0, symName: __ZN8nlohmann16json_abi_v3_11_26detail28json_sax_dom_callback_parserINS0_10basic_jsonINSt3__13mapENS4_6vectorENS4_12basic_stringIcNS4_11char_traitsIcEENS4_9allocatorIcEEEEbxydSA_NS0_14adl_serializerENS6_IhNSA_IhEEEEEEE11parse_errorINS1_12out_of_rangeEEEbmRKSC_RKT_, symObjAddr: 0x10E68, symBinAddr: 0x100018F5C, symSize: 0x74 }
  - { offsetInCU: 0x68D6E, offset: 0x68D6E, size: 0x8, addend: 0x0, symName: __ZN8nlohmann16json_abi_v3_11_26detail12out_of_range6createIDnLi0EEES2_iRKNSt3__112basic_stringIcNS4_11char_traitsIcEENS4_9allocatorIcEEEET_, symObjAddr: 0x10EDC, symBinAddr: 0x100018FD0, symSize: 0x130 }
  - { offsetInCU: 0x68DCE, offset: 0x68DCE, size: 0x8, addend: 0x0, symName: __ZN8nlohmann16json_abi_v3_11_26detail12out_of_rangeD1Ev, symObjAddr: 0x110E4, symBinAddr: 0x1000191D8, symSize: 0x2C }
  - { offsetInCU: 0x68DFB, offset: 0x68DFB, size: 0x8, addend: 0x0, symName: __ZN8nlohmann16json_abi_v3_11_26detail28json_sax_dom_callback_parserINS0_10basic_jsonINSt3__13mapENS4_6vectorENS4_12basic_stringIcNS4_11char_traitsIcEENS4_9allocatorIcEEEEbxydSA_NS0_14adl_serializerENS6_IhNSA_IhEEEEEEE12number_floatEdRKSC_, symObjAddr: 0x11110, symBinAddr: 0x100019204, symSize: 0x54 }
  - { offsetInCU: 0x68E3C, offset: 0x68E3C, size: 0x8, addend: 0x0, symName: __ZN8nlohmann16json_abi_v3_11_26detail28json_sax_dom_callback_parserINS0_10basic_jsonINSt3__13mapENS4_6vectorENS4_12basic_stringIcNS4_11char_traitsIcEENS4_9allocatorIcEEEEbxydSA_NS0_14adl_serializerENS6_IhNSA_IhEEEEEEE7booleanEb, symObjAddr: 0x11164, symBinAddr: 0x100019258, symSize: 0x50 }
  - { offsetInCU: 0x68E71, offset: 0x68E71, size: 0x8, addend: 0x0, symName: __ZN8nlohmann16json_abi_v3_11_26detail28json_sax_dom_callback_parserINS0_10basic_jsonINSt3__13mapENS4_6vectorENS4_12basic_stringIcNS4_11char_traitsIcEENS4_9allocatorIcEEEEbxydSA_NS0_14adl_serializerENS6_IhNSA_IhEEEEEEE4nullEv, symObjAddr: 0x111B4, symBinAddr: 0x1000192A8, symSize: 0x4C }
  - { offsetInCU: 0x68E97, offset: 0x68E97, size: 0x8, addend: 0x0, symName: __ZN8nlohmann16json_abi_v3_11_26detail28json_sax_dom_callback_parserINS0_10basic_jsonINSt3__13mapENS4_6vectorENS4_12basic_stringIcNS4_11char_traitsIcEENS4_9allocatorIcEEEEbxydSA_NS0_14adl_serializerENS6_IhNSA_IhEEEEEEE14number_integerEx, symObjAddr: 0x11200, symBinAddr: 0x1000192F4, symSize: 0x50 }
  - { offsetInCU: 0x68ECC, offset: 0x68ECC, size: 0x8, addend: 0x0, symName: __ZNK8nlohmann16json_abi_v3_11_26detail5lexerINS0_10basic_jsonINSt3__13mapENS4_6vectorENS4_12basic_stringIcNS4_11char_traitsIcEENS4_9allocatorIcEEEEbxydSA_NS0_14adl_serializerENS6_IhNSA_IhEEEEEENS1_22iterator_input_adapterINS4_11__wrap_iterIPKcEEEEE18get_number_integerEv, symObjAddr: 0x11250, symBinAddr: 0x100019344, symSize: 0x18 }
  - { offsetInCU: 0x68EF2, offset: 0x68EF2, size: 0x8, addend: 0x0, symName: __ZN8nlohmann16json_abi_v3_11_26detail28json_sax_dom_callback_parserINS0_10basic_jsonINSt3__13mapENS4_6vectorENS4_12basic_stringIcNS4_11char_traitsIcEENS4_9allocatorIcEEEEbxydSA_NS0_14adl_serializerENS6_IhNSA_IhEEEEEEE6stringERSC_, symObjAddr: 0x11268, symBinAddr: 0x10001935C, symSize: 0x4C }
  - { offsetInCU: 0x68F27, offset: 0x68F27, size: 0x8, addend: 0x0, symName: __ZN8nlohmann16json_abi_v3_11_26detail28json_sax_dom_callback_parserINS0_10basic_jsonINSt3__13mapENS4_6vectorENS4_12basic_stringIcNS4_11char_traitsIcEENS4_9allocatorIcEEEEbxydSA_NS0_14adl_serializerENS6_IhNSA_IhEEEEEEE15number_unsignedEy, symObjAddr: 0x112B4, symBinAddr: 0x1000193A8, symSize: 0x50 }
  - { offsetInCU: 0x68F5C, offset: 0x68F5C, size: 0x8, addend: 0x0, symName: __ZNK8nlohmann16json_abi_v3_11_26detail5lexerINS0_10basic_jsonINSt3__13mapENS4_6vectorENS4_12basic_stringIcNS4_11char_traitsIcEENS4_9allocatorIcEEEEbxydSA_NS0_14adl_serializerENS6_IhNSA_IhEEEEEENS1_22iterator_input_adapterINS4_11__wrap_iterIPKcEEEEE19get_number_unsignedEv, symObjAddr: 0x11304, symBinAddr: 0x1000193F8, symSize: 0x18 }
  - { offsetInCU: 0x68F82, offset: 0x68F82, size: 0x8, addend: 0x0, symName: __ZNKSt3__16vectorIbNS_9allocatorIbEEE5emptyB7v160006Ev, symObjAddr: 0x1131C, symBinAddr: 0x100019410, symSize: 0x24 }
  - { offsetInCU: 0x68FA8, offset: 0x68FA8, size: 0x8, addend: 0x0, symName: __ZNKSt3__115__bit_referenceINS_6vectorIbNS_9allocatorIbEEEELb1EEcvbB7v160006Ev, symObjAddr: 0x11340, symBinAddr: 0x100019434, symSize: 0x2C }
  - { offsetInCU: 0x68FCE, offset: 0x68FCE, size: 0x8, addend: 0x0, symName: __ZNSt3__16vectorIbNS_9allocatorIbEEE8pop_backB7v160006Ev, symObjAddr: 0x1136C, symBinAddr: 0x100019460, symSize: 0x20 }
  - { offsetInCU: 0x68FF4, offset: 0x68FF4, size: 0x8, addend: 0x0, symName: __ZNKSt3__18functionIFbiN8nlohmann16json_abi_v3_11_26detail13parse_event_tERNS2_10basic_jsonINS_3mapENS_6vectorENS_12basic_stringIcNS_11char_traitsIcEENS_9allocatorIcEEEEbxydSB_NS2_14adl_serializerENS7_IhNSB_IhEEEEEEEEclEiS4_SI_, symObjAddr: 0x1138C, symBinAddr: 0x100019480, symSize: 0x48 }
  - { offsetInCU: 0x6906C, offset: 0x6906C, size: 0x8, addend: 0x0, symName: __ZN8nlohmann16json_abi_v3_11_26detail28json_sax_dom_callback_parserINS0_10basic_jsonINSt3__13mapENS4_6vectorENS4_12basic_stringIcNS4_11char_traitsIcEENS4_9allocatorIcEEEEbxydSA_NS0_14adl_serializerENS6_IhNSA_IhEEEEEEE12handle_valueINS1_7value_tEEENS4_4pairIbPSG_EEOT_b, symObjAddr: 0x113D4, symBinAddr: 0x1000194C8, symSize: 0x4E0 }
  - { offsetInCU: 0x690E9, offset: 0x690E9, size: 0x8, addend: 0x0, symName: __ZNSt3__16vectorIPN8nlohmann16json_abi_v3_11_210basic_jsonINS_3mapES0_NS_12basic_stringIcNS_11char_traitsIcEENS_9allocatorIcEEEEbxydS8_NS2_14adl_serializerENS0_IhNS8_IhEEEEEENS8_ISF_EEE9push_backB7v160006ERKSF_, symObjAddr: 0x118B4, symBinAddr: 0x1000199A8, symSize: 0x6C }
  - { offsetInCU: 0x69120, offset: 0x69120, size: 0x8, addend: 0x0, symName: __ZNSt3__16vectorIPN8nlohmann16json_abi_v3_11_210basic_jsonINS_3mapES0_NS_12basic_stringIcNS_11char_traitsIcEENS_9allocatorIcEEEEbxydS8_NS2_14adl_serializerENS0_IhNS8_IhEEEEEENS8_ISF_EEE4backB7v160006Ev, symObjAddr: 0x11920, symBinAddr: 0x100019A14, symSize: 0x1C }
  - { offsetInCU: 0x69146, offset: 0x69146, size: 0x8, addend: 0x0, symName: __ZNK8nlohmann16json_abi_v3_11_210basic_jsonINSt3__13mapENS2_6vectorENS2_12basic_stringIcNS2_11char_traitsIcEENS2_9allocatorIcEEEEbxydS8_NS0_14adl_serializerENS4_IhNS8_IhEEEEE8max_sizeEv, symObjAddr: 0x1193C, symBinAddr: 0x100019A30, symSize: 0xA0 }
  - { offsetInCU: 0x6916C, offset: 0x6916C, size: 0x8, addend: 0x0, symName: __ZN8nlohmann16json_abi_v3_11_26detail12out_of_range6createIPNS0_10basic_jsonINSt3__13mapENS5_6vectorENS5_12basic_stringIcNS5_11char_traitsIcEENS5_9allocatorIcEEEEbxydSB_NS0_14adl_serializerENS7_IhNSB_IhEEEEEELi0EEES2_iRKSD_T_, symObjAddr: 0x11A04, symBinAddr: 0x100019AF8, symSize: 0x130 }
  - { offsetInCU: 0x691CC, offset: 0x691CC, size: 0x8, addend: 0x0, symName: __ZNKSt3__110__function12__value_funcIFbiN8nlohmann16json_abi_v3_11_26detail13parse_event_tERNS3_10basic_jsonINS_3mapENS_6vectorENS_12basic_stringIcNS_11char_traitsIcEENS_9allocatorIcEEEEbxydSC_NS3_14adl_serializerENS8_IhNSC_IhEEEEEEEEclB7v160006EOiOS5_SJ_, symObjAddr: 0x11C00, symBinAddr: 0x100019CF4, symSize: 0x6C }
  - { offsetInCU: 0x69225, offset: 0x69225, size: 0x8, addend: 0x0, symName: __ZNSt3__117bad_function_callC1Ev, symObjAddr: 0x11CA4, symBinAddr: 0x100019D98, symSize: 0x2C }
  - { offsetInCU: 0x69251, offset: 0x69251, size: 0x8, addend: 0x0, symName: __ZNSt3__117bad_function_callD1Ev, symObjAddr: 0x11CD0, symBinAddr: 0x100019DC4, symSize: 0x2C }
  - { offsetInCU: 0x6927B, offset: 0x6927B, size: 0x8, addend: 0x0, symName: __ZNSt3__117bad_function_callC2Ev, symObjAddr: 0x11CFC, symBinAddr: 0x100019DF0, symSize: 0x44 }
  - { offsetInCU: 0x692A7, offset: 0x692A7, size: 0x8, addend: 0x0, symName: __ZNSt9exceptionC2B7v160006Ev, symObjAddr: 0x11D40, symBinAddr: 0x100019E34, symSize: 0x24 }
  - { offsetInCU: 0x692D1, offset: 0x692D1, size: 0x8, addend: 0x0, symName: __ZNSt3__117bad_function_callD0Ev, symObjAddr: 0x11D64, symBinAddr: 0x100019E58, symSize: 0x30 }
  - { offsetInCU: 0x692FB, offset: 0x692FB, size: 0x8, addend: 0x0, symName: __ZNSt3__117bad_function_callD2Ev, symObjAddr: 0x11D94, symBinAddr: 0x100019E88, symSize: 0x2C }
  - { offsetInCU: 0x6932B, offset: 0x6932B, size: 0x8, addend: 0x0, symName: __ZNSt3__14pairIbPN8nlohmann16json_abi_v3_11_210basic_jsonINS_3mapENS_6vectorENS_12basic_stringIcNS_11char_traitsIcEENS_9allocatorIcEEEEbxydS9_NS2_14adl_serializerENS5_IhNS9_IhEEEEEEEC1B7v160006IbDnLPv0EEEOT_OT0_, symObjAddr: 0x11DC0, symBinAddr: 0x100019EB4, symSize: 0x3C }
  - { offsetInCU: 0x69389, offset: 0x69389, size: 0x8, addend: 0x0, symName: __ZNKSt3__16vectorIPN8nlohmann16json_abi_v3_11_210basic_jsonINS_3mapES0_NS_12basic_stringIcNS_11char_traitsIcEENS_9allocatorIcEEEEbxydS8_NS2_14adl_serializerENS0_IhNS8_IhEEEEEENS8_ISF_EEE5emptyB7v160006Ev, symObjAddr: 0x11DFC, symBinAddr: 0x100019EF0, symSize: 0x28 }
  - { offsetInCU: 0x693AF, offset: 0x693AF, size: 0x8, addend: 0x0, symName: __ZN8nlohmann16json_abi_v3_11_210basic_jsonINSt3__13mapENS2_6vectorENS2_12basic_stringIcNS2_11char_traitsIcEENS2_9allocatorIcEEEEbxydS8_NS0_14adl_serializerENS4_IhNS8_IhEEEEEC1EOSE_, symObjAddr: 0x11E24, symBinAddr: 0x100019F18, symSize: 0x34 }
  - { offsetInCU: 0x693EE, offset: 0x693EE, size: 0x8, addend: 0x0, symName: __ZNSt3__14pairIbPN8nlohmann16json_abi_v3_11_210basic_jsonINS_3mapENS_6vectorENS_12basic_stringIcNS_11char_traitsIcEENS_9allocatorIcEEEEbxydS9_NS2_14adl_serializerENS5_IhNS9_IhEEEEEEEC1B7v160006IbSG_LPv0EEEOT_OT0_, symObjAddr: 0x11E58, symBinAddr: 0x100019F4C, symSize: 0x3C }
  - { offsetInCU: 0x6944C, offset: 0x6944C, size: 0x8, addend: 0x0, symName: __ZNK8nlohmann16json_abi_v3_11_210basic_jsonINSt3__13mapENS2_6vectorENS2_12basic_stringIcNS2_11char_traitsIcEENS2_9allocatorIcEEEEbxydS8_NS0_14adl_serializerENS4_IhNS8_IhEEEEE8is_arrayEv, symObjAddr: 0x11E94, symBinAddr: 0x100019F88, symSize: 0x24 }
  - { offsetInCU: 0x69472, offset: 0x69472, size: 0x8, addend: 0x0, symName: __ZNK8nlohmann16json_abi_v3_11_210basic_jsonINSt3__13mapENS2_6vectorENS2_12basic_stringIcNS2_11char_traitsIcEENS2_9allocatorIcEEEEbxydS8_NS0_14adl_serializerENS4_IhNS8_IhEEEEE9is_objectEv, symObjAddr: 0x11EB8, symBinAddr: 0x100019FAC, symSize: 0x24 }
  - { offsetInCU: 0x69498, offset: 0x69498, size: 0x8, addend: 0x0, symName: __ZNSt3__16vectorIN8nlohmann16json_abi_v3_11_210basic_jsonINS_3mapES0_NS_12basic_stringIcNS_11char_traitsIcEENS_9allocatorIcEEEEbxydS8_NS2_14adl_serializerENS0_IhNS8_IhEEEEEENS8_ISE_EEE12emplace_backIJSE_EEERSE_DpOT_, symObjAddr: 0x11EDC, symBinAddr: 0x100019FD0, symSize: 0x74 }
  - { offsetInCU: 0x694DA, offset: 0x694DA, size: 0x8, addend: 0x0, symName: __ZNSt3__16vectorIN8nlohmann16json_abi_v3_11_210basic_jsonINS_3mapES0_NS_12basic_stringIcNS_11char_traitsIcEENS_9allocatorIcEEEEbxydS8_NS2_14adl_serializerENS0_IhNS8_IhEEEEEENS8_ISE_EEE4backB7v160006Ev, symObjAddr: 0x11F50, symBinAddr: 0x10001A044, symSize: 0x1C }
  - { offsetInCU: 0x69500, offset: 0x69500, size: 0x8, addend: 0x0, symName: __ZNSt3__14pairIbPN8nlohmann16json_abi_v3_11_210basic_jsonINS_3mapENS_6vectorENS_12basic_stringIcNS_11char_traitsIcEENS_9allocatorIcEEEEbxydS9_NS2_14adl_serializerENS5_IhNS9_IhEEEEEEEC1B7v160006IbRSG_LPv0EEEOT_OT0_, symObjAddr: 0x11F6C, symBinAddr: 0x10001A060, symSize: 0x3C }
  - { offsetInCU: 0x6955E, offset: 0x6955E, size: 0x8, addend: 0x0, symName: __ZNSt3__14pairIbPN8nlohmann16json_abi_v3_11_210basic_jsonINS_3mapENS_6vectorENS_12basic_stringIcNS_11char_traitsIcEENS_9allocatorIcEEEEbxydS9_NS2_14adl_serializerENS5_IhNS9_IhEEEEEEEC2B7v160006IbDnLPv0EEEOT_OT0_, symObjAddr: 0x11FA8, symBinAddr: 0x10001A09C, symSize: 0x30 }
  - { offsetInCU: 0x695BC, offset: 0x695BC, size: 0x8, addend: 0x0, symName: __ZN8nlohmann16json_abi_v3_11_210basic_jsonINSt3__13mapENS2_6vectorENS2_12basic_stringIcNS2_11char_traitsIcEENS2_9allocatorIcEEEEbxydS8_NS0_14adl_serializerENS4_IhNS8_IhEEEEEC2EOSE_, symObjAddr: 0x11FD8, symBinAddr: 0x10001A0CC, symSize: 0x8C }
  - { offsetInCU: 0x695F5, offset: 0x695F5, size: 0x8, addend: 0x0, symName: __ZN8nlohmann16json_abi_v3_11_210basic_jsonINSt3__13mapENS2_6vectorENS2_12basic_stringIcNS2_11char_traitsIcEENS2_9allocatorIcEEEEbxydS8_NS0_14adl_serializerENS4_IhNS8_IhEEEEE11set_parentsEv, symObjAddr: 0x12064, symBinAddr: 0x10001A158, symSize: 0x10 }
  - { offsetInCU: 0x6961B, offset: 0x6961B, size: 0x8, addend: 0x0, symName: __ZNSt3__14pairIbPN8nlohmann16json_abi_v3_11_210basic_jsonINS_3mapENS_6vectorENS_12basic_stringIcNS_11char_traitsIcEENS_9allocatorIcEEEEbxydS9_NS2_14adl_serializerENS5_IhNS9_IhEEEEEEEC2B7v160006IbSG_LPv0EEEOT_OT0_, symObjAddr: 0x12074, symBinAddr: 0x10001A168, symSize: 0x38 }
  - { offsetInCU: 0x69679, offset: 0x69679, size: 0x8, addend: 0x0, symName: __ZNSt3__16vectorIN8nlohmann16json_abi_v3_11_210basic_jsonINS_3mapES0_NS_12basic_stringIcNS_11char_traitsIcEENS_9allocatorIcEEEEbxydS8_NS2_14adl_serializerENS0_IhNS8_IhEEEEEENS8_ISE_EEE9__end_capB7v160006Ev, symObjAddr: 0x120AC, symBinAddr: 0x10001A1A0, symSize: 0x28 }
  - { offsetInCU: 0x6969F, offset: 0x6969F, size: 0x8, addend: 0x0, symName: __ZNSt3__16vectorIN8nlohmann16json_abi_v3_11_210basic_jsonINS_3mapES0_NS_12basic_stringIcNS_11char_traitsIcEENS_9allocatorIcEEEEbxydS8_NS2_14adl_serializerENS0_IhNS8_IhEEEEEENS8_ISE_EEE22__construct_one_at_endB7v160006IJSE_EEEvDpOT_, symObjAddr: 0x120D4, symBinAddr: 0x10001A1C8, symSize: 0x90 }
  - { offsetInCU: 0x696EE, offset: 0x696EE, size: 0x8, addend: 0x0, symName: __ZNSt3__16vectorIN8nlohmann16json_abi_v3_11_210basic_jsonINS_3mapES0_NS_12basic_stringIcNS_11char_traitsIcEENS_9allocatorIcEEEEbxydS8_NS2_14adl_serializerENS0_IhNS8_IhEEEEEENS8_ISE_EEE24__emplace_back_slow_pathIJSE_EEEvDpOT_, symObjAddr: 0x12164, symBinAddr: 0x10001A258, symSize: 0xD8 }
  - { offsetInCU: 0x6974E, offset: 0x6974E, size: 0x8, addend: 0x0, symName: __ZNSt3__117__compressed_pairIPN8nlohmann16json_abi_v3_11_210basic_jsonINS_3mapENS_6vectorENS_12basic_stringIcNS_11char_traitsIcEENS_9allocatorIcEEEEbxydS9_NS2_14adl_serializerENS5_IhNS9_IhEEEEEENS9_ISF_EEE5firstB7v160006Ev, symObjAddr: 0x1223C, symBinAddr: 0x10001A330, symSize: 0x24 }
  - { offsetInCU: 0x69774, offset: 0x69774, size: 0x8, addend: 0x0, symName: __ZNSt3__122__compressed_pair_elemIPN8nlohmann16json_abi_v3_11_210basic_jsonINS_3mapENS_6vectorENS_12basic_stringIcNS_11char_traitsIcEENS_9allocatorIcEEEEbxydS9_NS2_14adl_serializerENS5_IhNS9_IhEEEEEELi0ELb0EE5__getB7v160006Ev, symObjAddr: 0x12260, symBinAddr: 0x10001A354, symSize: 0x14 }
  - { offsetInCU: 0x697B6, offset: 0x697B6, size: 0x8, addend: 0x0, symName: __ZNSt3__16vectorIN8nlohmann16json_abi_v3_11_210basic_jsonINS_3mapES0_NS_12basic_stringIcNS_11char_traitsIcEENS_9allocatorIcEEEEbxydS8_NS2_14adl_serializerENS0_IhNS8_IhEEEEEENS8_ISE_EEE21_ConstructTransactionC1B7v160006ERSG_m, symObjAddr: 0x12274, symBinAddr: 0x10001A368, symSize: 0x3C }
  - { offsetInCU: 0x697FE, offset: 0x697FE, size: 0x8, addend: 0x0, symName: __ZNSt3__116allocator_traitsINS_9allocatorIN8nlohmann16json_abi_v3_11_210basic_jsonINS_3mapENS_6vectorENS_12basic_stringIcNS_11char_traitsIcEENS1_IcEEEEbxydS1_NS3_14adl_serializerENS6_IhNS1_IhEEEEEEEEE9constructB7v160006ISF_JSF_EvEEvRSG_PT_DpOT0_, symObjAddr: 0x122B0, symBinAddr: 0x10001A3A4, symSize: 0x34 }
  - { offsetInCU: 0x69855, offset: 0x69855, size: 0x8, addend: 0x0, symName: __ZNSt3__16vectorIN8nlohmann16json_abi_v3_11_210basic_jsonINS_3mapES0_NS_12basic_stringIcNS_11char_traitsIcEENS_9allocatorIcEEEEbxydS8_NS2_14adl_serializerENS0_IhNS8_IhEEEEEENS8_ISE_EEE7__allocB7v160006Ev, symObjAddr: 0x122E4, symBinAddr: 0x10001A3D8, symSize: 0x28 }
  - { offsetInCU: 0x6987B, offset: 0x6987B, size: 0x8, addend: 0x0, symName: __ZNSt3__16vectorIN8nlohmann16json_abi_v3_11_210basic_jsonINS_3mapES0_NS_12basic_stringIcNS_11char_traitsIcEENS_9allocatorIcEEEEbxydS8_NS2_14adl_serializerENS0_IhNS8_IhEEEEEENS8_ISE_EEE21_ConstructTransactionD1B7v160006Ev, symObjAddr: 0x12320, symBinAddr: 0x10001A414, symSize: 0x2C }
  - { offsetInCU: 0x698A5, offset: 0x698A5, size: 0x8, addend: 0x0, symName: __ZNSt3__16vectorIN8nlohmann16json_abi_v3_11_210basic_jsonINS_3mapES0_NS_12basic_stringIcNS_11char_traitsIcEENS_9allocatorIcEEEEbxydS8_NS2_14adl_serializerENS0_IhNS8_IhEEEEEENS8_ISE_EEE21_ConstructTransactionC2B7v160006ERSG_m, symObjAddr: 0x1234C, symBinAddr: 0x10001A440, symSize: 0x44 }
  - { offsetInCU: 0x698ED, offset: 0x698ED, size: 0x8, addend: 0x0, symName: __ZNSt3__19allocatorIN8nlohmann16json_abi_v3_11_210basic_jsonINS_3mapENS_6vectorENS_12basic_stringIcNS_11char_traitsIcEENS0_IcEEEEbxydS0_NS2_14adl_serializerENS5_IhNS0_IhEEEEEEE9constructB7v160006ISE_JSE_EEEvPT_DpOT0_, symObjAddr: 0x12390, symBinAddr: 0x10001A484, symSize: 0x30 }
  - { offsetInCU: 0x69943, offset: 0x69943, size: 0x8, addend: 0x0, symName: __ZNSt3__117__compressed_pairIPN8nlohmann16json_abi_v3_11_210basic_jsonINS_3mapENS_6vectorENS_12basic_stringIcNS_11char_traitsIcEENS_9allocatorIcEEEEbxydS9_NS2_14adl_serializerENS5_IhNS9_IhEEEEEENS9_ISF_EEE6secondB7v160006Ev, symObjAddr: 0x123C0, symBinAddr: 0x10001A4B4, symSize: 0x24 }
  - { offsetInCU: 0x69969, offset: 0x69969, size: 0x8, addend: 0x0, symName: __ZNSt3__122__compressed_pair_elemINS_9allocatorIN8nlohmann16json_abi_v3_11_210basic_jsonINS_3mapENS_6vectorENS_12basic_stringIcNS_11char_traitsIcEENS1_IcEEEEbxydS1_NS3_14adl_serializerENS6_IhNS1_IhEEEEEEEELi1ELb1EE5__getB7v160006Ev, symObjAddr: 0x123E4, symBinAddr: 0x10001A4D8, symSize: 0x14 }
  - { offsetInCU: 0x6998F, offset: 0x6998F, size: 0x8, addend: 0x0, symName: __ZNSt3__16vectorIN8nlohmann16json_abi_v3_11_210basic_jsonINS_3mapES0_NS_12basic_stringIcNS_11char_traitsIcEENS_9allocatorIcEEEEbxydS8_NS2_14adl_serializerENS0_IhNS8_IhEEEEEENS8_ISE_EEE21_ConstructTransactionD2B7v160006Ev, symObjAddr: 0x123F8, symBinAddr: 0x10001A4EC, symSize: 0x20 }
  - { offsetInCU: 0x699B9, offset: 0x699B9, size: 0x8, addend: 0x0, symName: __ZNKSt3__16vectorIN8nlohmann16json_abi_v3_11_210basic_jsonINS_3mapES0_NS_12basic_stringIcNS_11char_traitsIcEENS_9allocatorIcEEEEbxydS8_NS2_14adl_serializerENS0_IhNS8_IhEEEEEENS8_ISE_EEE11__recommendB7v160006Em, symObjAddr: 0x12418, symBinAddr: 0x10001A50C, symSize: 0xB4 }
  - { offsetInCU: 0x69A0E, offset: 0x69A0E, size: 0x8, addend: 0x0, symName: __ZNKSt3__16vectorIN8nlohmann16json_abi_v3_11_210basic_jsonINS_3mapES0_NS_12basic_stringIcNS_11char_traitsIcEENS_9allocatorIcEEEEbxydS8_NS2_14adl_serializerENS0_IhNS8_IhEEEEEENS8_ISE_EEE4sizeB7v160006Ev, symObjAddr: 0x124CC, symBinAddr: 0x10001A5C0, symSize: 0x28 }
  - { offsetInCU: 0x69A34, offset: 0x69A34, size: 0x8, addend: 0x0, symName: __ZNSt3__114__split_bufferIN8nlohmann16json_abi_v3_11_210basic_jsonINS_3mapENS_6vectorENS_12basic_stringIcNS_11char_traitsIcEENS_9allocatorIcEEEEbxydS9_NS2_14adl_serializerENS5_IhNS9_IhEEEEEERNS9_ISF_EEEC1EmmSH_, symObjAddr: 0x124F4, symBinAddr: 0x10001A5E8, symSize: 0x44 }
  - { offsetInCU: 0x69A8A, offset: 0x69A8A, size: 0x8, addend: 0x0, symName: __ZNSt3__114__split_bufferIN8nlohmann16json_abi_v3_11_210basic_jsonINS_3mapENS_6vectorENS_12basic_stringIcNS_11char_traitsIcEENS_9allocatorIcEEEEbxydS9_NS2_14adl_serializerENS5_IhNS9_IhEEEEEERNS9_ISF_EEED1Ev, symObjAddr: 0x12650, symBinAddr: 0x10001A744, symSize: 0x2C }
  - { offsetInCU: 0x69AB6, offset: 0x69AB6, size: 0x8, addend: 0x0, symName: __ZNKSt3__16vectorIN8nlohmann16json_abi_v3_11_210basic_jsonINS_3mapES0_NS_12basic_stringIcNS_11char_traitsIcEENS_9allocatorIcEEEEbxydS8_NS2_14adl_serializerENS0_IhNS8_IhEEEEEENS8_ISE_EEE8max_sizeEv, symObjAddr: 0x1267C, symBinAddr: 0x10001A770, symSize: 0x60 }
  - { offsetInCU: 0x69ADE, offset: 0x69ADE, size: 0x8, addend: 0x0, symName: __ZNKSt3__16vectorIN8nlohmann16json_abi_v3_11_210basic_jsonINS_3mapES0_NS_12basic_stringIcNS_11char_traitsIcEENS_9allocatorIcEEEEbxydS8_NS2_14adl_serializerENS0_IhNS8_IhEEEEEENS8_ISE_EEE20__throw_length_errorB7v160006Ev, symObjAddr: 0x126DC, symBinAddr: 0x10001A7D0, symSize: 0x1C }
  - { offsetInCU: 0x69B04, offset: 0x69B04, size: 0x8, addend: 0x0, symName: __ZNKSt3__16vectorIN8nlohmann16json_abi_v3_11_210basic_jsonINS_3mapES0_NS_12basic_stringIcNS_11char_traitsIcEENS_9allocatorIcEEEEbxydS8_NS2_14adl_serializerENS0_IhNS8_IhEEEEEENS8_ISE_EEE8capacityB7v160006Ev, symObjAddr: 0x126F8, symBinAddr: 0x10001A7EC, symSize: 0x40 }
  - { offsetInCU: 0x69B35, offset: 0x69B35, size: 0x8, addend: 0x0, symName: __ZNSt3__116allocator_traitsINS_9allocatorIN8nlohmann16json_abi_v3_11_210basic_jsonINS_3mapENS_6vectorENS_12basic_stringIcNS_11char_traitsIcEENS1_IcEEEEbxydS1_NS3_14adl_serializerENS6_IhNS1_IhEEEEEEEEE8max_sizeB7v160006ISG_vEEmRKSG_, symObjAddr: 0x12738, symBinAddr: 0x10001A82C, symSize: 0x24 }
  - { offsetInCU: 0x69B63, offset: 0x69B63, size: 0x8, addend: 0x0, symName: __ZNKSt3__16vectorIN8nlohmann16json_abi_v3_11_210basic_jsonINS_3mapES0_NS_12basic_stringIcNS_11char_traitsIcEENS_9allocatorIcEEEEbxydS8_NS2_14adl_serializerENS0_IhNS8_IhEEEEEENS8_ISE_EEE7__allocB7v160006Ev, symObjAddr: 0x1275C, symBinAddr: 0x10001A850, symSize: 0x28 }
  - { offsetInCU: 0x69B89, offset: 0x69B89, size: 0x8, addend: 0x0, symName: __ZNKSt3__19allocatorIN8nlohmann16json_abi_v3_11_210basic_jsonINS_3mapENS_6vectorENS_12basic_stringIcNS_11char_traitsIcEENS0_IcEEEEbxydS0_NS2_14adl_serializerENS5_IhNS0_IhEEEEEEE8max_sizeB7v160006Ev, symObjAddr: 0x12784, symBinAddr: 0x10001A878, symSize: 0x14 }
  - { offsetInCU: 0x69BAF, offset: 0x69BAF, size: 0x8, addend: 0x0, symName: __ZNKSt3__117__compressed_pairIPN8nlohmann16json_abi_v3_11_210basic_jsonINS_3mapENS_6vectorENS_12basic_stringIcNS_11char_traitsIcEENS_9allocatorIcEEEEbxydS9_NS2_14adl_serializerENS5_IhNS9_IhEEEEEENS9_ISF_EEE6secondB7v160006Ev, symObjAddr: 0x12798, symBinAddr: 0x10001A88C, symSize: 0x24 }
  - { offsetInCU: 0x69BD5, offset: 0x69BD5, size: 0x8, addend: 0x0, symName: __ZNKSt3__122__compressed_pair_elemINS_9allocatorIN8nlohmann16json_abi_v3_11_210basic_jsonINS_3mapENS_6vectorENS_12basic_stringIcNS_11char_traitsIcEENS1_IcEEEEbxydS1_NS3_14adl_serializerENS6_IhNS1_IhEEEEEEEELi1ELb1EE5__getB7v160006Ev, symObjAddr: 0x127BC, symBinAddr: 0x10001A8B0, symSize: 0x14 }
  - { offsetInCU: 0x69BFB, offset: 0x69BFB, size: 0x8, addend: 0x0, symName: __ZNKSt3__16vectorIN8nlohmann16json_abi_v3_11_210basic_jsonINS_3mapES0_NS_12basic_stringIcNS_11char_traitsIcEENS_9allocatorIcEEEEbxydS8_NS2_14adl_serializerENS0_IhNS8_IhEEEEEENS8_ISE_EEE9__end_capB7v160006Ev, symObjAddr: 0x127D0, symBinAddr: 0x10001A8C4, symSize: 0x28 }
  - { offsetInCU: 0x69C21, offset: 0x69C21, size: 0x8, addend: 0x0, symName: __ZNKSt3__117__compressed_pairIPN8nlohmann16json_abi_v3_11_210basic_jsonINS_3mapENS_6vectorENS_12basic_stringIcNS_11char_traitsIcEENS_9allocatorIcEEEEbxydS9_NS2_14adl_serializerENS5_IhNS9_IhEEEEEENS9_ISF_EEE5firstB7v160006Ev, symObjAddr: 0x127F8, symBinAddr: 0x10001A8EC, symSize: 0x24 }
  - { offsetInCU: 0x69C47, offset: 0x69C47, size: 0x8, addend: 0x0, symName: __ZNKSt3__122__compressed_pair_elemIPN8nlohmann16json_abi_v3_11_210basic_jsonINS_3mapENS_6vectorENS_12basic_stringIcNS_11char_traitsIcEENS_9allocatorIcEEEEbxydS9_NS2_14adl_serializerENS5_IhNS9_IhEEEEEELi0ELb0EE5__getB7v160006Ev, symObjAddr: 0x1281C, symBinAddr: 0x10001A910, symSize: 0x14 }
  - { offsetInCU: 0x69C6D, offset: 0x69C6D, size: 0x8, addend: 0x0, symName: __ZNSt3__114__split_bufferIN8nlohmann16json_abi_v3_11_210basic_jsonINS_3mapENS_6vectorENS_12basic_stringIcNS_11char_traitsIcEENS_9allocatorIcEEEEbxydS9_NS2_14adl_serializerENS5_IhNS9_IhEEEEEERNS9_ISF_EEEC2EmmSH_, symObjAddr: 0x12830, symBinAddr: 0x10001A924, symSize: 0xD4 }
  - { offsetInCU: 0x69CE0, offset: 0x69CE0, size: 0x8, addend: 0x0, symName: __ZNSt3__117__compressed_pairIPN8nlohmann16json_abi_v3_11_210basic_jsonINS_3mapENS_6vectorENS_12basic_stringIcNS_11char_traitsIcEENS_9allocatorIcEEEEbxydS9_NS2_14adl_serializerENS5_IhNS9_IhEEEEEERNS9_ISF_EEEC1B7v160006IDnSI_EEOT_OT0_, symObjAddr: 0x12904, symBinAddr: 0x10001A9F8, symSize: 0x3C }
  - { offsetInCU: 0x69D38, offset: 0x69D38, size: 0x8, addend: 0x0, symName: __ZNSt3__114__split_bufferIN8nlohmann16json_abi_v3_11_210basic_jsonINS_3mapENS_6vectorENS_12basic_stringIcNS_11char_traitsIcEENS_9allocatorIcEEEEbxydS9_NS2_14adl_serializerENS5_IhNS9_IhEEEEEERNS9_ISF_EEE7__allocB7v160006Ev, symObjAddr: 0x12980, symBinAddr: 0x10001AA74, symSize: 0x28 }
  - { offsetInCU: 0x69D5E, offset: 0x69D5E, size: 0x8, addend: 0x0, symName: __ZNSt3__114__split_bufferIN8nlohmann16json_abi_v3_11_210basic_jsonINS_3mapENS_6vectorENS_12basic_stringIcNS_11char_traitsIcEENS_9allocatorIcEEEEbxydS9_NS2_14adl_serializerENS5_IhNS9_IhEEEEEERNS9_ISF_EEE9__end_capB7v160006Ev, symObjAddr: 0x129A8, symBinAddr: 0x10001AA9C, symSize: 0x28 }
  - { offsetInCU: 0x69D84, offset: 0x69D84, size: 0x8, addend: 0x0, symName: __ZNSt3__117__compressed_pairIPN8nlohmann16json_abi_v3_11_210basic_jsonINS_3mapENS_6vectorENS_12basic_stringIcNS_11char_traitsIcEENS_9allocatorIcEEEEbxydS9_NS2_14adl_serializerENS5_IhNS9_IhEEEEEERNS9_ISF_EEEC2B7v160006IDnSI_EEOT_OT0_, symObjAddr: 0x129D0, symBinAddr: 0x10001AAC4, symSize: 0x48 }
  - { offsetInCU: 0x69DDC, offset: 0x69DDC, size: 0x8, addend: 0x0, symName: __ZNSt3__122__compressed_pair_elemIPN8nlohmann16json_abi_v3_11_210basic_jsonINS_3mapENS_6vectorENS_12basic_stringIcNS_11char_traitsIcEENS_9allocatorIcEEEEbxydS9_NS2_14adl_serializerENS5_IhNS9_IhEEEEEELi0ELb0EEC2B7v160006IDnvEEOT_, symObjAddr: 0x12A18, symBinAddr: 0x10001AB0C, symSize: 0x1C }
  - { offsetInCU: 0x69E1E, offset: 0x69E1E, size: 0x8, addend: 0x0, symName: __ZNSt3__122__compressed_pair_elemIRNS_9allocatorIN8nlohmann16json_abi_v3_11_210basic_jsonINS_3mapENS_6vectorENS_12basic_stringIcNS_11char_traitsIcEENS1_IcEEEEbxydS1_NS3_14adl_serializerENS6_IhNS1_IhEEEEEEEELi1ELb0EEC2B7v160006ISH_vEEOT_, symObjAddr: 0x12A34, symBinAddr: 0x10001AB28, symSize: 0x20 }
  - { offsetInCU: 0x69E60, offset: 0x69E60, size: 0x8, addend: 0x0, symName: __ZNSt3__19allocatorIN8nlohmann16json_abi_v3_11_210basic_jsonINS_3mapENS_6vectorENS_12basic_stringIcNS_11char_traitsIcEENS0_IcEEEEbxydS0_NS2_14adl_serializerENS5_IhNS0_IhEEEEEEE8allocateB7v160006Em, symObjAddr: 0x12A54, symBinAddr: 0x10001AB48, symSize: 0x58 }
  - { offsetInCU: 0x69E94, offset: 0x69E94, size: 0x8, addend: 0x0, symName: __ZNSt3__117__compressed_pairIPN8nlohmann16json_abi_v3_11_210basic_jsonINS_3mapENS_6vectorENS_12basic_stringIcNS_11char_traitsIcEENS_9allocatorIcEEEEbxydS9_NS2_14adl_serializerENS5_IhNS9_IhEEEEEERNS9_ISF_EEE6secondB7v160006Ev, symObjAddr: 0x12AAC, symBinAddr: 0x10001ABA0, symSize: 0x28 }
  - { offsetInCU: 0x69EBA, offset: 0x69EBA, size: 0x8, addend: 0x0, symName: __ZNSt3__122__compressed_pair_elemIRNS_9allocatorIN8nlohmann16json_abi_v3_11_210basic_jsonINS_3mapENS_6vectorENS_12basic_stringIcNS_11char_traitsIcEENS1_IcEEEEbxydS1_NS3_14adl_serializerENS6_IhNS1_IhEEEEEEEELi1ELb0EE5__getB7v160006Ev, symObjAddr: 0x12AD4, symBinAddr: 0x10001ABC8, symSize: 0x18 }
  - { offsetInCU: 0x69EE0, offset: 0x69EE0, size: 0x8, addend: 0x0, symName: __ZNSt3__117__compressed_pairIPN8nlohmann16json_abi_v3_11_210basic_jsonINS_3mapENS_6vectorENS_12basic_stringIcNS_11char_traitsIcEENS_9allocatorIcEEEEbxydS9_NS2_14adl_serializerENS5_IhNS9_IhEEEEEERNS9_ISF_EEE5firstB7v160006Ev, symObjAddr: 0x12AEC, symBinAddr: 0x10001ABE0, symSize: 0x24 }
  - { offsetInCU: 0x69F06, offset: 0x69F06, size: 0x8, addend: 0x0, symName: __ZNKSt3__16vectorIN8nlohmann16json_abi_v3_11_210basic_jsonINS_3mapES0_NS_12basic_stringIcNS_11char_traitsIcEENS_9allocatorIcEEEEbxydS8_NS2_14adl_serializerENS0_IhNS8_IhEEEEEENS8_ISE_EEE17__annotate_deleteB7v160006Ev, symObjAddr: 0x12B10, symBinAddr: 0x10001AC04, symSize: 0xB8 }
  - { offsetInCU: 0x69F2C, offset: 0x69F2C, size: 0x8, addend: 0x0, symName: __ZNSt3__116reverse_iteratorIPN8nlohmann16json_abi_v3_11_210basic_jsonINS_3mapENS_6vectorENS_12basic_stringIcNS_11char_traitsIcEENS_9allocatorIcEEEEbxydS9_NS2_14adl_serializerENS5_IhNS9_IhEEEEEEEC1B7v160006ESG_, symObjAddr: 0x12CF4, symBinAddr: 0x10001ADE8, symSize: 0x34 }
  - { offsetInCU: 0x69F64, offset: 0x69F64, size: 0x8, addend: 0x0, symName: __ZNKSt3__116reverse_iteratorIPN8nlohmann16json_abi_v3_11_210basic_jsonINS_3mapENS_6vectorENS_12basic_stringIcNS_11char_traitsIcEENS_9allocatorIcEEEEbxydS9_NS2_14adl_serializerENS5_IhNS9_IhEEEEEEE4baseB7v160006Ev, symObjAddr: 0x12D28, symBinAddr: 0x10001AE1C, symSize: 0x18 }
  - { offsetInCU: 0x69F8A, offset: 0x69F8A, size: 0x8, addend: 0x0, symName: __ZNKSt3__16vectorIN8nlohmann16json_abi_v3_11_210basic_jsonINS_3mapES0_NS_12basic_stringIcNS_11char_traitsIcEENS_9allocatorIcEEEEbxydS8_NS2_14adl_serializerENS0_IhNS8_IhEEEEEENS8_ISE_EEE14__annotate_newB7v160006Em, symObjAddr: 0x12D7C, symBinAddr: 0x10001AE70, symSize: 0xAC }
  - { offsetInCU: 0x69FBF, offset: 0x69FBF, size: 0x8, addend: 0x0, symName: __ZNKSt3__16vectorIN8nlohmann16json_abi_v3_11_210basic_jsonINS_3mapES0_NS_12basic_stringIcNS_11char_traitsIcEENS_9allocatorIcEEEEbxydS8_NS2_14adl_serializerENS0_IhNS8_IhEEEEEENS8_ISE_EEE31__annotate_contiguous_containerB7v160006EPKvSI_SI_SI_, symObjAddr: 0x12E38, symBinAddr: 0x10001AF2C, symSize: 0x20 }
  - { offsetInCU: 0x6A015, offset: 0x6A015, size: 0x8, addend: 0x0, symName: __ZNKSt3__16vectorIN8nlohmann16json_abi_v3_11_210basic_jsonINS_3mapES0_NS_12basic_stringIcNS_11char_traitsIcEENS_9allocatorIcEEEEbxydS8_NS2_14adl_serializerENS0_IhNS8_IhEEEEEENS8_ISE_EEE4dataB7v160006Ev, symObjAddr: 0x12E58, symBinAddr: 0x10001AF4C, symSize: 0x28 }
  - { offsetInCU: 0x6A03B, offset: 0x6A03B, size: 0x8, addend: 0x0, symName: __ZNSt3__129_AllocatorDestroyRangeReverseINS_9allocatorIN8nlohmann16json_abi_v3_11_210basic_jsonINS_3mapENS_6vectorENS_12basic_stringIcNS_11char_traitsIcEENS1_IcEEEEbxydS1_NS3_14adl_serializerENS6_IhNS1_IhEEEEEEEENS_16reverse_iteratorIPSF_EEEC1B7v160006ERSG_RSJ_SM_, symObjAddr: 0x12ECC, symBinAddr: 0x10001AFC0, symSize: 0x44 }
  - { offsetInCU: 0x6A092, offset: 0x6A092, size: 0x8, addend: 0x0, symName: __ZNKSt3__116reverse_iteratorIPN8nlohmann16json_abi_v3_11_210basic_jsonINS_3mapENS_6vectorENS_12basic_stringIcNS_11char_traitsIcEENS_9allocatorIcEEEEbxydS9_NS2_14adl_serializerENS5_IhNS9_IhEEEEEEEdeB7v160006Ev, symObjAddr: 0x12F7C, symBinAddr: 0x10001B070, symSize: 0x28 }
  - { offsetInCU: 0x6A0C6, offset: 0x6A0C6, size: 0x8, addend: 0x0, symName: __ZNSt3__116reverse_iteratorIPN8nlohmann16json_abi_v3_11_210basic_jsonINS_3mapENS_6vectorENS_12basic_stringIcNS_11char_traitsIcEENS_9allocatorIcEEEEbxydS9_NS2_14adl_serializerENS5_IhNS9_IhEEEEEEEppB7v160006Ev, symObjAddr: 0x12FA4, symBinAddr: 0x10001B098, symSize: 0x20 }
  - { offsetInCU: 0x6A0EC, offset: 0x6A0EC, size: 0x8, addend: 0x0, symName: __ZNSt3__128__exception_guard_exceptionsINS_29_AllocatorDestroyRangeReverseINS_9allocatorIN8nlohmann16json_abi_v3_11_210basic_jsonINS_3mapENS_6vectorENS_12basic_stringIcNS_11char_traitsIcEENS2_IcEEEEbxydS2_NS4_14adl_serializerENS7_IhNS2_IhEEEEEEEENS_16reverse_iteratorIPSG_EEEEE10__completeB7v160006Ev, symObjAddr: 0x12FC4, symBinAddr: 0x10001B0B8, symSize: 0x1C }
  - { offsetInCU: 0x6A112, offset: 0x6A112, size: 0x8, addend: 0x0, symName: __ZNSt3__128__exception_guard_exceptionsINS_29_AllocatorDestroyRangeReverseINS_9allocatorIN8nlohmann16json_abi_v3_11_210basic_jsonINS_3mapENS_6vectorENS_12basic_stringIcNS_11char_traitsIcEENS2_IcEEEEbxydS2_NS4_14adl_serializerENS7_IhNS2_IhEEEEEEEENS_16reverse_iteratorIPSG_EEEEED1B7v160006Ev, symObjAddr: 0x12FE0, symBinAddr: 0x10001B0D4, symSize: 0x2C }
  - { offsetInCU: 0x6A13C, offset: 0x6A13C, size: 0x8, addend: 0x0, symName: __ZNSt3__128__exception_guard_exceptionsINS_29_AllocatorDestroyRangeReverseINS_9allocatorIN8nlohmann16json_abi_v3_11_210basic_jsonINS_3mapENS_6vectorENS_12basic_stringIcNS_11char_traitsIcEENS2_IcEEEEbxydS2_NS4_14adl_serializerENS7_IhNS2_IhEEEEEEEENS_16reverse_iteratorIPSG_EEEEEC1B7v160006ESL_, symObjAddr: 0x1300C, symBinAddr: 0x10001B100, symSize: 0x34 }
  - { offsetInCU: 0x6A175, offset: 0x6A175, size: 0x8, addend: 0x0, symName: __ZNSt3__128__exception_guard_exceptionsINS_29_AllocatorDestroyRangeReverseINS_9allocatorIN8nlohmann16json_abi_v3_11_210basic_jsonINS_3mapENS_6vectorENS_12basic_stringIcNS_11char_traitsIcEENS2_IcEEEEbxydS2_NS4_14adl_serializerENS7_IhNS2_IhEEEEEEEENS_16reverse_iteratorIPSG_EEEEEC2B7v160006ESL_, symObjAddr: 0x13040, symBinAddr: 0x10001B134, symSize: 0x30 }
  - { offsetInCU: 0x6A1AE, offset: 0x6A1AE, size: 0x8, addend: 0x0, symName: __ZNSt3__129_AllocatorDestroyRangeReverseINS_9allocatorIN8nlohmann16json_abi_v3_11_210basic_jsonINS_3mapENS_6vectorENS_12basic_stringIcNS_11char_traitsIcEENS1_IcEEEEbxydS1_NS3_14adl_serializerENS6_IhNS1_IhEEEEEEEENS_16reverse_iteratorIPSF_EEEC2B7v160006ERSG_RSJ_SM_, symObjAddr: 0x13070, symBinAddr: 0x10001B164, symSize: 0x38 }
  - { offsetInCU: 0x6A20B, offset: 0x6A20B, size: 0x8, addend: 0x0, symName: __ZNSt3__119__to_address_helperINS_16reverse_iteratorIPN8nlohmann16json_abi_v3_11_210basic_jsonINS_3mapENS_6vectorENS_12basic_stringIcNS_11char_traitsIcEENS_9allocatorIcEEEEbxydSA_NS3_14adl_serializerENS6_IhNSA_IhEEEEEEEEvE6__callB7v160006ERKSI_, symObjAddr: 0x130A8, symBinAddr: 0x10001B19C, symSize: 0x38 }
  - { offsetInCU: 0x6A22E, offset: 0x6A22E, size: 0x8, addend: 0x0, symName: __ZNKSt3__116reverse_iteratorIPN8nlohmann16json_abi_v3_11_210basic_jsonINS_3mapENS_6vectorENS_12basic_stringIcNS_11char_traitsIcEENS_9allocatorIcEEEEbxydS9_NS2_14adl_serializerENS5_IhNS9_IhEEEEEEEptB7v160006Ev, symObjAddr: 0x130E0, symBinAddr: 0x10001B1D4, symSize: 0x24 }
  - { offsetInCU: 0x6A254, offset: 0x6A254, size: 0x8, addend: 0x0, symName: __ZNSt3__128__exception_guard_exceptionsINS_29_AllocatorDestroyRangeReverseINS_9allocatorIN8nlohmann16json_abi_v3_11_210basic_jsonINS_3mapENS_6vectorENS_12basic_stringIcNS_11char_traitsIcEENS2_IcEEEEbxydS2_NS4_14adl_serializerENS7_IhNS2_IhEEEEEEEENS_16reverse_iteratorIPSG_EEEEED2B7v160006Ev, symObjAddr: 0x13104, symBinAddr: 0x10001B1F8, symSize: 0x50 }
  - { offsetInCU: 0x6A27E, offset: 0x6A27E, size: 0x8, addend: 0x0, symName: __ZNKSt3__129_AllocatorDestroyRangeReverseINS_9allocatorIN8nlohmann16json_abi_v3_11_210basic_jsonINS_3mapENS_6vectorENS_12basic_stringIcNS_11char_traitsIcEENS1_IcEEEEbxydS1_NS3_14adl_serializerENS6_IhNS1_IhEEEEEEEENS_16reverse_iteratorIPSF_EEEclB7v160006Ev, symObjAddr: 0x13154, symBinAddr: 0x10001B248, symSize: 0xB4 }
  - { offsetInCU: 0x6A2A5, offset: 0x6A2A5, size: 0x8, addend: 0x0, symName: __ZNSt3__116reverse_iteratorINS0_IPN8nlohmann16json_abi_v3_11_210basic_jsonINS_3mapENS_6vectorENS_12basic_stringIcNS_11char_traitsIcEENS_9allocatorIcEEEEbxydS9_NS2_14adl_serializerENS5_IhNS9_IhEEEEEEEEEC1B7v160006ESH_, symObjAddr: 0x13278, symBinAddr: 0x10001B36C, symSize: 0x3C }
  - { offsetInCU: 0x6A2DD, offset: 0x6A2DD, size: 0x8, addend: 0x0, symName: __ZNSt3__116allocator_traitsINS_9allocatorIN8nlohmann16json_abi_v3_11_210basic_jsonINS_3mapENS_6vectorENS_12basic_stringIcNS_11char_traitsIcEENS1_IcEEEEbxydS1_NS3_14adl_serializerENS6_IhNS1_IhEEEEEEEEE7destroyB7v160006ISF_vEEvRSG_PT_, symObjAddr: 0x13314, symBinAddr: 0x10001B408, symSize: 0x2C }
  - { offsetInCU: 0x6A31A, offset: 0x6A31A, size: 0x8, addend: 0x0, symName: __ZNSt3__116reverse_iteratorINS0_IPN8nlohmann16json_abi_v3_11_210basic_jsonINS_3mapENS_6vectorENS_12basic_stringIcNS_11char_traitsIcEENS_9allocatorIcEEEEbxydS9_NS2_14adl_serializerENS5_IhNS9_IhEEEEEEEEEppB7v160006Ev, symObjAddr: 0x13364, symBinAddr: 0x10001B458, symSize: 0x30 }
  - { offsetInCU: 0x6A340, offset: 0x6A340, size: 0x8, addend: 0x0, symName: __ZNKSt3__116reverse_iteratorINS0_IPN8nlohmann16json_abi_v3_11_210basic_jsonINS_3mapENS_6vectorENS_12basic_stringIcNS_11char_traitsIcEENS_9allocatorIcEEEEbxydS9_NS2_14adl_serializerENS5_IhNS9_IhEEEEEEEEE4baseB7v160006Ev, symObjAddr: 0x13394, symBinAddr: 0x10001B488, symSize: 0x24 }
  - { offsetInCU: 0x6A366, offset: 0x6A366, size: 0x8, addend: 0x0, symName: __ZNSt3__19allocatorIN8nlohmann16json_abi_v3_11_210basic_jsonINS_3mapENS_6vectorENS_12basic_stringIcNS_11char_traitsIcEENS0_IcEEEEbxydS0_NS2_14adl_serializerENS5_IhNS0_IhEEEEEEE7destroyB7v160006EPSE_, symObjAddr: 0x133B8, symBinAddr: 0x10001B4AC, symSize: 0x28 }
  - { offsetInCU: 0x6A3A0, offset: 0x6A3A0, size: 0x8, addend: 0x0, symName: __ZNSt3__119__to_address_helperINS_16reverse_iteratorINS1_IPN8nlohmann16json_abi_v3_11_210basic_jsonINS_3mapENS_6vectorENS_12basic_stringIcNS_11char_traitsIcEENS_9allocatorIcEEEEbxydSA_NS3_14adl_serializerENS6_IhNSA_IhEEEEEEEEEEvE6__callB7v160006ERKSJ_, symObjAddr: 0x133E0, symBinAddr: 0x10001B4D4, symSize: 0x38 }
  - { offsetInCU: 0x6A3C3, offset: 0x6A3C3, size: 0x8, addend: 0x0, symName: __ZNKSt3__116reverse_iteratorINS0_IPN8nlohmann16json_abi_v3_11_210basic_jsonINS_3mapENS_6vectorENS_12basic_stringIcNS_11char_traitsIcEENS_9allocatorIcEEEEbxydS9_NS2_14adl_serializerENS5_IhNS9_IhEEEEEEEEEptB7v160006Ev, symObjAddr: 0x13418, symBinAddr: 0x10001B50C, symSize: 0x24 }
  - { offsetInCU: 0x6A3E9, offset: 0x6A3E9, size: 0x8, addend: 0x0, symName: __ZNKSt3__116reverse_iteratorINS0_IPN8nlohmann16json_abi_v3_11_210basic_jsonINS_3mapENS_6vectorENS_12basic_stringIcNS_11char_traitsIcEENS_9allocatorIcEEEEbxydS9_NS2_14adl_serializerENS5_IhNS9_IhEEEEEEEEEdeB7v160006Ev, symObjAddr: 0x1343C, symBinAddr: 0x10001B530, symSize: 0x34 }
  - { offsetInCU: 0x6A41D, offset: 0x6A41D, size: 0x8, addend: 0x0, symName: __ZNSt3__116reverse_iteratorIPN8nlohmann16json_abi_v3_11_210basic_jsonINS_3mapENS_6vectorENS_12basic_stringIcNS_11char_traitsIcEENS_9allocatorIcEEEEbxydS9_NS2_14adl_serializerENS5_IhNS9_IhEEEEEEEmmB7v160006Ev, symObjAddr: 0x13470, symBinAddr: 0x10001B564, symSize: 0x20 }
  - { offsetInCU: 0x6A443, offset: 0x6A443, size: 0x8, addend: 0x0, symName: __ZNSt3__116reverse_iteratorINS0_IPN8nlohmann16json_abi_v3_11_210basic_jsonINS_3mapENS_6vectorENS_12basic_stringIcNS_11char_traitsIcEENS_9allocatorIcEEEEbxydS9_NS2_14adl_serializerENS5_IhNS9_IhEEEEEEEEEC2B7v160006ESH_, symObjAddr: 0x13490, symBinAddr: 0x10001B584, symSize: 0x2C }
  - { offsetInCU: 0x6A47B, offset: 0x6A47B, size: 0x8, addend: 0x0, symName: __ZNSt3__116reverse_iteratorIPN8nlohmann16json_abi_v3_11_210basic_jsonINS_3mapENS_6vectorENS_12basic_stringIcNS_11char_traitsIcEENS_9allocatorIcEEEEbxydS9_NS2_14adl_serializerENS5_IhNS9_IhEEEEEEEC2B7v160006ESG_, symObjAddr: 0x134BC, symBinAddr: 0x10001B5B0, symSize: 0x28 }
  - { offsetInCU: 0x6A4B3, offset: 0x6A4B3, size: 0x8, addend: 0x0, symName: __ZNSt3__114__split_bufferIN8nlohmann16json_abi_v3_11_210basic_jsonINS_3mapENS_6vectorENS_12basic_stringIcNS_11char_traitsIcEENS_9allocatorIcEEEEbxydS9_NS2_14adl_serializerENS5_IhNS9_IhEEEEEERNS9_ISF_EEED2Ev, symObjAddr: 0x134E4, symBinAddr: 0x10001B5D8, symSize: 0x8C }
  - { offsetInCU: 0x6A4DF, offset: 0x6A4DF, size: 0x8, addend: 0x0, symName: __ZNSt3__114__split_bufferIN8nlohmann16json_abi_v3_11_210basic_jsonINS_3mapENS_6vectorENS_12basic_stringIcNS_11char_traitsIcEENS_9allocatorIcEEEEbxydS9_NS2_14adl_serializerENS5_IhNS9_IhEEEEEERNS9_ISF_EEE5clearB7v160006Ev, symObjAddr: 0x13570, symBinAddr: 0x10001B664, symSize: 0x28 }
  - { offsetInCU: 0x6A505, offset: 0x6A505, size: 0x8, addend: 0x0, symName: __ZNSt3__116allocator_traitsINS_9allocatorIN8nlohmann16json_abi_v3_11_210basic_jsonINS_3mapENS_6vectorENS_12basic_stringIcNS_11char_traitsIcEENS1_IcEEEEbxydS1_NS3_14adl_serializerENS6_IhNS1_IhEEEEEEEEE10deallocateB7v160006ERSG_PSF_m, symObjAddr: 0x13598, symBinAddr: 0x10001B68C, symSize: 0x34 }
  - { offsetInCU: 0x6A547, offset: 0x6A547, size: 0x8, addend: 0x0, symName: __ZNKSt3__114__split_bufferIN8nlohmann16json_abi_v3_11_210basic_jsonINS_3mapENS_6vectorENS_12basic_stringIcNS_11char_traitsIcEENS_9allocatorIcEEEEbxydS9_NS2_14adl_serializerENS5_IhNS9_IhEEEEEERNS9_ISF_EEE8capacityB7v160006Ev, symObjAddr: 0x135CC, symBinAddr: 0x10001B6C0, symSize: 0x40 }
  - { offsetInCU: 0x6A56D, offset: 0x6A56D, size: 0x8, addend: 0x0, symName: __ZNSt3__114__split_bufferIN8nlohmann16json_abi_v3_11_210basic_jsonINS_3mapENS_6vectorENS_12basic_stringIcNS_11char_traitsIcEENS_9allocatorIcEEEEbxydS9_NS2_14adl_serializerENS5_IhNS9_IhEEEEEERNS9_ISF_EEE17__destruct_at_endB7v160006EPSF_, symObjAddr: 0x1360C, symBinAddr: 0x10001B700, symSize: 0x2C }
  - { offsetInCU: 0x6A5A1, offset: 0x6A5A1, size: 0x8, addend: 0x0, symName: __ZNSt3__114__split_bufferIN8nlohmann16json_abi_v3_11_210basic_jsonINS_3mapENS_6vectorENS_12basic_stringIcNS_11char_traitsIcEENS_9allocatorIcEEEEbxydS9_NS2_14adl_serializerENS5_IhNS9_IhEEEEEERNS9_ISF_EEE17__destruct_at_endB7v160006EPSF_NS_17integral_constantIbLb0EEE, symObjAddr: 0x13638, symBinAddr: 0x10001B72C, symSize: 0x80 }
  - { offsetInCU: 0x6A5E2, offset: 0x6A5E2, size: 0x8, addend: 0x0, symName: __ZNSt3__19allocatorIN8nlohmann16json_abi_v3_11_210basic_jsonINS_3mapENS_6vectorENS_12basic_stringIcNS_11char_traitsIcEENS0_IcEEEEbxydS0_NS2_14adl_serializerENS5_IhNS0_IhEEEEEEE10deallocateB7v160006EPSE_m, symObjAddr: 0x136B8, symBinAddr: 0x10001B7AC, symSize: 0x40 }
  - { offsetInCU: 0x6A624, offset: 0x6A624, size: 0x8, addend: 0x0, symName: __ZNKSt3__114__split_bufferIN8nlohmann16json_abi_v3_11_210basic_jsonINS_3mapENS_6vectorENS_12basic_stringIcNS_11char_traitsIcEENS_9allocatorIcEEEEbxydS9_NS2_14adl_serializerENS5_IhNS9_IhEEEEEERNS9_ISF_EEE9__end_capB7v160006Ev, symObjAddr: 0x136F8, symBinAddr: 0x10001B7EC, symSize: 0x28 }
  - { offsetInCU: 0x6A64A, offset: 0x6A64A, size: 0x8, addend: 0x0, symName: __ZNKSt3__117__compressed_pairIPN8nlohmann16json_abi_v3_11_210basic_jsonINS_3mapENS_6vectorENS_12basic_stringIcNS_11char_traitsIcEENS_9allocatorIcEEEEbxydS9_NS2_14adl_serializerENS5_IhNS9_IhEEEEEERNS9_ISF_EEE5firstB7v160006Ev, symObjAddr: 0x13720, symBinAddr: 0x10001B814, symSize: 0x24 }
  - { offsetInCU: 0x6A670, offset: 0x6A670, size: 0x8, addend: 0x0, symName: __ZNSt3__14pairIbPN8nlohmann16json_abi_v3_11_210basic_jsonINS_3mapENS_6vectorENS_12basic_stringIcNS_11char_traitsIcEENS_9allocatorIcEEEEbxydS9_NS2_14adl_serializerENS5_IhNS9_IhEEEEEEEC2B7v160006IbRSG_LPv0EEEOT_OT0_, symObjAddr: 0x13744, symBinAddr: 0x10001B838, symSize: 0x38 }
  - { offsetInCU: 0x6A6CE, offset: 0x6A6CE, size: 0x8, addend: 0x0, symName: __ZNSt3__16vectorIPN8nlohmann16json_abi_v3_11_210basic_jsonINS_3mapES0_NS_12basic_stringIcNS_11char_traitsIcEENS_9allocatorIcEEEEbxydS8_NS2_14adl_serializerENS0_IhNS8_IhEEEEEENS8_ISF_EEE9__end_capB7v160006Ev, symObjAddr: 0x1377C, symBinAddr: 0x10001B870, symSize: 0x28 }
  - { offsetInCU: 0x6A6F4, offset: 0x6A6F4, size: 0x8, addend: 0x0, symName: __ZNSt3__16vectorIPN8nlohmann16json_abi_v3_11_210basic_jsonINS_3mapES0_NS_12basic_stringIcNS_11char_traitsIcEENS_9allocatorIcEEEEbxydS8_NS2_14adl_serializerENS0_IhNS8_IhEEEEEENS8_ISF_EEE22__construct_one_at_endB7v160006IJRKSF_EEEvDpOT_, symObjAddr: 0x137A4, symBinAddr: 0x10001B898, symSize: 0x90 }
  - { offsetInCU: 0x6A743, offset: 0x6A743, size: 0x8, addend: 0x0, symName: __ZNSt3__16vectorIPN8nlohmann16json_abi_v3_11_210basic_jsonINS_3mapES0_NS_12basic_stringIcNS_11char_traitsIcEENS_9allocatorIcEEEEbxydS8_NS2_14adl_serializerENS0_IhNS8_IhEEEEEENS8_ISF_EEE21__push_back_slow_pathIRKSF_EEvOT_, symObjAddr: 0x13834, symBinAddr: 0x10001B928, symSize: 0xD8 }
  - { offsetInCU: 0x6A7A1, offset: 0x6A7A1, size: 0x8, addend: 0x0, symName: __ZNSt3__117__compressed_pairIPPN8nlohmann16json_abi_v3_11_210basic_jsonINS_3mapENS_6vectorENS_12basic_stringIcNS_11char_traitsIcEENS_9allocatorIcEEEEbxydS9_NS2_14adl_serializerENS5_IhNS9_IhEEEEEENS9_ISG_EEE5firstB7v160006Ev, symObjAddr: 0x1390C, symBinAddr: 0x10001BA00, symSize: 0x24 }
  - { offsetInCU: 0x6A7C7, offset: 0x6A7C7, size: 0x8, addend: 0x0, symName: __ZNSt3__122__compressed_pair_elemIPPN8nlohmann16json_abi_v3_11_210basic_jsonINS_3mapENS_6vectorENS_12basic_stringIcNS_11char_traitsIcEENS_9allocatorIcEEEEbxydS9_NS2_14adl_serializerENS5_IhNS9_IhEEEEEELi0ELb0EE5__getB7v160006Ev, symObjAddr: 0x13930, symBinAddr: 0x10001BA24, symSize: 0x14 }
  - { offsetInCU: 0x6A809, offset: 0x6A809, size: 0x8, addend: 0x0, symName: __ZNSt3__16vectorIPN8nlohmann16json_abi_v3_11_210basic_jsonINS_3mapES0_NS_12basic_stringIcNS_11char_traitsIcEENS_9allocatorIcEEEEbxydS8_NS2_14adl_serializerENS0_IhNS8_IhEEEEEENS8_ISF_EEE21_ConstructTransactionC1B7v160006ERSH_m, symObjAddr: 0x13944, symBinAddr: 0x10001BA38, symSize: 0x3C }
  - { offsetInCU: 0x6A851, offset: 0x6A851, size: 0x8, addend: 0x0, symName: __ZNSt3__116allocator_traitsINS_9allocatorIPN8nlohmann16json_abi_v3_11_210basic_jsonINS_3mapENS_6vectorENS_12basic_stringIcNS_11char_traitsIcEENS1_IcEEEEbxydS1_NS3_14adl_serializerENS6_IhNS1_IhEEEEEEEEE9constructB7v160006ISG_JRKSG_EvEEvRSH_PT_DpOT0_, symObjAddr: 0x13980, symBinAddr: 0x10001BA74, symSize: 0x34 }
  - { offsetInCU: 0x6A8A8, offset: 0x6A8A8, size: 0x8, addend: 0x0, symName: __ZNSt3__16vectorIPN8nlohmann16json_abi_v3_11_210basic_jsonINS_3mapES0_NS_12basic_stringIcNS_11char_traitsIcEENS_9allocatorIcEEEEbxydS8_NS2_14adl_serializerENS0_IhNS8_IhEEEEEENS8_ISF_EEE21_ConstructTransactionD1B7v160006Ev, symObjAddr: 0x139B4, symBinAddr: 0x10001BAA8, symSize: 0x2C }
  - { offsetInCU: 0x6A8D2, offset: 0x6A8D2, size: 0x8, addend: 0x0, symName: __ZNSt3__16vectorIPN8nlohmann16json_abi_v3_11_210basic_jsonINS_3mapES0_NS_12basic_stringIcNS_11char_traitsIcEENS_9allocatorIcEEEEbxydS8_NS2_14adl_serializerENS0_IhNS8_IhEEEEEENS8_ISF_EEE21_ConstructTransactionC2B7v160006ERSH_m, symObjAddr: 0x139E0, symBinAddr: 0x10001BAD4, symSize: 0x44 }
  - { offsetInCU: 0x6A91A, offset: 0x6A91A, size: 0x8, addend: 0x0, symName: __ZNSt3__19allocatorIPN8nlohmann16json_abi_v3_11_210basic_jsonINS_3mapENS_6vectorENS_12basic_stringIcNS_11char_traitsIcEENS0_IcEEEEbxydS0_NS2_14adl_serializerENS5_IhNS0_IhEEEEEEE9constructB7v160006ISF_JRKSF_EEEvPT_DpOT0_, symObjAddr: 0x13A24, symBinAddr: 0x10001BB18, symSize: 0x28 }
  - { offsetInCU: 0x6A970, offset: 0x6A970, size: 0x8, addend: 0x0, symName: __ZNSt3__16vectorIPN8nlohmann16json_abi_v3_11_210basic_jsonINS_3mapES0_NS_12basic_stringIcNS_11char_traitsIcEENS_9allocatorIcEEEEbxydS8_NS2_14adl_serializerENS0_IhNS8_IhEEEEEENS8_ISF_EEE21_ConstructTransactionD2B7v160006Ev, symObjAddr: 0x13A4C, symBinAddr: 0x10001BB40, symSize: 0x20 }
  - { offsetInCU: 0x6A99A, offset: 0x6A99A, size: 0x8, addend: 0x0, symName: __ZNKSt3__16vectorIPN8nlohmann16json_abi_v3_11_210basic_jsonINS_3mapES0_NS_12basic_stringIcNS_11char_traitsIcEENS_9allocatorIcEEEEbxydS8_NS2_14adl_serializerENS0_IhNS8_IhEEEEEENS8_ISF_EEE11__recommendB7v160006Em, symObjAddr: 0x13A6C, symBinAddr: 0x10001BB60, symSize: 0xB4 }
  - { offsetInCU: 0x6A9EF, offset: 0x6A9EF, size: 0x8, addend: 0x0, symName: __ZNSt3__114__split_bufferIPN8nlohmann16json_abi_v3_11_210basic_jsonINS_3mapENS_6vectorENS_12basic_stringIcNS_11char_traitsIcEENS_9allocatorIcEEEEbxydS9_NS2_14adl_serializerENS5_IhNS9_IhEEEEEERNS9_ISG_EEEC1EmmSI_, symObjAddr: 0x13B20, symBinAddr: 0x10001BC14, symSize: 0x44 }
  - { offsetInCU: 0x6AA45, offset: 0x6AA45, size: 0x8, addend: 0x0, symName: __ZNSt3__114__split_bufferIPN8nlohmann16json_abi_v3_11_210basic_jsonINS_3mapENS_6vectorENS_12basic_stringIcNS_11char_traitsIcEENS_9allocatorIcEEEEbxydS9_NS2_14adl_serializerENS5_IhNS9_IhEEEEEERNS9_ISG_EEED1Ev, symObjAddr: 0x13C7C, symBinAddr: 0x10001BD70, symSize: 0x2C }
  - { offsetInCU: 0x6AA71, offset: 0x6AA71, size: 0x8, addend: 0x0, symName: __ZNKSt3__16vectorIPN8nlohmann16json_abi_v3_11_210basic_jsonINS_3mapES0_NS_12basic_stringIcNS_11char_traitsIcEENS_9allocatorIcEEEEbxydS8_NS2_14adl_serializerENS0_IhNS8_IhEEEEEENS8_ISF_EEE8max_sizeEv, symObjAddr: 0x13CA8, symBinAddr: 0x10001BD9C, symSize: 0x60 }
  - { offsetInCU: 0x6AA99, offset: 0x6AA99, size: 0x8, addend: 0x0, symName: __ZNKSt3__16vectorIPN8nlohmann16json_abi_v3_11_210basic_jsonINS_3mapES0_NS_12basic_stringIcNS_11char_traitsIcEENS_9allocatorIcEEEEbxydS8_NS2_14adl_serializerENS0_IhNS8_IhEEEEEENS8_ISF_EEE20__throw_length_errorB7v160006Ev, symObjAddr: 0x13D08, symBinAddr: 0x10001BDFC, symSize: 0x1C }
  - { offsetInCU: 0x6AACA, offset: 0x6AACA, size: 0x8, addend: 0x0, symName: __ZNSt3__116allocator_traitsINS_9allocatorIPN8nlohmann16json_abi_v3_11_210basic_jsonINS_3mapENS_6vectorENS_12basic_stringIcNS_11char_traitsIcEENS1_IcEEEEbxydS1_NS3_14adl_serializerENS6_IhNS1_IhEEEEEEEEE8max_sizeB7v160006ISH_vEEmRKSH_, symObjAddr: 0x13D24, symBinAddr: 0x10001BE18, symSize: 0x24 }
  - { offsetInCU: 0x6AAF8, offset: 0x6AAF8, size: 0x8, addend: 0x0, symName: __ZNKSt3__16vectorIPN8nlohmann16json_abi_v3_11_210basic_jsonINS_3mapES0_NS_12basic_stringIcNS_11char_traitsIcEENS_9allocatorIcEEEEbxydS8_NS2_14adl_serializerENS0_IhNS8_IhEEEEEENS8_ISF_EEE7__allocB7v160006Ev, symObjAddr: 0x13D48, symBinAddr: 0x10001BE3C, symSize: 0x28 }
  - { offsetInCU: 0x6AB1E, offset: 0x6AB1E, size: 0x8, addend: 0x0, symName: __ZNKSt3__19allocatorIPN8nlohmann16json_abi_v3_11_210basic_jsonINS_3mapENS_6vectorENS_12basic_stringIcNS_11char_traitsIcEENS0_IcEEEEbxydS0_NS2_14adl_serializerENS5_IhNS0_IhEEEEEEE8max_sizeB7v160006Ev, symObjAddr: 0x13D70, symBinAddr: 0x10001BE64, symSize: 0x14 }
  - { offsetInCU: 0x6AB44, offset: 0x6AB44, size: 0x8, addend: 0x0, symName: __ZNKSt3__117__compressed_pairIPPN8nlohmann16json_abi_v3_11_210basic_jsonINS_3mapENS_6vectorENS_12basic_stringIcNS_11char_traitsIcEENS_9allocatorIcEEEEbxydS9_NS2_14adl_serializerENS5_IhNS9_IhEEEEEENS9_ISG_EEE6secondB7v160006Ev, symObjAddr: 0x13D84, symBinAddr: 0x10001BE78, symSize: 0x24 }
  - { offsetInCU: 0x6AB6A, offset: 0x6AB6A, size: 0x8, addend: 0x0, symName: __ZNKSt3__122__compressed_pair_elemINS_9allocatorIPN8nlohmann16json_abi_v3_11_210basic_jsonINS_3mapENS_6vectorENS_12basic_stringIcNS_11char_traitsIcEENS1_IcEEEEbxydS1_NS3_14adl_serializerENS6_IhNS1_IhEEEEEEEELi1ELb1EE5__getB7v160006Ev, symObjAddr: 0x13DA8, symBinAddr: 0x10001BE9C, symSize: 0x14 }
  - { offsetInCU: 0x6AB90, offset: 0x6AB90, size: 0x8, addend: 0x0, symName: __ZNSt3__114__split_bufferIPN8nlohmann16json_abi_v3_11_210basic_jsonINS_3mapENS_6vectorENS_12basic_stringIcNS_11char_traitsIcEENS_9allocatorIcEEEEbxydS9_NS2_14adl_serializerENS5_IhNS9_IhEEEEEERNS9_ISG_EEEC2EmmSI_, symObjAddr: 0x13DBC, symBinAddr: 0x10001BEB0, symSize: 0xD4 }
  - { offsetInCU: 0x6AC03, offset: 0x6AC03, size: 0x8, addend: 0x0, symName: __ZNSt3__117__compressed_pairIPPN8nlohmann16json_abi_v3_11_210basic_jsonINS_3mapENS_6vectorENS_12basic_stringIcNS_11char_traitsIcEENS_9allocatorIcEEEEbxydS9_NS2_14adl_serializerENS5_IhNS9_IhEEEEEERNS9_ISG_EEEC1B7v160006IDnSJ_EEOT_OT0_, symObjAddr: 0x13E90, symBinAddr: 0x10001BF84, symSize: 0x3C }
  - { offsetInCU: 0x6AC5B, offset: 0x6AC5B, size: 0x8, addend: 0x0, symName: __ZNSt3__114__split_bufferIPN8nlohmann16json_abi_v3_11_210basic_jsonINS_3mapENS_6vectorENS_12basic_stringIcNS_11char_traitsIcEENS_9allocatorIcEEEEbxydS9_NS2_14adl_serializerENS5_IhNS9_IhEEEEEERNS9_ISG_EEE7__allocB7v160006Ev, symObjAddr: 0x13F0C, symBinAddr: 0x10001C000, symSize: 0x28 }
  - { offsetInCU: 0x6AC81, offset: 0x6AC81, size: 0x8, addend: 0x0, symName: __ZNSt3__114__split_bufferIPN8nlohmann16json_abi_v3_11_210basic_jsonINS_3mapENS_6vectorENS_12basic_stringIcNS_11char_traitsIcEENS_9allocatorIcEEEEbxydS9_NS2_14adl_serializerENS5_IhNS9_IhEEEEEERNS9_ISG_EEE9__end_capB7v160006Ev, symObjAddr: 0x13F34, symBinAddr: 0x10001C028, symSize: 0x28 }
  - { offsetInCU: 0x6ACA7, offset: 0x6ACA7, size: 0x8, addend: 0x0, symName: __ZNSt3__117__compressed_pairIPPN8nlohmann16json_abi_v3_11_210basic_jsonINS_3mapENS_6vectorENS_12basic_stringIcNS_11char_traitsIcEENS_9allocatorIcEEEEbxydS9_NS2_14adl_serializerENS5_IhNS9_IhEEEEEERNS9_ISG_EEEC2B7v160006IDnSJ_EEOT_OT0_, symObjAddr: 0x13F5C, symBinAddr: 0x10001C050, symSize: 0x48 }
  - { offsetInCU: 0x6ACFF, offset: 0x6ACFF, size: 0x8, addend: 0x0, symName: __ZNSt3__122__compressed_pair_elemIRNS_9allocatorIPN8nlohmann16json_abi_v3_11_210basic_jsonINS_3mapENS_6vectorENS_12basic_stringIcNS_11char_traitsIcEENS1_IcEEEEbxydS1_NS3_14adl_serializerENS6_IhNS1_IhEEEEEEEELi1ELb0EEC2B7v160006ISI_vEEOT_, symObjAddr: 0x13FA4, symBinAddr: 0x10001C098, symSize: 0x20 }
  - { offsetInCU: 0x6AD41, offset: 0x6AD41, size: 0x8, addend: 0x0, symName: __ZNSt3__19allocatorIPN8nlohmann16json_abi_v3_11_210basic_jsonINS_3mapENS_6vectorENS_12basic_stringIcNS_11char_traitsIcEENS0_IcEEEEbxydS0_NS2_14adl_serializerENS5_IhNS0_IhEEEEEEE8allocateB7v160006Em, symObjAddr: 0x13FC4, symBinAddr: 0x10001C0B8, symSize: 0x58 }
  - { offsetInCU: 0x6AD75, offset: 0x6AD75, size: 0x8, addend: 0x0, symName: __ZNSt3__117__compressed_pairIPPN8nlohmann16json_abi_v3_11_210basic_jsonINS_3mapENS_6vectorENS_12basic_stringIcNS_11char_traitsIcEENS_9allocatorIcEEEEbxydS9_NS2_14adl_serializerENS5_IhNS9_IhEEEEEERNS9_ISG_EEE6secondB7v160006Ev, symObjAddr: 0x1401C, symBinAddr: 0x10001C110, symSize: 0x28 }
  - { offsetInCU: 0x6AD9B, offset: 0x6AD9B, size: 0x8, addend: 0x0, symName: __ZNSt3__122__compressed_pair_elemIRNS_9allocatorIPN8nlohmann16json_abi_v3_11_210basic_jsonINS_3mapENS_6vectorENS_12basic_stringIcNS_11char_traitsIcEENS1_IcEEEEbxydS1_NS3_14adl_serializerENS6_IhNS1_IhEEEEEEEELi1ELb0EE5__getB7v160006Ev, symObjAddr: 0x14044, symBinAddr: 0x10001C138, symSize: 0x18 }
  - { offsetInCU: 0x6ADC1, offset: 0x6ADC1, size: 0x8, addend: 0x0, symName: __ZNSt3__117__compressed_pairIPPN8nlohmann16json_abi_v3_11_210basic_jsonINS_3mapENS_6vectorENS_12basic_stringIcNS_11char_traitsIcEENS_9allocatorIcEEEEbxydS9_NS2_14adl_serializerENS5_IhNS9_IhEEEEEERNS9_ISG_EEE5firstB7v160006Ev, symObjAddr: 0x1405C, symBinAddr: 0x10001C150, symSize: 0x24 }
  - { offsetInCU: 0x6ADE7, offset: 0x6ADE7, size: 0x8, addend: 0x0, symName: __ZNSt3__116reverse_iteratorIPPN8nlohmann16json_abi_v3_11_210basic_jsonINS_3mapENS_6vectorENS_12basic_stringIcNS_11char_traitsIcEENS_9allocatorIcEEEEbxydS9_NS2_14adl_serializerENS5_IhNS9_IhEEEEEEEC1B7v160006ESH_, symObjAddr: 0x140F8, symBinAddr: 0x10001C1EC, symSize: 0x34 }
  - { offsetInCU: 0x6AE1F, offset: 0x6AE1F, size: 0x8, addend: 0x0, symName: __ZNKSt3__116reverse_iteratorIPPN8nlohmann16json_abi_v3_11_210basic_jsonINS_3mapENS_6vectorENS_12basic_stringIcNS_11char_traitsIcEENS_9allocatorIcEEEEbxydS9_NS2_14adl_serializerENS5_IhNS9_IhEEEEEEE4baseB7v160006Ev, symObjAddr: 0x1412C, symBinAddr: 0x10001C220, symSize: 0x18 }
  - { offsetInCU: 0x6AE45, offset: 0x6AE45, size: 0x8, addend: 0x0, symName: __ZNKSt3__16vectorIPN8nlohmann16json_abi_v3_11_210basic_jsonINS_3mapES0_NS_12basic_stringIcNS_11char_traitsIcEENS_9allocatorIcEEEEbxydS8_NS2_14adl_serializerENS0_IhNS8_IhEEEEEENS8_ISF_EEE14__annotate_newB7v160006Em, symObjAddr: 0x14180, symBinAddr: 0x10001C274, symSize: 0xAC }
  - { offsetInCU: 0x6AE97, offset: 0x6AE97, size: 0x8, addend: 0x0, symName: __ZNKSt3__111__move_loopINS_17_ClassicAlgPolicyEEclB7v160006INS_16reverse_iteratorIPPN8nlohmann16json_abi_v3_11_210basic_jsonINS_3mapENS_6vectorENS_12basic_stringIcNS_11char_traitsIcEENS_9allocatorIcEEEEbxydSD_NS6_14adl_serializerENS9_IhNSD_IhEEEEEEEESM_SM_EENS_4pairIT_T1_EESO_T0_SP_, symObjAddr: 0x1452C, symBinAddr: 0x10001C620, symSize: 0xA0 }
  - { offsetInCU: 0x6AF02, offset: 0x6AF02, size: 0x8, addend: 0x0, symName: __ZNSt3__18_IterOpsINS_17_ClassicAlgPolicyEE11__iter_moveB7v160006IRNS_16reverse_iteratorIPPN8nlohmann16json_abi_v3_11_210basic_jsonINS_3mapENS_6vectorENS_12basic_stringIcNS_11char_traitsIcEENS_9allocatorIcEEEEbxydSD_NS6_14adl_serializerENS9_IhNSD_IhEEEEEEEEEENS_9enable_ifIXsr12is_referenceIDTdeclsr3stdE7declvalIRT_EEEEE5valueEDTclsr3stdE4movedeclsr3stdE7declvalISQ_EEEEE4typeEOSP_, symObjAddr: 0x14760, symBinAddr: 0x10001C854, symSize: 0x28 }
  - { offsetInCU: 0x6AF2E, offset: 0x6AF2E, size: 0x8, addend: 0x0, symName: __ZNKSt3__116reverse_iteratorIPPN8nlohmann16json_abi_v3_11_210basic_jsonINS_3mapENS_6vectorENS_12basic_stringIcNS_11char_traitsIcEENS_9allocatorIcEEEEbxydS9_NS2_14adl_serializerENS5_IhNS9_IhEEEEEEEdeB7v160006Ev, symObjAddr: 0x14788, symBinAddr: 0x10001C87C, symSize: 0x28 }
  - { offsetInCU: 0x6AF62, offset: 0x6AF62, size: 0x8, addend: 0x0, symName: __ZNSt3__116reverse_iteratorIPPN8nlohmann16json_abi_v3_11_210basic_jsonINS_3mapENS_6vectorENS_12basic_stringIcNS_11char_traitsIcEENS_9allocatorIcEEEEbxydS9_NS2_14adl_serializerENS5_IhNS9_IhEEEEEEEppB7v160006Ev, symObjAddr: 0x147B0, symBinAddr: 0x10001C8A4, symSize: 0x20 }
  - { offsetInCU: 0x6AF88, offset: 0x6AF88, size: 0x8, addend: 0x0, symName: __ZNSt3__18_IterOpsINS_17_ClassicAlgPolicyEE25__validate_iter_referenceB7v160006IRNS_16reverse_iteratorIPPN8nlohmann16json_abi_v3_11_210basic_jsonINS_3mapENS_6vectorENS_12basic_stringIcNS_11char_traitsIcEENS_9allocatorIcEEEEbxydSD_NS6_14adl_serializerENS9_IhNSD_IhEEEEEEEEEEvv, symObjAddr: 0x147D0, symBinAddr: 0x10001C8C4, symSize: 0x4 }
  - { offsetInCU: 0x6AFA6, offset: 0x6AFA6, size: 0x8, addend: 0x0, symName: __ZNSt3__118__unwrap_iter_implINS_16reverse_iteratorIPPN8nlohmann16json_abi_v3_11_210basic_jsonINS_3mapENS_6vectorENS_12basic_stringIcNS_11char_traitsIcEENS_9allocatorIcEEEEbxydSA_NS3_14adl_serializerENS6_IhNSA_IhEEEEEEEELb0EE8__unwrapB7v160006ESJ_, symObjAddr: 0x147D4, symBinAddr: 0x10001C8C8, symSize: 0x24 }
  - { offsetInCU: 0x6AFCF, offset: 0x6AFCF, size: 0x8, addend: 0x0, symName: __ZNSt3__14pairINS_16reverse_iteratorIPPN8nlohmann16json_abi_v3_11_210basic_jsonINS_3mapENS_6vectorENS_12basic_stringIcNS_11char_traitsIcEENS_9allocatorIcEEEEbxydSA_NS3_14adl_serializerENS6_IhNSA_IhEEEEEEEESJ_EC1B7v160006ISJ_SJ_LPv0EEEOT_OT0_, symObjAddr: 0x147F8, symBinAddr: 0x10001C8EC, symSize: 0x3C }
  - { offsetInCU: 0x6B02D, offset: 0x6B02D, size: 0x8, addend: 0x0, symName: __ZNSt3__14pairINS_16reverse_iteratorIPPN8nlohmann16json_abi_v3_11_210basic_jsonINS_3mapENS_6vectorENS_12basic_stringIcNS_11char_traitsIcEENS_9allocatorIcEEEEbxydSA_NS3_14adl_serializerENS6_IhNSA_IhEEEEEEEESJ_EC2B7v160006ISJ_SJ_LPv0EEEOT_OT0_, symObjAddr: 0x14834, symBinAddr: 0x10001C928, symSize: 0x34 }
  - { offsetInCU: 0x6B08B, offset: 0x6B08B, size: 0x8, addend: 0x0, symName: __ZNSt3__118__unwrap_iter_implINS_16reverse_iteratorIPPN8nlohmann16json_abi_v3_11_210basic_jsonINS_3mapENS_6vectorENS_12basic_stringIcNS_11char_traitsIcEENS_9allocatorIcEEEEbxydSA_NS3_14adl_serializerENS6_IhNSA_IhEEEEEEEELb0EE8__rewrapB7v160006ESJ_SJ_, symObjAddr: 0x14868, symBinAddr: 0x10001C95C, symSize: 0x2C }
  - { offsetInCU: 0x6B0B9, offset: 0x6B0B9, size: 0x8, addend: 0x0, symName: __ZNSt3__116reverse_iteratorIPPN8nlohmann16json_abi_v3_11_210basic_jsonINS_3mapENS_6vectorENS_12basic_stringIcNS_11char_traitsIcEENS_9allocatorIcEEEEbxydS9_NS2_14adl_serializerENS5_IhNS9_IhEEEEEEEC2B7v160006ESH_, symObjAddr: 0x14894, symBinAddr: 0x10001C988, symSize: 0x28 }
  - { offsetInCU: 0x6B0F1, offset: 0x6B0F1, size: 0x8, addend: 0x0, symName: __ZNSt3__114__split_bufferIPN8nlohmann16json_abi_v3_11_210basic_jsonINS_3mapENS_6vectorENS_12basic_stringIcNS_11char_traitsIcEENS_9allocatorIcEEEEbxydS9_NS2_14adl_serializerENS5_IhNS9_IhEEEEEERNS9_ISG_EEED2Ev, symObjAddr: 0x148BC, symBinAddr: 0x10001C9B0, symSize: 0x8C }
  - { offsetInCU: 0x6B11D, offset: 0x6B11D, size: 0x8, addend: 0x0, symName: __ZNSt3__114__split_bufferIPN8nlohmann16json_abi_v3_11_210basic_jsonINS_3mapENS_6vectorENS_12basic_stringIcNS_11char_traitsIcEENS_9allocatorIcEEEEbxydS9_NS2_14adl_serializerENS5_IhNS9_IhEEEEEERNS9_ISG_EEE5clearB7v160006Ev, symObjAddr: 0x14948, symBinAddr: 0x10001CA3C, symSize: 0x28 }
  - { offsetInCU: 0x6B143, offset: 0x6B143, size: 0x8, addend: 0x0, symName: __ZNKSt3__114__split_bufferIPN8nlohmann16json_abi_v3_11_210basic_jsonINS_3mapENS_6vectorENS_12basic_stringIcNS_11char_traitsIcEENS_9allocatorIcEEEEbxydS9_NS2_14adl_serializerENS5_IhNS9_IhEEEEEERNS9_ISG_EEE8capacityB7v160006Ev, symObjAddr: 0x14970, symBinAddr: 0x10001CA64, symSize: 0x40 }
  - { offsetInCU: 0x6B169, offset: 0x6B169, size: 0x8, addend: 0x0, symName: __ZNSt3__114__split_bufferIPN8nlohmann16json_abi_v3_11_210basic_jsonINS_3mapENS_6vectorENS_12basic_stringIcNS_11char_traitsIcEENS_9allocatorIcEEEEbxydS9_NS2_14adl_serializerENS5_IhNS9_IhEEEEEERNS9_ISG_EEE17__destruct_at_endB7v160006EPSG_, symObjAddr: 0x149B0, symBinAddr: 0x10001CAA4, symSize: 0x2C }
  - { offsetInCU: 0x6B19D, offset: 0x6B19D, size: 0x8, addend: 0x0, symName: __ZNSt3__114__split_bufferIPN8nlohmann16json_abi_v3_11_210basic_jsonINS_3mapENS_6vectorENS_12basic_stringIcNS_11char_traitsIcEENS_9allocatorIcEEEEbxydS9_NS2_14adl_serializerENS5_IhNS9_IhEEEEEERNS9_ISG_EEE17__destruct_at_endB7v160006EPSG_NS_17integral_constantIbLb0EEE, symObjAddr: 0x149DC, symBinAddr: 0x10001CAD0, symSize: 0x80 }
  - { offsetInCU: 0x6B1DE, offset: 0x6B1DE, size: 0x8, addend: 0x0, symName: __ZNKSt3__114__split_bufferIPN8nlohmann16json_abi_v3_11_210basic_jsonINS_3mapENS_6vectorENS_12basic_stringIcNS_11char_traitsIcEENS_9allocatorIcEEEEbxydS9_NS2_14adl_serializerENS5_IhNS9_IhEEEEEERNS9_ISG_EEE9__end_capB7v160006Ev, symObjAddr: 0x14A5C, symBinAddr: 0x10001CB50, symSize: 0x28 }
  - { offsetInCU: 0x6B204, offset: 0x6B204, size: 0x8, addend: 0x0, symName: __ZNKSt3__117__compressed_pairIPPN8nlohmann16json_abi_v3_11_210basic_jsonINS_3mapENS_6vectorENS_12basic_stringIcNS_11char_traitsIcEENS_9allocatorIcEEEEbxydS9_NS2_14adl_serializerENS5_IhNS9_IhEEEEEERNS9_ISG_EEE5firstB7v160006Ev, symObjAddr: 0x14A84, symBinAddr: 0x10001CB78, symSize: 0x24 }
  - { offsetInCU: 0x6B22A, offset: 0x6B22A, size: 0x8, addend: 0x0, symName: __ZNKSt3__13mapINS_12basic_stringIcNS_11char_traitsIcEENS_9allocatorIcEEEEN8nlohmann16json_abi_v3_11_210basic_jsonIS0_NS_6vectorES6_bxydS4_NS8_14adl_serializerENSA_IhNS4_IhEEEEEENS_4lessIvEENS4_INS_4pairIKS6_SE_EEEEE8max_sizeB7v160006Ev, symObjAddr: 0x14AA8, symBinAddr: 0x10001CB9C, symSize: 0x24 }
  - { offsetInCU: 0x6B250, offset: 0x6B250, size: 0x8, addend: 0x0, symName: __ZNK8nlohmann16json_abi_v3_11_210basic_jsonINSt3__13mapENS2_6vectorENS2_12basic_stringIcNS2_11char_traitsIcEENS2_9allocatorIcEEEEbxydS8_NS0_14adl_serializerENS4_IhNS8_IhEEEEE4sizeEv, symObjAddr: 0x14ACC, symBinAddr: 0x10001CBC0, symSize: 0xA4 }
  - { offsetInCU: 0x6B276, offset: 0x6B276, size: 0x8, addend: 0x0, symName: __ZNKSt3__16__treeINS_12__value_typeINS_12basic_stringIcNS_11char_traitsIcEENS_9allocatorIcEEEEN8nlohmann16json_abi_v3_11_210basic_jsonINS_3mapENS_6vectorES7_bxydS5_NS9_14adl_serializerENSC_IhNS5_IhEEEEEEEENS_19__map_value_compareIS7_SH_NS_4lessIvEELb1EEENS5_ISH_EEE8max_sizeB7v160006Ev, symObjAddr: 0x14B98, symBinAddr: 0x10001CC8C, symSize: 0x60 }
  - { offsetInCU: 0x6B2A7, offset: 0x6B2A7, size: 0x8, addend: 0x0, symName: __ZNSt3__116allocator_traitsINS_9allocatorINS_11__tree_nodeINS_12__value_typeINS_12basic_stringIcNS_11char_traitsIcEENS1_IcEEEEN8nlohmann16json_abi_v3_11_210basic_jsonINS_3mapENS_6vectorES8_bxydS1_NSA_14adl_serializerENSD_IhNS1_IhEEEEEEEEPvEEEEE8max_sizeB7v160006ISL_vEEmRKSL_, symObjAddr: 0x14BF8, symBinAddr: 0x10001CCEC, symSize: 0x24 }
  - { offsetInCU: 0x6B2D5, offset: 0x6B2D5, size: 0x8, addend: 0x0, symName: __ZNKSt3__16__treeINS_12__value_typeINS_12basic_stringIcNS_11char_traitsIcEENS_9allocatorIcEEEEN8nlohmann16json_abi_v3_11_210basic_jsonINS_3mapENS_6vectorES7_bxydS5_NS9_14adl_serializerENSC_IhNS5_IhEEEEEEEENS_19__map_value_compareIS7_SH_NS_4lessIvEELb1EEENS5_ISH_EEE12__node_allocB7v160006Ev, symObjAddr: 0x14C1C, symBinAddr: 0x10001CD10, symSize: 0x28 }
  - { offsetInCU: 0x6B2FB, offset: 0x6B2FB, size: 0x8, addend: 0x0, symName: __ZNKSt3__19allocatorINS_11__tree_nodeINS_12__value_typeINS_12basic_stringIcNS_11char_traitsIcEENS0_IcEEEEN8nlohmann16json_abi_v3_11_210basic_jsonINS_3mapENS_6vectorES7_bxydS0_NS9_14adl_serializerENSC_IhNS0_IhEEEEEEEEPvEEE8max_sizeB7v160006Ev, symObjAddr: 0x14C44, symBinAddr: 0x10001CD38, symSize: 0x20 }
  - { offsetInCU: 0x6B321, offset: 0x6B321, size: 0x8, addend: 0x0, symName: __ZNKSt3__117__compressed_pairINS_15__tree_end_nodeIPNS_16__tree_node_baseIPvEEEENS_9allocatorINS_11__tree_nodeINS_12__value_typeINS_12basic_stringIcNS_11char_traitsIcEENS7_IcEEEEN8nlohmann16json_abi_v3_11_210basic_jsonINS_3mapENS_6vectorESE_bxydS7_NSG_14adl_serializerENSJ_IhNS7_IhEEEEEEEES3_EEEEE6secondB7v160006Ev, symObjAddr: 0x14C64, symBinAddr: 0x10001CD58, symSize: 0x24 }
  - { offsetInCU: 0x6B347, offset: 0x6B347, size: 0x8, addend: 0x0, symName: __ZNKSt3__122__compressed_pair_elemINS_9allocatorINS_11__tree_nodeINS_12__value_typeINS_12basic_stringIcNS_11char_traitsIcEENS1_IcEEEEN8nlohmann16json_abi_v3_11_210basic_jsonINS_3mapENS_6vectorES8_bxydS1_NSA_14adl_serializerENSD_IhNS1_IhEEEEEEEEPvEEEELi1ELb1EE5__getB7v160006Ev, symObjAddr: 0x14C88, symBinAddr: 0x10001CD7C, symSize: 0x14 }
  - { offsetInCU: 0x6B36D, offset: 0x6B36D, size: 0x8, addend: 0x0, symName: __ZNKSt3__13mapINS_12basic_stringIcNS_11char_traitsIcEENS_9allocatorIcEEEEN8nlohmann16json_abi_v3_11_210basic_jsonIS0_NS_6vectorES6_bxydS4_NS8_14adl_serializerENSA_IhNS4_IhEEEEEENS_4lessIvEENS4_INS_4pairIKS6_SE_EEEEE4sizeB7v160006Ev, symObjAddr: 0x14C9C, symBinAddr: 0x10001CD90, symSize: 0x28 }
  - { offsetInCU: 0x6B393, offset: 0x6B393, size: 0x8, addend: 0x0, symName: __ZNKSt3__16__treeINS_12__value_typeINS_12basic_stringIcNS_11char_traitsIcEENS_9allocatorIcEEEEN8nlohmann16json_abi_v3_11_210basic_jsonINS_3mapENS_6vectorES7_bxydS5_NS9_14adl_serializerENSC_IhNS5_IhEEEEEEEENS_19__map_value_compareIS7_SH_NS_4lessIvEELb1EEENS5_ISH_EEE4sizeB7v160006Ev, symObjAddr: 0x14CC4, symBinAddr: 0x10001CDB8, symSize: 0x28 }
  - { offsetInCU: 0x6B3B9, offset: 0x6B3B9, size: 0x8, addend: 0x0, symName: __ZNKSt3__117__compressed_pairImNS_19__map_value_compareINS_12basic_stringIcNS_11char_traitsIcEENS_9allocatorIcEEEENS_12__value_typeIS7_N8nlohmann16json_abi_v3_11_210basic_jsonINS_3mapENS_6vectorES7_bxydS5_NSA_14adl_serializerENSD_IhNS5_IhEEEEEEEENS_4lessIvEELb1EEEE5firstB7v160006Ev, symObjAddr: 0x14CEC, symBinAddr: 0x10001CDE0, symSize: 0x24 }
  - { offsetInCU: 0x6B3DF, offset: 0x6B3DF, size: 0x8, addend: 0x0, symName: __ZN8nlohmann16json_abi_v3_11_26detail9exception4nameERKNSt3__112basic_stringIcNS3_11char_traitsIcEENS3_9allocatorIcEEEEi, symObjAddr: 0x14DE8, symBinAddr: 0x10001CEDC, symSize: 0xA0 }
  - { offsetInCU: 0x6B412, offset: 0x6B412, size: 0x8, addend: 0x0, symName: __ZN8nlohmann16json_abi_v3_11_26detail9exception11diagnosticsINS0_10basic_jsonINSt3__13mapENS5_6vectorENS5_12basic_stringIcNS5_11char_traitsIcEENS5_9allocatorIcEEEEbxydSB_NS0_14adl_serializerENS7_IhNSB_IhEEEEEEEESD_PKT_, symObjAddr: 0x14E88, symBinAddr: 0x10001CF7C, symSize: 0x3C }
  - { offsetInCU: 0x6B43F, offset: 0x6B43F, size: 0x8, addend: 0x0, symName: __ZN8nlohmann16json_abi_v3_11_26detail12out_of_rangeC1EiPKc, symObjAddr: 0x14EC4, symBinAddr: 0x10001CFB8, symSize: 0x3C }
  - { offsetInCU: 0x6B487, offset: 0x6B487, size: 0x8, addend: 0x0, symName: __ZNSt3__112basic_stringIcNS_11char_traitsIcEENS_9allocatorIcEEE6appendB7v160006ERKS5_, symObjAddr: 0x1500C, symBinAddr: 0x10001D100, symSize: 0x4C }
  - { offsetInCU: 0x6B4BC, offset: 0x6B4BC, size: 0x8, addend: 0x0, symName: __ZNKSt3__112basic_stringIcNS_11char_traitsIcEENS_9allocatorIcEEE4dataB7v160006Ev, symObjAddr: 0x15094, symBinAddr: 0x10001D188, symSize: 0x28 }
  - { offsetInCU: 0x6B4E2, offset: 0x6B4E2, size: 0x8, addend: 0x0, symName: __ZNSt3__112basic_stringIcNS_11char_traitsIcEENS_9allocatorIcEEEpLB7v160006Ec, symObjAddr: 0x15444, symBinAddr: 0x10001D538, symSize: 0x34 }
  - { offsetInCU: 0x6B517, offset: 0x6B517, size: 0x8, addend: 0x0, symName: __ZN8nlohmann16json_abi_v3_11_26detail12out_of_rangeC2EiPKc, symObjAddr: 0x154E8, symBinAddr: 0x10001D5DC, symSize: 0x54 }
  - { offsetInCU: 0x6B55F, offset: 0x6B55F, size: 0x8, addend: 0x0, symName: __ZN8nlohmann16json_abi_v3_11_26detail9exceptionC2EiPKc, symObjAddr: 0x1553C, symBinAddr: 0x10001D630, symSize: 0x8C }
  - { offsetInCU: 0x6B5A7, offset: 0x6B5A7, size: 0x8, addend: 0x0, symName: __ZN8nlohmann16json_abi_v3_11_26detail12out_of_rangeD0Ev, symObjAddr: 0x155C8, symBinAddr: 0x10001D6BC, symSize: 0x30 }
  - { offsetInCU: 0x6B5D4, offset: 0x6B5D4, size: 0x8, addend: 0x0, symName: __ZNK8nlohmann16json_abi_v3_11_26detail9exception4whatEv, symObjAddr: 0x155F8, symBinAddr: 0x10001D6EC, symSize: 0x28 }
  - { offsetInCU: 0x6B5FA, offset: 0x6B5FA, size: 0x8, addend: 0x0, symName: __ZN8nlohmann16json_abi_v3_11_26detail9exceptionD1Ev, symObjAddr: 0x15620, symBinAddr: 0x10001D714, symSize: 0x2C }
  - { offsetInCU: 0x6B627, offset: 0x6B627, size: 0x8, addend: 0x0, symName: __ZN8nlohmann16json_abi_v3_11_26detail9exceptionD0Ev, symObjAddr: 0x1564C, symBinAddr: 0x10001D740, symSize: 0x30 }
  - { offsetInCU: 0x6B654, offset: 0x6B654, size: 0x8, addend: 0x0, symName: __ZN8nlohmann16json_abi_v3_11_26detail9exceptionD2Ev, symObjAddr: 0x1567C, symBinAddr: 0x10001D770, symSize: 0x48 }
  - { offsetInCU: 0x6B681, offset: 0x6B681, size: 0x8, addend: 0x0, symName: __ZN8nlohmann16json_abi_v3_11_210basic_jsonINSt3__13mapENS2_6vectorENS2_12basic_stringIcNS2_11char_traitsIcEENS2_9allocatorIcEEEEbxydS8_NS0_14adl_serializerENS4_IhNS8_IhEEEEEC1ERKSE_, symObjAddr: 0x15774, symBinAddr: 0x10001D868, symSize: 0x34 }
  - { offsetInCU: 0x6B6BA, offset: 0x6B6BA, size: 0x8, addend: 0x0, symName: __ZNSt3__16vectorIPN8nlohmann16json_abi_v3_11_210basic_jsonINS_3mapES0_NS_12basic_stringIcNS_11char_traitsIcEENS_9allocatorIcEEEEbxydS8_NS2_14adl_serializerENS0_IhNS8_IhEEEEEENS8_ISF_EEE8pop_backEv, symObjAddr: 0x157A8, symBinAddr: 0x10001D89C, symSize: 0x2C }
  - { offsetInCU: 0x6B6E2, offset: 0x6B6E2, size: 0x8, addend: 0x0, symName: __ZNK8nlohmann16json_abi_v3_11_210basic_jsonINSt3__13mapENS2_6vectorENS2_12basic_stringIcNS2_11char_traitsIcEENS2_9allocatorIcEEEEbxydS8_NS0_14adl_serializerENS4_IhNS8_IhEEEEE13is_structuredEv, symObjAddr: 0x157D4, symBinAddr: 0x10001D8C8, symSize: 0x50 }
  - { offsetInCU: 0x6B708, offset: 0x6B708, size: 0x8, addend: 0x0, symName: __ZN8nlohmann16json_abi_v3_11_210basic_jsonINSt3__13mapENS2_6vectorENS2_12basic_stringIcNS2_11char_traitsIcEENS2_9allocatorIcEEEEbxydS8_NS0_14adl_serializerENS4_IhNS8_IhEEEEE5beginEv, symObjAddr: 0x15824, symBinAddr: 0x10001D918, symSize: 0x40 }
  - { offsetInCU: 0x6B73E, offset: 0x6B73E, size: 0x8, addend: 0x0, symName: __ZNK8nlohmann16json_abi_v3_11_26detail9iter_implINS0_10basic_jsonINSt3__13mapENS4_6vectorENS4_12basic_stringIcNS4_11char_traitsIcEENS4_9allocatorIcEEEEbxydSA_NS0_14adl_serializerENS6_IhNSA_IhEEEEEEEneISH_LDn0EEEbRKT_, symObjAddr: 0x15864, symBinAddr: 0x10001D958, symSize: 0x34 }
  - { offsetInCU: 0x6B782, offset: 0x6B782, size: 0x8, addend: 0x0, symName: __ZN8nlohmann16json_abi_v3_11_210basic_jsonINSt3__13mapENS2_6vectorENS2_12basic_stringIcNS2_11char_traitsIcEENS2_9allocatorIcEEEEbxydS8_NS0_14adl_serializerENS4_IhNS8_IhEEEEE3endEv, symObjAddr: 0x15898, symBinAddr: 0x10001D98C, symSize: 0x40 }
  - { offsetInCU: 0x6B7B8, offset: 0x6B7B8, size: 0x8, addend: 0x0, symName: __ZNK8nlohmann16json_abi_v3_11_26detail9iter_implINS0_10basic_jsonINSt3__13mapENS4_6vectorENS4_12basic_stringIcNS4_11char_traitsIcEENS4_9allocatorIcEEEEbxydSA_NS0_14adl_serializerENS6_IhNSA_IhEEEEEEEptEv, symObjAddr: 0x158D8, symBinAddr: 0x10001D9CC, symSize: 0x270 }
  - { offsetInCU: 0x6B7DE, offset: 0x6B7DE, size: 0x8, addend: 0x0, symName: __ZN8nlohmann16json_abi_v3_11_210basic_jsonINSt3__13mapENS2_6vectorENS2_12basic_stringIcNS2_11char_traitsIcEENS2_9allocatorIcEEEEbxydS8_NS0_14adl_serializerENS4_IhNS8_IhEEEEE5eraseINS0_6detail9iter_implISE_EELi0EEET_SJ_, symObjAddr: 0x15B70, symBinAddr: 0x10001DC64, symSize: 0x434 }
  - { offsetInCU: 0x6B86F, offset: 0x6B86F, size: 0x8, addend: 0x0, symName: __ZN8nlohmann16json_abi_v3_11_26detail9iter_implINS0_10basic_jsonINSt3__13mapENS4_6vectorENS4_12basic_stringIcNS4_11char_traitsIcEENS4_9allocatorIcEEEEbxydSA_NS0_14adl_serializerENS6_IhNSA_IhEEEEEEEC1ERKSH_, symObjAddr: 0x15FCC, symBinAddr: 0x10001E0C0, symSize: 0x34 }
  - { offsetInCU: 0x6B8A8, offset: 0x6B8A8, size: 0x8, addend: 0x0, symName: __ZN8nlohmann16json_abi_v3_11_26detail9iter_implINS0_10basic_jsonINSt3__13mapENS4_6vectorENS4_12basic_stringIcNS4_11char_traitsIcEENS4_9allocatorIcEEEEbxydSA_NS0_14adl_serializerENS6_IhNSA_IhEEEEEEEppEv, symObjAddr: 0x16000, symBinAddr: 0x10001E0F4, symSize: 0xE0 }
  - { offsetInCU: 0x6B8CE, offset: 0x6B8CE, size: 0x8, addend: 0x0, symName: __ZN8nlohmann16json_abi_v3_11_210basic_jsonINSt3__13mapENS2_6vectorENS2_12basic_stringIcNS2_11char_traitsIcEENS2_9allocatorIcEEEEbxydS8_NS0_14adl_serializerENS4_IhNS8_IhEEEEEC2ERKSE_, symObjAddr: 0x16108, symBinAddr: 0x10001E1FC, symSize: 0x1B8 }
  - { offsetInCU: 0x6B907, offset: 0x6B907, size: 0x8, addend: 0x0, symName: __ZN8nlohmann16json_abi_v3_11_210basic_jsonINSt3__13mapENS2_6vectorENS2_12basic_stringIcNS2_11char_traitsIcEENS2_9allocatorIcEEEEbxydS8_NS0_14adl_serializerENS4_IhNS8_IhEEEEE10json_valueC1ERKNS3_ISA_SE_NS2_4lessIvEENS8_INS2_4pairIKSA_SE_EEEEEE, symObjAddr: 0x162E8, symBinAddr: 0x10001E3DC, symSize: 0x34 }
  - { offsetInCU: 0x6B940, offset: 0x6B940, size: 0x8, addend: 0x0, symName: __ZN8nlohmann16json_abi_v3_11_210basic_jsonINSt3__13mapENS2_6vectorENS2_12basic_stringIcNS2_11char_traitsIcEENS2_9allocatorIcEEEEbxydS8_NS0_14adl_serializerENS4_IhNS8_IhEEEEE10json_valueC1ERKNS4_ISE_NS8_ISE_EEEE, symObjAddr: 0x1631C, symBinAddr: 0x10001E410, symSize: 0x34 }
  - { offsetInCU: 0x6B979, offset: 0x6B979, size: 0x8, addend: 0x0, symName: __ZN8nlohmann16json_abi_v3_11_210basic_jsonINSt3__13mapENS2_6vectorENS2_12basic_stringIcNS2_11char_traitsIcEENS2_9allocatorIcEEEEbxydS8_NS0_14adl_serializerENS4_IhNS8_IhEEEEE10json_valueC1ERKSA_, symObjAddr: 0x16350, symBinAddr: 0x10001E444, symSize: 0x34 }
  - { offsetInCU: 0x6B9B2, offset: 0x6B9B2, size: 0x8, addend: 0x0, symName: __ZN8nlohmann16json_abi_v3_11_210basic_jsonINSt3__13mapENS2_6vectorENS2_12basic_stringIcNS2_11char_traitsIcEENS2_9allocatorIcEEEEbxydS8_NS0_14adl_serializerENS4_IhNS8_IhEEEEE10json_valueC1Eb, symObjAddr: 0x16384, symBinAddr: 0x10001E478, symSize: 0x40 }
  - { offsetInCU: 0x6B9EB, offset: 0x6B9EB, size: 0x8, addend: 0x0, symName: __ZN8nlohmann16json_abi_v3_11_210basic_jsonINSt3__13mapENS2_6vectorENS2_12basic_stringIcNS2_11char_traitsIcEENS2_9allocatorIcEEEEbxydS8_NS0_14adl_serializerENS4_IhNS8_IhEEEEE10json_valueC1Ex, symObjAddr: 0x163C4, symBinAddr: 0x10001E4B8, symSize: 0x34 }
  - { offsetInCU: 0x6BA24, offset: 0x6BA24, size: 0x8, addend: 0x0, symName: __ZN8nlohmann16json_abi_v3_11_210basic_jsonINSt3__13mapENS2_6vectorENS2_12basic_stringIcNS2_11char_traitsIcEENS2_9allocatorIcEEEEbxydS8_NS0_14adl_serializerENS4_IhNS8_IhEEEEE10json_valueC1Ey, symObjAddr: 0x163F8, symBinAddr: 0x10001E4EC, symSize: 0x34 }
  - { offsetInCU: 0x6BA5D, offset: 0x6BA5D, size: 0x8, addend: 0x0, symName: __ZN8nlohmann16json_abi_v3_11_210basic_jsonINSt3__13mapENS2_6vectorENS2_12basic_stringIcNS2_11char_traitsIcEENS2_9allocatorIcEEEEbxydS8_NS0_14adl_serializerENS4_IhNS8_IhEEEEE10json_valueC1Ed, symObjAddr: 0x1642C, symBinAddr: 0x10001E520, symSize: 0x34 }
  - { offsetInCU: 0x6BA96, offset: 0x6BA96, size: 0x8, addend: 0x0, symName: __ZN8nlohmann16json_abi_v3_11_210basic_jsonINSt3__13mapENS2_6vectorENS2_12basic_stringIcNS2_11char_traitsIcEENS2_9allocatorIcEEEEbxydS8_NS0_14adl_serializerENS4_IhNS8_IhEEEEE10json_valueC1ERKNS0_27byte_container_with_subtypeISD_EE, symObjAddr: 0x16460, symBinAddr: 0x10001E554, symSize: 0x34 }
  - { offsetInCU: 0x6BACF, offset: 0x6BACF, size: 0x8, addend: 0x0, symName: __ZN8nlohmann16json_abi_v3_11_210basic_jsonINSt3__13mapENS2_6vectorENS2_12basic_stringIcNS2_11char_traitsIcEENS2_9allocatorIcEEEEbxydS8_NS0_14adl_serializerENS4_IhNS8_IhEEEEE10json_valueC2ERKNS3_ISA_SE_NS2_4lessIvEENS8_INS2_4pairIKSA_SE_EEEEEE, symObjAddr: 0x16494, symBinAddr: 0x10001E588, symSize: 0x3C }
  - { offsetInCU: 0x6BB08, offset: 0x6BB08, size: 0x8, addend: 0x0, symName: __ZN8nlohmann16json_abi_v3_11_210basic_jsonINSt3__13mapENS2_6vectorENS2_12basic_stringIcNS2_11char_traitsIcEENS2_9allocatorIcEEEEbxydS8_NS0_14adl_serializerENS4_IhNS8_IhEEEEE6createINS3_ISA_SE_NS2_4lessIvEENS8_INS2_4pairIKSA_SE_EEEEEEJRKSM_EEEPT_DpOT0_, symObjAddr: 0x164D0, symBinAddr: 0x10001E5C4, symSize: 0xF4 }
  - { offsetInCU: 0x6BBB3, offset: 0x6BBB3, size: 0x8, addend: 0x0, symName: __ZNSt3__19allocatorINS_3mapINS_12basic_stringIcNS_11char_traitsIcEENS0_IcEEEEN8nlohmann16json_abi_v3_11_210basic_jsonIS1_NS_6vectorES6_bxydS0_NS8_14adl_serializerENSA_IhNS0_IhEEEEEENS_4lessIvEENS0_INS_4pairIKS6_SE_EEEEEEEC1B7v160006Ev, symObjAddr: 0x165C4, symBinAddr: 0x10001E6B8, symSize: 0x2C }
  - { offsetInCU: 0x6BBE3, offset: 0x6BBE3, size: 0x8, addend: 0x0, symName: __ZNSt3__116allocator_traitsINS_9allocatorINS_3mapINS_12basic_stringIcNS_11char_traitsIcEENS1_IcEEEEN8nlohmann16json_abi_v3_11_210basic_jsonIS2_NS_6vectorES7_bxydS1_NS9_14adl_serializerENSB_IhNS1_IhEEEEEENS_4lessIvEENS1_INS_4pairIKS7_SF_EEEEEEEEE8allocateB7v160006ERSN_m, symObjAddr: 0x165F0, symBinAddr: 0x10001E6E4, symSize: 0x2C }
  - { offsetInCU: 0x6BCB7, offset: 0x6BCB7, size: 0x8, addend: 0x0, symName: __ZNSt3__110unique_ptrINS_3mapINS_12basic_stringIcNS_11char_traitsIcEENS_9allocatorIcEEEEN8nlohmann16json_abi_v3_11_210basic_jsonIS1_NS_6vectorES7_bxydS5_NS9_14adl_serializerENSB_IhNS5_IhEEEEEENS_4lessIvEENS5_INS_4pairIKS7_SF_EEEEEEZNSF_6createISM_JRKSM_EEEPT_DpOT0_EUlPSM_E_EC1B7v160006ILb1EvEESV_NS_16__dependent_typeINS_27__unique_ptr_deleter_sfinaeISW_EEXT_EE15__lval_ref_typeE, symObjAddr: 0x1661C, symBinAddr: 0x10001E710, symSize: 0x3C }
  - { offsetInCU: 0x6BD08, offset: 0x6BD08, size: 0x8, addend: 0x0, symName: __ZNSt3__116allocator_traitsINS_9allocatorINS_3mapINS_12basic_stringIcNS_11char_traitsIcEENS1_IcEEEEN8nlohmann16json_abi_v3_11_210basic_jsonIS2_NS_6vectorES7_bxydS1_NS9_14adl_serializerENSB_IhNS1_IhEEEEEENS_4lessIvEENS1_INS_4pairIKS7_SF_EEEEEEEEE9constructB7v160006ISM_JRKSM_EvEEvRSN_PT_DpOT0_, symObjAddr: 0x16658, symBinAddr: 0x10001E74C, symSize: 0x34 }
  - { offsetInCU: 0x6BD5F, offset: 0x6BD5F, size: 0x8, addend: 0x0, symName: __ZNKSt3__110unique_ptrINS_3mapINS_12basic_stringIcNS_11char_traitsIcEENS_9allocatorIcEEEEN8nlohmann16json_abi_v3_11_210basic_jsonIS1_NS_6vectorES7_bxydS5_NS9_14adl_serializerENSB_IhNS5_IhEEEEEENS_4lessIvEENS5_INS_4pairIKS7_SF_EEEEEEZNSF_6createISM_JRKSM_EEEPT_DpOT0_EUlPSM_E_E3getB7v160006Ev, symObjAddr: 0x1668C, symBinAddr: 0x10001E780, symSize: 0x28 }
  - { offsetInCU: 0x6BD85, offset: 0x6BD85, size: 0x8, addend: 0x0, symName: __ZNSt3__110unique_ptrINS_3mapINS_12basic_stringIcNS_11char_traitsIcEENS_9allocatorIcEEEEN8nlohmann16json_abi_v3_11_210basic_jsonIS1_NS_6vectorES7_bxydS5_NS9_14adl_serializerENSB_IhNS5_IhEEEEEENS_4lessIvEENS5_INS_4pairIKS7_SF_EEEEEEZNSF_6createISM_JRKSM_EEEPT_DpOT0_EUlPSM_E_E7releaseB7v160006Ev, symObjAddr: 0x166E0, symBinAddr: 0x10001E7D4, symSize: 0x44 }
  - { offsetInCU: 0x6BDBA, offset: 0x6BDBA, size: 0x8, addend: 0x0, symName: __ZNSt3__110unique_ptrINS_3mapINS_12basic_stringIcNS_11char_traitsIcEENS_9allocatorIcEEEEN8nlohmann16json_abi_v3_11_210basic_jsonIS1_NS_6vectorES7_bxydS5_NS9_14adl_serializerENSB_IhNS5_IhEEEEEENS_4lessIvEENS5_INS_4pairIKS7_SF_EEEEEEZNSF_6createISM_JRKSM_EEEPT_DpOT0_EUlPSM_E_ED1B7v160006Ev, symObjAddr: 0x16724, symBinAddr: 0x10001E818, symSize: 0x2C }
  - { offsetInCU: 0x6BDE4, offset: 0x6BDE4, size: 0x8, addend: 0x0, symName: __ZNSt3__19allocatorINS_3mapINS_12basic_stringIcNS_11char_traitsIcEENS0_IcEEEEN8nlohmann16json_abi_v3_11_210basic_jsonIS1_NS_6vectorES6_bxydS0_NS8_14adl_serializerENSA_IhNS0_IhEEEEEENS_4lessIvEENS0_INS_4pairIKS6_SE_EEEEEEEC2B7v160006Ev, symObjAddr: 0x16750, symBinAddr: 0x10001E844, symSize: 0x2C }
  - { offsetInCU: 0x6BE0E, offset: 0x6BE0E, size: 0x8, addend: 0x0, symName: __ZNSt3__116__non_trivial_ifILb1ENS_9allocatorINS_3mapINS_12basic_stringIcNS_11char_traitsIcEENS1_IcEEEEN8nlohmann16json_abi_v3_11_210basic_jsonIS2_NS_6vectorES7_bxydS1_NS9_14adl_serializerENSB_IhNS1_IhEEEEEENS_4lessIvEENS1_INS_4pairIKS7_SF_EEEEEEEEEC2B7v160006Ev, symObjAddr: 0x1677C, symBinAddr: 0x10001E870, symSize: 0x14 }
  - { offsetInCU: 0x6BE38, offset: 0x6BE38, size: 0x8, addend: 0x0, symName: __ZNSt3__19allocatorINS_3mapINS_12basic_stringIcNS_11char_traitsIcEENS0_IcEEEEN8nlohmann16json_abi_v3_11_210basic_jsonIS1_NS_6vectorES6_bxydS0_NS8_14adl_serializerENSA_IhNS0_IhEEEEEENS_4lessIvEENS0_INS_4pairIKS6_SE_EEEEEEE8allocateB7v160006Em, symObjAddr: 0x16790, symBinAddr: 0x10001E884, symSize: 0x5C }
  - { offsetInCU: 0x6BE77, offset: 0x6BE77, size: 0x8, addend: 0x0, symName: __ZNSt3__116allocator_traitsINS_9allocatorINS_3mapINS_12basic_stringIcNS_11char_traitsIcEENS1_IcEEEEN8nlohmann16json_abi_v3_11_210basic_jsonIS2_NS_6vectorES7_bxydS1_NS9_14adl_serializerENSB_IhNS1_IhEEEEEENS_4lessIvEENS1_INS_4pairIKS7_SF_EEEEEEEEE8max_sizeB7v160006ISN_vEEmRKSN_, symObjAddr: 0x167EC, symBinAddr: 0x10001E8E0, symSize: 0x24 }
  - { offsetInCU: 0x6BEA5, offset: 0x6BEA5, size: 0x8, addend: 0x0, symName: __ZNKSt3__19allocatorINS_3mapINS_12basic_stringIcNS_11char_traitsIcEENS0_IcEEEEN8nlohmann16json_abi_v3_11_210basic_jsonIS1_NS_6vectorES6_bxydS0_NS8_14adl_serializerENSA_IhNS0_IhEEEEEENS_4lessIvEENS0_INS_4pairIKS6_SE_EEEEEEE8max_sizeB7v160006Ev, symObjAddr: 0x16810, symBinAddr: 0x10001E904, symSize: 0x18 }
  - { offsetInCU: 0x6BECB, offset: 0x6BECB, size: 0x8, addend: 0x0, symName: __ZNSt3__110unique_ptrINS_3mapINS_12basic_stringIcNS_11char_traitsIcEENS_9allocatorIcEEEEN8nlohmann16json_abi_v3_11_210basic_jsonIS1_NS_6vectorES7_bxydS5_NS9_14adl_serializerENSB_IhNS5_IhEEEEEENS_4lessIvEENS5_INS_4pairIKS7_SF_EEEEEEZNSF_6createISM_JRKSM_EEEPT_DpOT0_EUlPSM_E_EC2B7v160006ILb1EvEESV_NS_16__dependent_typeINS_27__unique_ptr_deleter_sfinaeISW_EEXT_EE15__lval_ref_typeE, symObjAddr: 0x16828, symBinAddr: 0x10001E91C, symSize: 0x48 }
  - { offsetInCU: 0x6BF1C, offset: 0x6BF1C, size: 0x8, addend: 0x0, symName: __ZNSt3__117__compressed_pairIPNS_3mapINS_12basic_stringIcNS_11char_traitsIcEENS_9allocatorIcEEEEN8nlohmann16json_abi_v3_11_210basic_jsonIS1_NS_6vectorES7_bxydS5_NS9_14adl_serializerENSB_IhNS5_IhEEEEEENS_4lessIvEENS5_INS_4pairIKS7_SF_EEEEEEZNSF_6createISM_JRKSM_EEEPT_DpOT0_EUlSN_E_EC1B7v160006IRSN_RKSW_EEOSR_OT0_, symObjAddr: 0x16870, symBinAddr: 0x10001E964, symSize: 0x3C }
  - { offsetInCU: 0x6BF74, offset: 0x6BF74, size: 0x8, addend: 0x0, symName: __ZNSt3__117__compressed_pairIPNS_3mapINS_12basic_stringIcNS_11char_traitsIcEENS_9allocatorIcEEEEN8nlohmann16json_abi_v3_11_210basic_jsonIS1_NS_6vectorES7_bxydS5_NS9_14adl_serializerENSB_IhNS5_IhEEEEEENS_4lessIvEENS5_INS_4pairIKS7_SF_EEEEEEZNSF_6createISM_JRKSM_EEEPT_DpOT0_EUlSN_E_EC2B7v160006IRSN_RKSW_EEOSR_OT0_, symObjAddr: 0x168AC, symBinAddr: 0x10001E9A0, symSize: 0x48 }
  - { offsetInCU: 0x6BFCC, offset: 0x6BFCC, size: 0x8, addend: 0x0, symName: __ZNSt3__122__compressed_pair_elemIPNS_3mapINS_12basic_stringIcNS_11char_traitsIcEENS_9allocatorIcEEEEN8nlohmann16json_abi_v3_11_210basic_jsonIS1_NS_6vectorES7_bxydS5_NS9_14adl_serializerENSB_IhNS5_IhEEEEEENS_4lessIvEENS5_INS_4pairIKS7_SF_EEEEEELi0ELb0EEC2B7v160006IRSN_vEEOT_, symObjAddr: 0x168F4, symBinAddr: 0x10001E9E8, symSize: 0x24 }
  - { offsetInCU: 0x6C00E, offset: 0x6C00E, size: 0x8, addend: 0x0, symName: __ZNSt3__122__compressed_pair_elemIZN8nlohmann16json_abi_v3_11_210basic_jsonINS_3mapENS_6vectorENS_12basic_stringIcNS_11char_traitsIcEENS_9allocatorIcEEEEbxydS9_NS2_14adl_serializerENS5_IhNS9_IhEEEEE6createINS4_ISB_SF_NS_4lessIvEENS9_INS_4pairIKSB_SF_EEEEEEJRKSN_EEEPT_DpOT0_EUlPSN_E_Li1ELb0EEC2B7v160006IRKSW_vEEOSQ_, symObjAddr: 0x16918, symBinAddr: 0x10001EA0C, symSize: 0x24 }
  - { offsetInCU: 0x6C050, offset: 0x6C050, size: 0x8, addend: 0x0, symName: __ZNSt3__19allocatorINS_3mapINS_12basic_stringIcNS_11char_traitsIcEENS0_IcEEEEN8nlohmann16json_abi_v3_11_210basic_jsonIS1_NS_6vectorES6_bxydS0_NS8_14adl_serializerENSA_IhNS0_IhEEEEEENS_4lessIvEENS0_INS_4pairIKS6_SE_EEEEEEE9constructB7v160006ISL_JRKSL_EEEvPT_DpOT0_, symObjAddr: 0x1693C, symBinAddr: 0x10001EA30, symSize: 0x30 }
  - { offsetInCU: 0x6C0A6, offset: 0x6C0A6, size: 0x8, addend: 0x0, symName: __ZNSt3__13mapINS_12basic_stringIcNS_11char_traitsIcEENS_9allocatorIcEEEEN8nlohmann16json_abi_v3_11_210basic_jsonIS0_NS_6vectorES6_bxydS4_NS8_14adl_serializerENSA_IhNS4_IhEEEEEENS_4lessIvEENS4_INS_4pairIKS6_SE_EEEEEC1B7v160006ERKSL_, symObjAddr: 0x1696C, symBinAddr: 0x10001EA60, symSize: 0x34 }
  - { offsetInCU: 0x6C0DF, offset: 0x6C0DF, size: 0x8, addend: 0x0, symName: __ZNSt3__13mapINS_12basic_stringIcNS_11char_traitsIcEENS_9allocatorIcEEEEN8nlohmann16json_abi_v3_11_210basic_jsonIS0_NS_6vectorES6_bxydS4_NS8_14adl_serializerENSA_IhNS4_IhEEEEEENS_4lessIvEENS4_INS_4pairIKS6_SE_EEEEEC2B7v160006ERKSL_, symObjAddr: 0x169A0, symBinAddr: 0x10001EA94, symSize: 0x88 }
  - { offsetInCU: 0x6C118, offset: 0x6C118, size: 0x8, addend: 0x0, symName: __ZNSt3__16__treeINS_12__value_typeINS_12basic_stringIcNS_11char_traitsIcEENS_9allocatorIcEEEEN8nlohmann16json_abi_v3_11_210basic_jsonINS_3mapENS_6vectorES7_bxydS5_NS9_14adl_serializerENSC_IhNS5_IhEEEEEEEENS_19__map_value_compareIS7_SH_NS_4lessIvEELb1EEENS5_ISH_EEEC1ERKSN_, symObjAddr: 0x16A28, symBinAddr: 0x10001EB1C, symSize: 0x34 }
  - { offsetInCU: 0x6C153, offset: 0x6C153, size: 0x8, addend: 0x0, symName: __ZNSt3__13mapINS_12basic_stringIcNS_11char_traitsIcEENS_9allocatorIcEEEEN8nlohmann16json_abi_v3_11_210basic_jsonIS0_NS_6vectorES6_bxydS4_NS8_14adl_serializerENSA_IhNS4_IhEEEEEENS_4lessIvEENS4_INS_4pairIKS6_SE_EEEEE6insertB7v160006INS_20__map_const_iteratorINS_21__tree_const_iteratorINS_12__value_typeIS6_SE_EEPNS_11__tree_nodeISQ_PvEElEEEEEEvT_SX_, symObjAddr: 0x16A5C, symBinAddr: 0x10001EB50, symSize: 0x8C }
  - { offsetInCU: 0x6C1BD, offset: 0x6C1BD, size: 0x8, addend: 0x0, symName: __ZNKSt3__13mapINS_12basic_stringIcNS_11char_traitsIcEENS_9allocatorIcEEEEN8nlohmann16json_abi_v3_11_210basic_jsonIS0_NS_6vectorES6_bxydS4_NS8_14adl_serializerENSA_IhNS4_IhEEEEEENS_4lessIvEENS4_INS_4pairIKS6_SE_EEEEE5beginB7v160006Ev, symObjAddr: 0x16AE8, symBinAddr: 0x10001EBDC, symSize: 0x38 }
  - { offsetInCU: 0x6C1E3, offset: 0x6C1E3, size: 0x8, addend: 0x0, symName: __ZNKSt3__13mapINS_12basic_stringIcNS_11char_traitsIcEENS_9allocatorIcEEEEN8nlohmann16json_abi_v3_11_210basic_jsonIS0_NS_6vectorES6_bxydS4_NS8_14adl_serializerENSA_IhNS4_IhEEEEEENS_4lessIvEENS4_INS_4pairIKS6_SE_EEEEE3endB7v160006Ev, symObjAddr: 0x16B20, symBinAddr: 0x10001EC14, symSize: 0x38 }
  - { offsetInCU: 0x6C209, offset: 0x6C209, size: 0x8, addend: 0x0, symName: __ZNSt3__16__treeINS_12__value_typeINS_12basic_stringIcNS_11char_traitsIcEENS_9allocatorIcEEEEN8nlohmann16json_abi_v3_11_210basic_jsonINS_3mapENS_6vectorES7_bxydS5_NS9_14adl_serializerENSC_IhNS5_IhEEEEEEEENS_19__map_value_compareIS7_SH_NS_4lessIvEELb1EEENS5_ISH_EEED1Ev, symObjAddr: 0x16B58, symBinAddr: 0x10001EC4C, symSize: 0x2C }
  - { offsetInCU: 0x6C235, offset: 0x6C235, size: 0x8, addend: 0x0, symName: __ZNSt3__16__treeINS_12__value_typeINS_12basic_stringIcNS_11char_traitsIcEENS_9allocatorIcEEEEN8nlohmann16json_abi_v3_11_210basic_jsonINS_3mapENS_6vectorES7_bxydS5_NS9_14adl_serializerENSC_IhNS5_IhEEEEEEEENS_19__map_value_compareIS7_SH_NS_4lessIvEELb1EEENS5_ISH_EEEC2ERKSN_, symObjAddr: 0x16B84, symBinAddr: 0x10001EC78, symSize: 0x9C }
  - { offsetInCU: 0x6C270, offset: 0x6C270, size: 0x8, addend: 0x0, symName: __ZNSt3__116allocator_traitsINS_9allocatorINS_11__tree_nodeINS_12__value_typeINS_12basic_stringIcNS_11char_traitsIcEENS1_IcEEEEN8nlohmann16json_abi_v3_11_210basic_jsonINS_3mapENS_6vectorES8_bxydS1_NSA_14adl_serializerENSD_IhNS1_IhEEEEEEEEPvEEEEE37select_on_container_copy_constructionB7v160006ISL_vvEESL_RKSL_, symObjAddr: 0x16C20, symBinAddr: 0x10001ED14, symSize: 0x10 }
  - { offsetInCU: 0x6C2A5, offset: 0x6C2A5, size: 0x8, addend: 0x0, symName: __ZNSt3__117__compressed_pairINS_15__tree_end_nodeIPNS_16__tree_node_baseIPvEEEENS_9allocatorINS_11__tree_nodeINS_12__value_typeINS_12basic_stringIcNS_11char_traitsIcEENS7_IcEEEEN8nlohmann16json_abi_v3_11_210basic_jsonINS_3mapENS_6vectorESE_bxydS7_NSG_14adl_serializerENSJ_IhNS7_IhEEEEEEEES3_EEEEEC1B7v160006INS_18__default_init_tagESQ_EEOT_OT0_, symObjAddr: 0x16C30, symBinAddr: 0x10001ED24, symSize: 0x3C }
  - { offsetInCU: 0x6C2FD, offset: 0x6C2FD, size: 0x8, addend: 0x0, symName: __ZNKSt3__16__treeINS_12__value_typeINS_12basic_stringIcNS_11char_traitsIcEENS_9allocatorIcEEEEN8nlohmann16json_abi_v3_11_210basic_jsonINS_3mapENS_6vectorES7_bxydS5_NS9_14adl_serializerENSC_IhNS5_IhEEEEEEEENS_19__map_value_compareIS7_SH_NS_4lessIvEELb1EEENS5_ISH_EEE10value_compB7v160006Ev, symObjAddr: 0x16C6C, symBinAddr: 0x10001ED60, symSize: 0x28 }
  - { offsetInCU: 0x6C323, offset: 0x6C323, size: 0x8, addend: 0x0, symName: __ZNSt3__117__compressed_pairImNS_19__map_value_compareINS_12basic_stringIcNS_11char_traitsIcEENS_9allocatorIcEEEENS_12__value_typeIS7_N8nlohmann16json_abi_v3_11_210basic_jsonINS_3mapENS_6vectorES7_bxydS5_NSA_14adl_serializerENSD_IhNS5_IhEEEEEEEENS_4lessIvEELb1EEEEC1B7v160006IiRKSL_EEOT_OT0_, symObjAddr: 0x16C94, symBinAddr: 0x10001ED88, symSize: 0x3C }
  - { offsetInCU: 0x6C37B, offset: 0x6C37B, size: 0x8, addend: 0x0, symName: __ZNSt3__16__treeINS_12__value_typeINS_12basic_stringIcNS_11char_traitsIcEENS_9allocatorIcEEEEN8nlohmann16json_abi_v3_11_210basic_jsonINS_3mapENS_6vectorES7_bxydS5_NS9_14adl_serializerENSC_IhNS5_IhEEEEEEEENS_19__map_value_compareIS7_SH_NS_4lessIvEELb1EEENS5_ISH_EEE10__end_nodeB7v160006Ev, symObjAddr: 0x16CD0, symBinAddr: 0x10001EDC4, symSize: 0x2C }
  - { offsetInCU: 0x6C3A1, offset: 0x6C3A1, size: 0x8, addend: 0x0, symName: __ZNSt3__16__treeINS_12__value_typeINS_12basic_stringIcNS_11char_traitsIcEENS_9allocatorIcEEEEN8nlohmann16json_abi_v3_11_210basic_jsonINS_3mapENS_6vectorES7_bxydS5_NS9_14adl_serializerENSC_IhNS5_IhEEEEEEEENS_19__map_value_compareIS7_SH_NS_4lessIvEELb1EEENS5_ISH_EEE12__begin_nodeB7v160006Ev, symObjAddr: 0x16CFC, symBinAddr: 0x10001EDF0, symSize: 0x14 }
  - { offsetInCU: 0x6C3C7, offset: 0x6C3C7, size: 0x8, addend: 0x0, symName: __ZNSt3__117__compressed_pairINS_15__tree_end_nodeIPNS_16__tree_node_baseIPvEEEENS_9allocatorINS_11__tree_nodeINS_12__value_typeINS_12basic_stringIcNS_11char_traitsIcEENS7_IcEEEEN8nlohmann16json_abi_v3_11_210basic_jsonINS_3mapENS_6vectorESE_bxydS7_NSG_14adl_serializerENSJ_IhNS7_IhEEEEEEEES3_EEEEEC2B7v160006INS_18__default_init_tagESQ_EEOT_OT0_, symObjAddr: 0x16D10, symBinAddr: 0x10001EE04, symSize: 0x40 }
  - { offsetInCU: 0x6C41F, offset: 0x6C41F, size: 0x8, addend: 0x0, symName: __ZNSt3__122__compressed_pair_elemINS_15__tree_end_nodeIPNS_16__tree_node_baseIPvEEEELi0ELb0EEC2B7v160006ENS_18__default_init_tagE, symObjAddr: 0x16D50, symBinAddr: 0x10001EE44, symSize: 0x2C }
  - { offsetInCU: 0x6C454, offset: 0x6C454, size: 0x8, addend: 0x0, symName: __ZNSt3__122__compressed_pair_elemINS_9allocatorINS_11__tree_nodeINS_12__value_typeINS_12basic_stringIcNS_11char_traitsIcEENS1_IcEEEEN8nlohmann16json_abi_v3_11_210basic_jsonINS_3mapENS_6vectorES8_bxydS1_NSA_14adl_serializerENSD_IhNS1_IhEEEEEEEEPvEEEELi1ELb1EEC2B7v160006ISL_vEEOT_, symObjAddr: 0x16D7C, symBinAddr: 0x10001EE70, symSize: 0x18 }
  - { offsetInCU: 0x6C496, offset: 0x6C496, size: 0x8, addend: 0x0, symName: __ZNSt3__115__tree_end_nodeIPNS_16__tree_node_baseIPvEEEC1B7v160006Ev, symObjAddr: 0x16D94, symBinAddr: 0x10001EE88, symSize: 0x2C }
  - { offsetInCU: 0x6C4C0, offset: 0x6C4C0, size: 0x8, addend: 0x0, symName: __ZNSt3__115__tree_end_nodeIPNS_16__tree_node_baseIPvEEEC2B7v160006Ev, symObjAddr: 0x16DC0, symBinAddr: 0x10001EEB4, symSize: 0x18 }
  - { offsetInCU: 0x6C4EA, offset: 0x6C4EA, size: 0x8, addend: 0x0, symName: __ZNKSt3__117__compressed_pairImNS_19__map_value_compareINS_12basic_stringIcNS_11char_traitsIcEENS_9allocatorIcEEEENS_12__value_typeIS7_N8nlohmann16json_abi_v3_11_210basic_jsonINS_3mapENS_6vectorES7_bxydS5_NSA_14adl_serializerENSD_IhNS5_IhEEEEEEEENS_4lessIvEELb1EEEE6secondB7v160006Ev, symObjAddr: 0x16DD8, symBinAddr: 0x10001EECC, symSize: 0x24 }
  - { offsetInCU: 0x6C510, offset: 0x6C510, size: 0x8, addend: 0x0, symName: __ZNKSt3__122__compressed_pair_elemINS_19__map_value_compareINS_12basic_stringIcNS_11char_traitsIcEENS_9allocatorIcEEEENS_12__value_typeIS7_N8nlohmann16json_abi_v3_11_210basic_jsonINS_3mapENS_6vectorES7_bxydS5_NSA_14adl_serializerENSD_IhNS5_IhEEEEEEEENS_4lessIvEELb1EEELi1ELb1EE5__getB7v160006Ev, symObjAddr: 0x16DFC, symBinAddr: 0x10001EEF0, symSize: 0x14 }
  - { offsetInCU: 0x6C536, offset: 0x6C536, size: 0x8, addend: 0x0, symName: __ZNSt3__117__compressed_pairImNS_19__map_value_compareINS_12basic_stringIcNS_11char_traitsIcEENS_9allocatorIcEEEENS_12__value_typeIS7_N8nlohmann16json_abi_v3_11_210basic_jsonINS_3mapENS_6vectorES7_bxydS5_NSA_14adl_serializerENSD_IhNS5_IhEEEEEEEENS_4lessIvEELb1EEEEC2B7v160006IiRKSL_EEOT_OT0_, symObjAddr: 0x16E10, symBinAddr: 0x10001EF04, symSize: 0x44 }
  - { offsetInCU: 0x6C58E, offset: 0x6C58E, size: 0x8, addend: 0x0, symName: __ZNSt3__122__compressed_pair_elemINS_19__map_value_compareINS_12basic_stringIcNS_11char_traitsIcEENS_9allocatorIcEEEENS_12__value_typeIS7_N8nlohmann16json_abi_v3_11_210basic_jsonINS_3mapENS_6vectorES7_bxydS5_NSA_14adl_serializerENSD_IhNS5_IhEEEEEEEENS_4lessIvEELb1EEELi1ELb1EEC2B7v160006IRKSL_vEEOT_, symObjAddr: 0x16E54, symBinAddr: 0x10001EF48, symSize: 0x18 }
  - { offsetInCU: 0x6C5D0, offset: 0x6C5D0, size: 0x8, addend: 0x0, symName: __ZNSt3__114pointer_traitsIPNS_15__tree_end_nodeIPNS_16__tree_node_baseIPvEEEEE10pointer_toB7v160006ERS6_, symObjAddr: 0x16E6C, symBinAddr: 0x10001EF60, symSize: 0x14 }
  - { offsetInCU: 0x6C5F3, offset: 0x6C5F3, size: 0x8, addend: 0x0, symName: __ZNSt3__117__compressed_pairINS_15__tree_end_nodeIPNS_16__tree_node_baseIPvEEEENS_9allocatorINS_11__tree_nodeINS_12__value_typeINS_12basic_stringIcNS_11char_traitsIcEENS7_IcEEEEN8nlohmann16json_abi_v3_11_210basic_jsonINS_3mapENS_6vectorESE_bxydS7_NSG_14adl_serializerENSJ_IhNS7_IhEEEEEEEES3_EEEEE5firstB7v160006Ev, symObjAddr: 0x16E80, symBinAddr: 0x10001EF74, symSize: 0x24 }
  - { offsetInCU: 0x6C619, offset: 0x6C619, size: 0x8, addend: 0x0, symName: __ZNSt3__122__compressed_pair_elemINS_15__tree_end_nodeIPNS_16__tree_node_baseIPvEEEELi0ELb0EE5__getB7v160006Ev, symObjAddr: 0x16EA4, symBinAddr: 0x10001EF98, symSize: 0x14 }
  - { offsetInCU: 0x6C63F, offset: 0x6C63F, size: 0x8, addend: 0x0, symName: __ZNKSt3__13mapINS_12basic_stringIcNS_11char_traitsIcEENS_9allocatorIcEEEEN8nlohmann16json_abi_v3_11_210basic_jsonIS0_NS_6vectorES6_bxydS4_NS8_14adl_serializerENSA_IhNS4_IhEEEEEENS_4lessIvEENS4_INS_4pairIKS6_SE_EEEEE4cendB7v160006Ev, symObjAddr: 0x16EB8, symBinAddr: 0x10001EFAC, symSize: 0x2C }
  - { offsetInCU: 0x6C665, offset: 0x6C665, size: 0x8, addend: 0x0, symName: __ZNSt3__13mapINS_12basic_stringIcNS_11char_traitsIcEENS_9allocatorIcEEEEN8nlohmann16json_abi_v3_11_210basic_jsonIS0_NS_6vectorES6_bxydS4_NS8_14adl_serializerENSA_IhNS4_IhEEEEEENS_4lessIvEENS4_INS_4pairIKS6_SE_EEEEE6insertB7v160006ENS_20__map_const_iteratorINS_21__tree_const_iteratorINS_12__value_typeIS6_SE_EEPNS_11__tree_nodeISP_PvEElEEEERKSJ_, symObjAddr: 0x16F14, symBinAddr: 0x10001F008, symSize: 0x50 }
  - { offsetInCU: 0x6C6A9, offset: 0x6C6A9, size: 0x8, addend: 0x0, symName: __ZNSt3__120__map_const_iteratorINS_21__tree_const_iteratorINS_12__value_typeINS_12basic_stringIcNS_11char_traitsIcEENS_9allocatorIcEEEEN8nlohmann16json_abi_v3_11_210basic_jsonINS_3mapENS_6vectorES8_bxydS6_NSA_14adl_serializerENSD_IhNS6_IhEEEEEEEEPNS_11__tree_nodeISI_PvEElEEEC1B7v160006ESN_, symObjAddr: 0x16F64, symBinAddr: 0x10001F058, symSize: 0x34 }
  - { offsetInCU: 0x6C6E2, offset: 0x6C6E2, size: 0x8, addend: 0x0, symName: __ZNKSt3__120__map_const_iteratorINS_21__tree_const_iteratorINS_12__value_typeINS_12basic_stringIcNS_11char_traitsIcEENS_9allocatorIcEEEEN8nlohmann16json_abi_v3_11_210basic_jsonINS_3mapENS_6vectorES8_bxydS6_NSA_14adl_serializerENSD_IhNS6_IhEEEEEEEEPNS_11__tree_nodeISI_PvEElEEEdeB7v160006Ev, symObjAddr: 0x16F98, symBinAddr: 0x10001F08C, symSize: 0x28 }
  - { offsetInCU: 0x6C708, offset: 0x6C708, size: 0x8, addend: 0x0, symName: __ZNSt3__120__map_const_iteratorINS_21__tree_const_iteratorINS_12__value_typeINS_12basic_stringIcNS_11char_traitsIcEENS_9allocatorIcEEEEN8nlohmann16json_abi_v3_11_210basic_jsonINS_3mapENS_6vectorES8_bxydS6_NSA_14adl_serializerENSD_IhNS6_IhEEEEEEEEPNS_11__tree_nodeISI_PvEElEEEppB7v160006Ev, symObjAddr: 0x16FC0, symBinAddr: 0x10001F0B4, symSize: 0x2C }
  - { offsetInCU: 0x6C72E, offset: 0x6C72E, size: 0x8, addend: 0x0, symName: __ZNSt3__16__treeINS_12__value_typeINS_12basic_stringIcNS_11char_traitsIcEENS_9allocatorIcEEEEN8nlohmann16json_abi_v3_11_210basic_jsonINS_3mapENS_6vectorES7_bxydS5_NS9_14adl_serializerENSC_IhNS5_IhEEEEEEEENS_19__map_value_compareIS7_SH_NS_4lessIvEELb1EEENS5_ISH_EEE15__insert_uniqueB7v160006ENS_21__tree_const_iteratorISH_PNS_11__tree_nodeISH_PvEElEERKNS_4pairIKS7_SG_EE, symObjAddr: 0x17050, symBinAddr: 0x10001F144, symSize: 0x64 }
  - { offsetInCU: 0x6C772, offset: 0x6C772, size: 0x8, addend: 0x0, symName: __ZNSt3__114__map_iteratorINS_15__tree_iteratorINS_12__value_typeINS_12basic_stringIcNS_11char_traitsIcEENS_9allocatorIcEEEEN8nlohmann16json_abi_v3_11_210basic_jsonINS_3mapENS_6vectorES8_bxydS6_NSA_14adl_serializerENSD_IhNS6_IhEEEEEEEEPNS_11__tree_nodeISI_PvEElEEEC1B7v160006ESN_, symObjAddr: 0x170B4, symBinAddr: 0x10001F1A8, symSize: 0x34 }
  - { offsetInCU: 0x6C7AB, offset: 0x6C7AB, size: 0x8, addend: 0x0, symName: __ZNSt3__16__treeINS_12__value_typeINS_12basic_stringIcNS_11char_traitsIcEENS_9allocatorIcEEEEN8nlohmann16json_abi_v3_11_210basic_jsonINS_3mapENS_6vectorES7_bxydS5_NS9_14adl_serializerENSC_IhNS5_IhEEEEEEEENS_19__map_value_compareIS7_SH_NS_4lessIvEELb1EEENS5_ISH_EEE30__emplace_hint_unique_key_argsIS7_JRKNS_4pairIKS7_SG_EEEEENSP_INS_15__tree_iteratorISH_PNS_11__tree_nodeISH_PvEElEEbEENS_21__tree_const_iteratorISH_SY_lEERKT_DpOT0_, symObjAddr: 0x170E8, symBinAddr: 0x10001F1DC, symSize: 0x104 }
  - { offsetInCU: 0x6C877, offset: 0x6C877, size: 0x8, addend: 0x0, symName: __ZNSt3__122__tree_key_value_typesINS_12__value_typeINS_12basic_stringIcNS_11char_traitsIcEENS_9allocatorIcEEEEN8nlohmann16json_abi_v3_11_210basic_jsonINS_3mapENS_6vectorES7_bxydS5_NS9_14adl_serializerENSC_IhNS5_IhEEEEEEEEE9__get_keyB7v160006IKNS_4pairIKS7_SG_EEEENS_9enable_ifIXsr17__is_same_uncvrefIT_SM_EE5valueERSL_E4typeERSP_, symObjAddr: 0x171EC, symBinAddr: 0x10001F2E0, symSize: 0x14 }
  - { offsetInCU: 0x6C8A4, offset: 0x6C8A4, size: 0x8, addend: 0x0, symName: __ZNSt3__16__treeINS_12__value_typeINS_12basic_stringIcNS_11char_traitsIcEENS_9allocatorIcEEEEN8nlohmann16json_abi_v3_11_210basic_jsonINS_3mapENS_6vectorES7_bxydS5_NS9_14adl_serializerENSC_IhNS5_IhEEEEEEEENS_19__map_value_compareIS7_SH_NS_4lessIvEELb1EEENS5_ISH_EEE12__find_equalIS7_EERPNS_16__tree_node_baseIPvEENS_21__tree_const_iteratorISH_PNS_11__tree_nodeISH_SQ_EElEERPNS_15__tree_end_nodeISS_EEST_RKT_, symObjAddr: 0x17200, symBinAddr: 0x10001F2F4, symSize: 0x304 }
  - { offsetInCU: 0x6C94D, offset: 0x6C94D, size: 0x8, addend: 0x0, symName: __ZNSt3__16__treeINS_12__value_typeINS_12basic_stringIcNS_11char_traitsIcEENS_9allocatorIcEEEEN8nlohmann16json_abi_v3_11_210basic_jsonINS_3mapENS_6vectorES7_bxydS5_NS9_14adl_serializerENSC_IhNS5_IhEEEEEEEENS_19__map_value_compareIS7_SH_NS_4lessIvEELb1EEENS5_ISH_EEE16__construct_nodeIJRKNS_4pairIKS7_SG_EEEEENS_10unique_ptrINS_11__tree_nodeISH_PvEENS_22__tree_node_destructorINS5_ISX_EEEEEEDpOT_, symObjAddr: 0x17504, symBinAddr: 0x10001F5F8, symSize: 0x110 }
  - { offsetInCU: 0x6C9AE, offset: 0x6C9AE, size: 0x8, addend: 0x0, symName: __ZNSt3__16__treeINS_12__value_typeINS_12basic_stringIcNS_11char_traitsIcEENS_9allocatorIcEEEEN8nlohmann16json_abi_v3_11_210basic_jsonINS_3mapENS_6vectorES7_bxydS5_NS9_14adl_serializerENSC_IhNS5_IhEEEEEEEENS_19__map_value_compareIS7_SH_NS_4lessIvEELb1EEENS5_ISH_EEE16__insert_node_atEPNS_15__tree_end_nodeIPNS_16__tree_node_baseIPvEEEERSS_SS_, symObjAddr: 0x17614, symBinAddr: 0x10001F708, symSize: 0xCC }
  - { offsetInCU: 0x6CA03, offset: 0x6CA03, size: 0x8, addend: 0x0, symName: __ZNKSt3__110unique_ptrINS_11__tree_nodeINS_12__value_typeINS_12basic_stringIcNS_11char_traitsIcEENS_9allocatorIcEEEEN8nlohmann16json_abi_v3_11_210basic_jsonINS_3mapENS_6vectorES8_bxydS6_NSA_14adl_serializerENSD_IhNS6_IhEEEEEEEEPvEENS_22__tree_node_destructorINS6_ISK_EEEEE3getB7v160006Ev, symObjAddr: 0x176E0, symBinAddr: 0x10001F7D4, symSize: 0x28 }
  - { offsetInCU: 0x6CA29, offset: 0x6CA29, size: 0x8, addend: 0x0, symName: __ZNSt3__110unique_ptrINS_11__tree_nodeINS_12__value_typeINS_12basic_stringIcNS_11char_traitsIcEENS_9allocatorIcEEEEN8nlohmann16json_abi_v3_11_210basic_jsonINS_3mapENS_6vectorES8_bxydS6_NSA_14adl_serializerENSD_IhNS6_IhEEEEEEEEPvEENS_22__tree_node_destructorINS6_ISK_EEEEE7releaseB7v160006Ev, symObjAddr: 0x17708, symBinAddr: 0x10001F7FC, symSize: 0x44 }
  - { offsetInCU: 0x6CA5E, offset: 0x6CA5E, size: 0x8, addend: 0x0, symName: __ZNSt3__110unique_ptrINS_11__tree_nodeINS_12__value_typeINS_12basic_stringIcNS_11char_traitsIcEENS_9allocatorIcEEEEN8nlohmann16json_abi_v3_11_210basic_jsonINS_3mapENS_6vectorES8_bxydS6_NSA_14adl_serializerENSD_IhNS6_IhEEEEEEEEPvEENS_22__tree_node_destructorINS6_ISK_EEEEED1B7v160006Ev, symObjAddr: 0x1774C, symBinAddr: 0x10001F840, symSize: 0x2C }
  - { offsetInCU: 0x6CA88, offset: 0x6CA88, size: 0x8, addend: 0x0, symName: __ZNSt3__115__tree_iteratorINS_12__value_typeINS_12basic_stringIcNS_11char_traitsIcEENS_9allocatorIcEEEEN8nlohmann16json_abi_v3_11_210basic_jsonINS_3mapENS_6vectorES7_bxydS5_NS9_14adl_serializerENSC_IhNS5_IhEEEEEEEEPNS_11__tree_nodeISH_PvEElEC1B7v160006ESL_, symObjAddr: 0x17778, symBinAddr: 0x10001F86C, symSize: 0x34 }
  - { offsetInCU: 0x6CAC7, offset: 0x6CAC7, size: 0x8, addend: 0x0, symName: __ZNSt3__14pairINS_15__tree_iteratorINS_12__value_typeINS_12basic_stringIcNS_11char_traitsIcEENS_9allocatorIcEEEEN8nlohmann16json_abi_v3_11_210basic_jsonINS_3mapENS_6vectorES8_bxydS6_NSA_14adl_serializerENSD_IhNS6_IhEEEEEEEEPNS_11__tree_nodeISI_PvEElEEbEC1B7v160006ISN_RbLSK_0EEEOT_OT0_, symObjAddr: 0x177AC, symBinAddr: 0x10001F8A0, symSize: 0x3C }
  - { offsetInCU: 0x6CB25, offset: 0x6CB25, size: 0x8, addend: 0x0, symName: __ZNSt3__16__treeINS_12__value_typeINS_12basic_stringIcNS_11char_traitsIcEENS_9allocatorIcEEEEN8nlohmann16json_abi_v3_11_210basic_jsonINS_3mapENS_6vectorES7_bxydS5_NS9_14adl_serializerENSC_IhNS5_IhEEEEEEEENS_19__map_value_compareIS7_SH_NS_4lessIvEELb1EEENS5_ISH_EEE3endB7v160006Ev, symObjAddr: 0x177E8, symBinAddr: 0x10001F8DC, symSize: 0x34 }
  - { offsetInCU: 0x6CB4B, offset: 0x6CB4B, size: 0x8, addend: 0x0, symName: __ZNSt3__121__tree_const_iteratorINS_12__value_typeINS_12basic_stringIcNS_11char_traitsIcEENS_9allocatorIcEEEEN8nlohmann16json_abi_v3_11_210basic_jsonINS_3mapENS_6vectorES7_bxydS5_NS9_14adl_serializerENSC_IhNS5_IhEEEEEEEEPNS_11__tree_nodeISH_PvEElEC1B7v160006ENS_15__tree_iteratorISH_SL_lEE, symObjAddr: 0x1781C, symBinAddr: 0x10001F910, symSize: 0x34 }
  - { offsetInCU: 0x6CB84, offset: 0x6CB84, size: 0x8, addend: 0x0, symName: __ZNSt3__16__treeINS_12__value_typeINS_12basic_stringIcNS_11char_traitsIcEENS_9allocatorIcEEEEN8nlohmann16json_abi_v3_11_210basic_jsonINS_3mapENS_6vectorES7_bxydS5_NS9_14adl_serializerENSC_IhNS5_IhEEEEEEEENS_19__map_value_compareIS7_SH_NS_4lessIvEELb1EEENS5_ISH_EEE10value_compB7v160006Ev, symObjAddr: 0x17850, symBinAddr: 0x10001F944, symSize: 0x28 }
  - { offsetInCU: 0x6CBAA, offset: 0x6CBAA, size: 0x8, addend: 0x0, symName: __ZNKSt3__119__map_value_compareINS_12basic_stringIcNS_11char_traitsIcEENS_9allocatorIcEEEENS_12__value_typeIS6_N8nlohmann16json_abi_v3_11_210basic_jsonINS_3mapENS_6vectorES6_bxydS4_NS9_14adl_serializerENSC_IhNS4_IhEEEEEEEENS_4lessIvEELb1EEclB7v160006ERKS6_RKSH_, symObjAddr: 0x17878, symBinAddr: 0x10001F96C, symSize: 0x50 }
  - { offsetInCU: 0x6CBEE, offset: 0x6CBEE, size: 0x8, addend: 0x0, symName: __ZNKSt3__121__tree_const_iteratorINS_12__value_typeINS_12basic_stringIcNS_11char_traitsIcEENS_9allocatorIcEEEEN8nlohmann16json_abi_v3_11_210basic_jsonINS_3mapENS_6vectorES7_bxydS5_NS9_14adl_serializerENSC_IhNS5_IhEEEEEEEEPNS_11__tree_nodeISH_PvEElEdeB7v160006Ev, symObjAddr: 0x178C8, symBinAddr: 0x10001F9BC, symSize: 0x28 }
  - { offsetInCU: 0x6CC14, offset: 0x6CC14, size: 0x8, addend: 0x0, symName: __ZNSt3__16__treeINS_12__value_typeINS_12basic_stringIcNS_11char_traitsIcEENS_9allocatorIcEEEEN8nlohmann16json_abi_v3_11_210basic_jsonINS_3mapENS_6vectorES7_bxydS5_NS9_14adl_serializerENSC_IhNS5_IhEEEEEEEENS_19__map_value_compareIS7_SH_NS_4lessIvEELb1EEENS5_ISH_EEE5beginB7v160006Ev, symObjAddr: 0x178F0, symBinAddr: 0x10001F9E4, symSize: 0x34 }
  - { offsetInCU: 0x6CC3A, offset: 0x6CC3A, size: 0x8, addend: 0x0, symName: __ZNKSt3__119__map_value_compareINS_12basic_stringIcNS_11char_traitsIcEENS_9allocatorIcEEEENS_12__value_typeIS6_N8nlohmann16json_abi_v3_11_210basic_jsonINS_3mapENS_6vectorES6_bxydS4_NS9_14adl_serializerENSC_IhNS4_IhEEEEEEEENS_4lessIvEELb1EEclB7v160006ERKSH_RKS6_, symObjAddr: 0x17924, symBinAddr: 0x10001FA18, symSize: 0x48 }
  - { offsetInCU: 0x6CC7E, offset: 0x6CC7E, size: 0x8, addend: 0x0, symName: __ZNSt3__121__tree_const_iteratorINS_12__value_typeINS_12basic_stringIcNS_11char_traitsIcEENS_9allocatorIcEEEEN8nlohmann16json_abi_v3_11_210basic_jsonINS_3mapENS_6vectorES7_bxydS5_NS9_14adl_serializerENSC_IhNS5_IhEEEEEEEEPNS_11__tree_nodeISH_PvEElEmmB7v160006Ev, symObjAddr: 0x1796C, symBinAddr: 0x10001FA60, symSize: 0x38 }
  - { offsetInCU: 0x6CCA4, offset: 0x6CCA4, size: 0x8, addend: 0x0, symName: __ZNSt3__16__treeINS_12__value_typeINS_12basic_stringIcNS_11char_traitsIcEENS_9allocatorIcEEEEN8nlohmann16json_abi_v3_11_210basic_jsonINS_3mapENS_6vectorES7_bxydS5_NS9_14adl_serializerENSC_IhNS5_IhEEEEEEEENS_19__map_value_compareIS7_SH_NS_4lessIvEELb1EEENS5_ISH_EEE12__find_equalIS7_EERPNS_16__tree_node_baseIPvEERPNS_15__tree_end_nodeISS_EERKT_, symObjAddr: 0x179A4, symBinAddr: 0x10001FA98, symSize: 0x184 }
  - { offsetInCU: 0x6CD11, offset: 0x6CD11, size: 0x8, addend: 0x0, symName: __ZNKSt3__121__tree_const_iteratorINS_12__value_typeINS_12basic_stringIcNS_11char_traitsIcEENS_9allocatorIcEEEEN8nlohmann16json_abi_v3_11_210basic_jsonINS_3mapENS_6vectorES7_bxydS5_NS9_14adl_serializerENSC_IhNS5_IhEEEEEEEEPNS_11__tree_nodeISH_PvEElE8__get_npB7v160006Ev, symObjAddr: 0x17B78, symBinAddr: 0x10001FC6C, symSize: 0x18 }
  - { offsetInCU: 0x6CD37, offset: 0x6CD37, size: 0x8, addend: 0x0, symName: __ZNSt3__115__tree_iteratorINS_12__value_typeINS_12basic_stringIcNS_11char_traitsIcEENS_9allocatorIcEEEEN8nlohmann16json_abi_v3_11_210basic_jsonINS_3mapENS_6vectorES7_bxydS5_NS9_14adl_serializerENSC_IhNS5_IhEEEEEEEEPNS_11__tree_nodeISH_PvEElEC1B7v160006EPNS_15__tree_end_nodeIPNS_16__tree_node_baseISJ_EEEE, symObjAddr: 0x17B90, symBinAddr: 0x10001FC84, symSize: 0x34 }
  - { offsetInCU: 0x6CD70, offset: 0x6CD70, size: 0x8, addend: 0x0, symName: __ZNSt3__115__tree_iteratorINS_12__value_typeINS_12basic_stringIcNS_11char_traitsIcEENS_9allocatorIcEEEEN8nlohmann16json_abi_v3_11_210basic_jsonINS_3mapENS_6vectorES7_bxydS5_NS9_14adl_serializerENSC_IhNS5_IhEEEEEEEEPNS_11__tree_nodeISH_PvEElEC2B7v160006EPNS_15__tree_end_nodeIPNS_16__tree_node_baseISJ_EEEE, symObjAddr: 0x17BC4, symBinAddr: 0x10001FCB8, symSize: 0x20 }
  - { offsetInCU: 0x6CDA9, offset: 0x6CDA9, size: 0x8, addend: 0x0, symName: __ZNSt3__121__tree_const_iteratorINS_12__value_typeINS_12basic_stringIcNS_11char_traitsIcEENS_9allocatorIcEEEEN8nlohmann16json_abi_v3_11_210basic_jsonINS_3mapENS_6vectorES7_bxydS5_NS9_14adl_serializerENSC_IhNS5_IhEEEEEEEEPNS_11__tree_nodeISH_PvEElEC2B7v160006ENS_15__tree_iteratorISH_SL_lEE, symObjAddr: 0x17BE4, symBinAddr: 0x10001FCD8, symSize: 0x20 }
  - { offsetInCU: 0x6CDE2, offset: 0x6CDE2, size: 0x8, addend: 0x0, symName: __ZNSt3__117__compressed_pairImNS_19__map_value_compareINS_12basic_stringIcNS_11char_traitsIcEENS_9allocatorIcEEEENS_12__value_typeIS7_N8nlohmann16json_abi_v3_11_210basic_jsonINS_3mapENS_6vectorES7_bxydS5_NSA_14adl_serializerENSD_IhNS5_IhEEEEEEEENS_4lessIvEELb1EEEE6secondB7v160006Ev, symObjAddr: 0x17C04, symBinAddr: 0x10001FCF8, symSize: 0x24 }
  - { offsetInCU: 0x6CE08, offset: 0x6CE08, size: 0x8, addend: 0x0, symName: __ZNSt3__122__compressed_pair_elemINS_19__map_value_compareINS_12basic_stringIcNS_11char_traitsIcEENS_9allocatorIcEEEENS_12__value_typeIS7_N8nlohmann16json_abi_v3_11_210basic_jsonINS_3mapENS_6vectorES7_bxydS5_NSA_14adl_serializerENSD_IhNS5_IhEEEEEEEENS_4lessIvEELb1EEELi1ELb1EE5__getB7v160006Ev, symObjAddr: 0x17C28, symBinAddr: 0x10001FD1C, symSize: 0x14 }
  - { offsetInCU: 0x6CE34, offset: 0x6CE34, size: 0x8, addend: 0x0, symName: __ZNKSt3__14lessIvEclB7v160006IRKNS_12basic_stringIcNS_11char_traitsIcEENS_9allocatorIcEEEESA_EEDTltclsr3stdE7forwardIT_Efp_Eclsr3stdE7forwardIT0_Efp0_EEOSB_OSC_, symObjAddr: 0x17C3C, symBinAddr: 0x10001FD30, symSize: 0x34 }
  - { offsetInCU: 0x6CE8A, offset: 0x6CE8A, size: 0x8, addend: 0x0, symName: __ZNKSt3__112__value_typeINS_12basic_stringIcNS_11char_traitsIcEENS_9allocatorIcEEEEN8nlohmann16json_abi_v3_11_210basic_jsonINS_3mapENS_6vectorES6_bxydS4_NS8_14adl_serializerENSB_IhNS4_IhEEEEEEE11__get_valueB7v160006Ev, symObjAddr: 0x17C70, symBinAddr: 0x10001FD64, symSize: 0x24 }
  - { offsetInCU: 0x6CEB0, offset: 0x6CEB0, size: 0x8, addend: 0x0, symName: __ZNKSt3__112basic_stringIcNS_11char_traitsIcEENS_9allocatorIcEEE7compareB7v160006ERKS5_, symObjAddr: 0x17CCC, symBinAddr: 0x10001FDC0, symSize: 0x4C }
  - { offsetInCU: 0x6CEE7, offset: 0x6CEE7, size: 0x8, addend: 0x0, symName: __ZNKSt3__112basic_stringIcNS_11char_traitsIcEENS_9allocatorIcEEE7compareINS_17basic_string_viewIcS2_EEEENS_9enable_ifIXsr33__can_be_converted_to_string_viewIcS2_T_EE5valueEiE4typeERKSA_, symObjAddr: 0x17D18, symBinAddr: 0x10001FE0C, symSize: 0x12C }
  - { offsetInCU: 0x6CF64, offset: 0x6CF64, size: 0x8, addend: 0x0, symName: __ZNKSt3__112basic_stringIcNS_11char_traitsIcEENS_9allocatorIcEEEcvNS_17basic_string_viewIcS2_EEB7v160006Ev, symObjAddr: 0x17E44, symBinAddr: 0x10001FF38, symSize: 0x50 }
  - { offsetInCU: 0x6CF8A, offset: 0x6CF8A, size: 0x8, addend: 0x0, symName: __ZNKSt3__117basic_string_viewIcNS_11char_traitsIcEEE4sizeB7v160006Ev, symObjAddr: 0x17E94, symBinAddr: 0x10001FF88, symSize: 0x18 }
  - { offsetInCU: 0x6CFB0, offset: 0x6CFB0, size: 0x8, addend: 0x0, symName: __ZNSt3__111char_traitsIcE7compareEPKcS3_m, symObjAddr: 0x17EAC, symBinAddr: 0x10001FFA0, symSize: 0x6C }
  - { offsetInCU: 0x6CFEF, offset: 0x6CFEF, size: 0x8, addend: 0x0, symName: __ZNKSt3__117basic_string_viewIcNS_11char_traitsIcEEE4dataB7v160006Ev, symObjAddr: 0x17F18, symBinAddr: 0x10002000C, symSize: 0x18 }
  - { offsetInCU: 0x6D015, offset: 0x6D015, size: 0x8, addend: 0x0, symName: __ZNSt3__117basic_string_viewIcNS_11char_traitsIcEEEC1B7v160006EPKcm, symObjAddr: 0x17F64, symBinAddr: 0x100020058, symSize: 0x3C }
  - { offsetInCU: 0x6D05D, offset: 0x6D05D, size: 0x8, addend: 0x0, symName: __ZNSt3__117basic_string_viewIcNS_11char_traitsIcEEEC2B7v160006EPKcm, symObjAddr: 0x17FA0, symBinAddr: 0x100020094, symSize: 0x50 }
  - { offsetInCU: 0x6D0A5, offset: 0x6D0A5, size: 0x8, addend: 0x0, symName: __ZNKSt3__116__tree_node_baseIPvE15__parent_unsafeB7v160006Ev, symObjAddr: 0x18138, symBinAddr: 0x10002022C, symSize: 0x18 }
  - { offsetInCU: 0x6D0CB, offset: 0x6D0CB, size: 0x8, addend: 0x0, symName: __ZNKSt3__16__treeINS_12__value_typeINS_12basic_stringIcNS_11char_traitsIcEENS_9allocatorIcEEEEN8nlohmann16json_abi_v3_11_210basic_jsonINS_3mapENS_6vectorES7_bxydS5_NS9_14adl_serializerENSC_IhNS5_IhEEEEEEEENS_19__map_value_compareIS7_SH_NS_4lessIvEELb1EEENS5_ISH_EEE6__rootB7v160006Ev, symObjAddr: 0x18150, symBinAddr: 0x100020244, symSize: 0x28 }
  - { offsetInCU: 0x6D0F1, offset: 0x6D0F1, size: 0x8, addend: 0x0, symName: __ZNKSt3__16__treeINS_12__value_typeINS_12basic_stringIcNS_11char_traitsIcEENS_9allocatorIcEEEEN8nlohmann16json_abi_v3_11_210basic_jsonINS_3mapENS_6vectorES7_bxydS5_NS9_14adl_serializerENSC_IhNS5_IhEEEEEEEENS_19__map_value_compareIS7_SH_NS_4lessIvEELb1EEENS5_ISH_EEE10__root_ptrEv, symObjAddr: 0x18178, symBinAddr: 0x10002026C, symSize: 0x24 }
  - { offsetInCU: 0x6D117, offset: 0x6D117, size: 0x8, addend: 0x0, symName: __ZNKSt3__16__treeINS_12__value_typeINS_12basic_stringIcNS_11char_traitsIcEENS_9allocatorIcEEEEN8nlohmann16json_abi_v3_11_210basic_jsonINS_3mapENS_6vectorES7_bxydS5_NS9_14adl_serializerENSC_IhNS5_IhEEEEEEEENS_19__map_value_compareIS7_SH_NS_4lessIvEELb1EEENS5_ISH_EEE10__end_nodeB7v160006Ev, symObjAddr: 0x1819C, symBinAddr: 0x100020290, symSize: 0x2C }
  - { offsetInCU: 0x6D13D, offset: 0x6D13D, size: 0x8, addend: 0x0, symName: __ZNKSt3__117__compressed_pairINS_15__tree_end_nodeIPNS_16__tree_node_baseIPvEEEENS_9allocatorINS_11__tree_nodeINS_12__value_typeINS_12basic_stringIcNS_11char_traitsIcEENS7_IcEEEEN8nlohmann16json_abi_v3_11_210basic_jsonINS_3mapENS_6vectorESE_bxydS7_NSG_14adl_serializerENSJ_IhNS7_IhEEEEEEEES3_EEEEE5firstB7v160006Ev, symObjAddr: 0x181C8, symBinAddr: 0x1000202BC, symSize: 0x24 }
  - { offsetInCU: 0x6D163, offset: 0x6D163, size: 0x8, addend: 0x0, symName: __ZNKSt3__122__compressed_pair_elemINS_15__tree_end_nodeIPNS_16__tree_node_baseIPvEEEELi0ELb0EE5__getB7v160006Ev, symObjAddr: 0x181EC, symBinAddr: 0x1000202E0, symSize: 0x14 }
  - { offsetInCU: 0x6D189, offset: 0x6D189, size: 0x8, addend: 0x0, symName: __ZNSt3__121__tree_const_iteratorINS_12__value_typeINS_12basic_stringIcNS_11char_traitsIcEENS_9allocatorIcEEEEN8nlohmann16json_abi_v3_11_210basic_jsonINS_3mapENS_6vectorES7_bxydS5_NS9_14adl_serializerENSC_IhNS5_IhEEEEEEEEPNS_11__tree_nodeISH_PvEElEppB7v160006Ev, symObjAddr: 0x18308, symBinAddr: 0x1000203FC, symSize: 0x38 }
  - { offsetInCU: 0x6D1AF, offset: 0x6D1AF, size: 0x8, addend: 0x0, symName: __ZNSt3__16__treeINS_12__value_typeINS_12basic_stringIcNS_11char_traitsIcEENS_9allocatorIcEEEEN8nlohmann16json_abi_v3_11_210basic_jsonINS_3mapENS_6vectorES7_bxydS5_NS9_14adl_serializerENSC_IhNS5_IhEEEEEEEENS_19__map_value_compareIS7_SH_NS_4lessIvEELb1EEENS5_ISH_EEE12__node_allocB7v160006Ev, symObjAddr: 0x18400, symBinAddr: 0x1000204F4, symSize: 0x28 }
  - { offsetInCU: 0x6D1D5, offset: 0x6D1D5, size: 0x8, addend: 0x0, symName: __ZNSt3__116allocator_traitsINS_9allocatorINS_11__tree_nodeINS_12__value_typeINS_12basic_stringIcNS_11char_traitsIcEENS1_IcEEEEN8nlohmann16json_abi_v3_11_210basic_jsonINS_3mapENS_6vectorES8_bxydS1_NSA_14adl_serializerENSD_IhNS1_IhEEEEEEEEPvEEEEE8allocateB7v160006ERSL_m, symObjAddr: 0x18428, symBinAddr: 0x10002051C, symSize: 0x2C }
  - { offsetInCU: 0x6D208, offset: 0x6D208, size: 0x8, addend: 0x0, symName: __ZNSt3__122__tree_node_destructorINS_9allocatorINS_11__tree_nodeINS_12__value_typeINS_12basic_stringIcNS_11char_traitsIcEENS1_IcEEEEN8nlohmann16json_abi_v3_11_210basic_jsonINS_3mapENS_6vectorES8_bxydS1_NSA_14adl_serializerENSD_IhNS1_IhEEEEEEEEPvEEEEEC1B7v160006ERSL_b, symObjAddr: 0x18454, symBinAddr: 0x100020548, symSize: 0x48 }
  - { offsetInCU: 0x6D256, offset: 0x6D256, size: 0x8, addend: 0x0, symName: __ZNSt3__110unique_ptrINS_11__tree_nodeINS_12__value_typeINS_12basic_stringIcNS_11char_traitsIcEENS_9allocatorIcEEEEN8nlohmann16json_abi_v3_11_210basic_jsonINS_3mapENS_6vectorES8_bxydS6_NSA_14adl_serializerENSD_IhNS6_IhEEEEEEEEPvEENS_22__tree_node_destructorINS6_ISK_EEEEEC1B7v160006ILb1EvEEPSK_NS_16__dependent_typeINS_27__unique_ptr_deleter_sfinaeISN_EEXT_EE20__good_rval_ref_typeE, symObjAddr: 0x1849C, symBinAddr: 0x100020590, symSize: 0x3C }
  - { offsetInCU: 0x6D2A7, offset: 0x6D2A7, size: 0x8, addend: 0x0, symName: __ZNSt3__116allocator_traitsINS_9allocatorINS_11__tree_nodeINS_12__value_typeINS_12basic_stringIcNS_11char_traitsIcEENS1_IcEEEEN8nlohmann16json_abi_v3_11_210basic_jsonINS_3mapENS_6vectorES8_bxydS1_NSA_14adl_serializerENSD_IhNS1_IhEEEEEEEEPvEEEEE9constructB7v160006INS_4pairIKS8_SH_EEJRKSQ_EvEEvRSL_PT_DpOT0_, symObjAddr: 0x184D8, symBinAddr: 0x1000205CC, symSize: 0x34 }
  - { offsetInCU: 0x6D2FE, offset: 0x6D2FE, size: 0x8, addend: 0x0, symName: __ZNSt3__122__tree_key_value_typesINS_12__value_typeINS_12basic_stringIcNS_11char_traitsIcEENS_9allocatorIcEEEEN8nlohmann16json_abi_v3_11_210basic_jsonINS_3mapENS_6vectorES7_bxydS5_NS9_14adl_serializerENSC_IhNS5_IhEEEEEEEEE9__get_ptrB7v160006ERSH_, symObjAddr: 0x1850C, symBinAddr: 0x100020600, symSize: 0x24 }
  - { offsetInCU: 0x6D322, offset: 0x6D322, size: 0x8, addend: 0x0, symName: __ZNKSt3__110unique_ptrINS_11__tree_nodeINS_12__value_typeINS_12basic_stringIcNS_11char_traitsIcEENS_9allocatorIcEEEEN8nlohmann16json_abi_v3_11_210basic_jsonINS_3mapENS_6vectorES8_bxydS6_NSA_14adl_serializerENSD_IhNS6_IhEEEEEEEEPvEENS_22__tree_node_destructorINS6_ISK_EEEEEptB7v160006Ev, symObjAddr: 0x18530, symBinAddr: 0x100020624, symSize: 0x28 }
  - { offsetInCU: 0x6D348, offset: 0x6D348, size: 0x8, addend: 0x0, symName: __ZNSt3__110unique_ptrINS_11__tree_nodeINS_12__value_typeINS_12basic_stringIcNS_11char_traitsIcEENS_9allocatorIcEEEEN8nlohmann16json_abi_v3_11_210basic_jsonINS_3mapENS_6vectorES8_bxydS6_NSA_14adl_serializerENSD_IhNS6_IhEEEEEEEEPvEENS_22__tree_node_destructorINS6_ISK_EEEEE11get_deleterB7v160006Ev, symObjAddr: 0x18558, symBinAddr: 0x10002064C, symSize: 0x24 }
  - { offsetInCU: 0x6D36E, offset: 0x6D36E, size: 0x8, addend: 0x0, symName: __ZNSt3__117__compressed_pairINS_15__tree_end_nodeIPNS_16__tree_node_baseIPvEEEENS_9allocatorINS_11__tree_nodeINS_12__value_typeINS_12basic_stringIcNS_11char_traitsIcEENS7_IcEEEEN8nlohmann16json_abi_v3_11_210basic_jsonINS_3mapENS_6vectorESE_bxydS7_NSG_14adl_serializerENSJ_IhNS7_IhEEEEEEEES3_EEEEE6secondB7v160006Ev, symObjAddr: 0x1857C, symBinAddr: 0x100020670, symSize: 0x24 }
  - { offsetInCU: 0x6D394, offset: 0x6D394, size: 0x8, addend: 0x0, symName: __ZNSt3__122__compressed_pair_elemINS_9allocatorINS_11__tree_nodeINS_12__value_typeINS_12basic_stringIcNS_11char_traitsIcEENS1_IcEEEEN8nlohmann16json_abi_v3_11_210basic_jsonINS_3mapENS_6vectorES8_bxydS1_NSA_14adl_serializerENSD_IhNS1_IhEEEEEEEEPvEEEELi1ELb1EE5__getB7v160006Ev, symObjAddr: 0x185A0, symBinAddr: 0x100020694, symSize: 0x14 }
  - { offsetInCU: 0x6D3BA, offset: 0x6D3BA, size: 0x8, addend: 0x0, symName: __ZNSt3__19allocatorINS_11__tree_nodeINS_12__value_typeINS_12basic_stringIcNS_11char_traitsIcEENS0_IcEEEEN8nlohmann16json_abi_v3_11_210basic_jsonINS_3mapENS_6vectorES7_bxydS0_NS9_14adl_serializerENSC_IhNS0_IhEEEEEEEEPvEEE8allocateB7v160006Em, symObjAddr: 0x185B4, symBinAddr: 0x1000206A8, symSize: 0x5C }
  - { offsetInCU: 0x6D3EE, offset: 0x6D3EE, size: 0x8, addend: 0x0, symName: __ZNSt3__122__tree_node_destructorINS_9allocatorINS_11__tree_nodeINS_12__value_typeINS_12basic_stringIcNS_11char_traitsIcEENS1_IcEEEEN8nlohmann16json_abi_v3_11_210basic_jsonINS_3mapENS_6vectorES8_bxydS1_NSA_14adl_serializerENSD_IhNS1_IhEEEEEEEEPvEEEEEC2B7v160006ERSL_b, symObjAddr: 0x18610, symBinAddr: 0x100020704, symSize: 0x38 }
  - { offsetInCU: 0x6D436, offset: 0x6D436, size: 0x8, addend: 0x0, symName: __ZNSt3__110unique_ptrINS_11__tree_nodeINS_12__value_typeINS_12basic_stringIcNS_11char_traitsIcEENS_9allocatorIcEEEEN8nlohmann16json_abi_v3_11_210basic_jsonINS_3mapENS_6vectorES8_bxydS6_NSA_14adl_serializerENSD_IhNS6_IhEEEEEEEEPvEENS_22__tree_node_destructorINS6_ISK_EEEEEC2B7v160006ILb1EvEEPSK_NS_16__dependent_typeINS_27__unique_ptr_deleter_sfinaeISN_EEXT_EE20__good_rval_ref_typeE, symObjAddr: 0x18648, symBinAddr: 0x10002073C, symSize: 0x48 }
  - { offsetInCU: 0x6D487, offset: 0x6D487, size: 0x8, addend: 0x0, symName: __ZNSt3__117__compressed_pairIPNS_11__tree_nodeINS_12__value_typeINS_12basic_stringIcNS_11char_traitsIcEENS_9allocatorIcEEEEN8nlohmann16json_abi_v3_11_210basic_jsonINS_3mapENS_6vectorES8_bxydS6_NSA_14adl_serializerENSD_IhNS6_IhEEEEEEEEPvEENS_22__tree_node_destructorINS6_ISK_EEEEEC1B7v160006IRSL_SO_EEOT_OT0_, symObjAddr: 0x18690, symBinAddr: 0x100020784, symSize: 0x3C }
  - { offsetInCU: 0x6D4DF, offset: 0x6D4DF, size: 0x8, addend: 0x0, symName: __ZNSt3__117__compressed_pairIPNS_11__tree_nodeINS_12__value_typeINS_12basic_stringIcNS_11char_traitsIcEENS_9allocatorIcEEEEN8nlohmann16json_abi_v3_11_210basic_jsonINS_3mapENS_6vectorES8_bxydS6_NSA_14adl_serializerENSD_IhNS6_IhEEEEEEEEPvEENS_22__tree_node_destructorINS6_ISK_EEEEEC2B7v160006IRSL_SO_EEOT_OT0_, symObjAddr: 0x186CC, symBinAddr: 0x1000207C0, symSize: 0x48 }
  - { offsetInCU: 0x6D537, offset: 0x6D537, size: 0x8, addend: 0x0, symName: __ZNSt3__122__compressed_pair_elemIPNS_11__tree_nodeINS_12__value_typeINS_12basic_stringIcNS_11char_traitsIcEENS_9allocatorIcEEEEN8nlohmann16json_abi_v3_11_210basic_jsonINS_3mapENS_6vectorES8_bxydS6_NSA_14adl_serializerENSD_IhNS6_IhEEEEEEEEPvEELi0ELb0EEC2B7v160006IRSL_vEEOT_, symObjAddr: 0x18714, symBinAddr: 0x100020808, symSize: 0x24 }
  - { offsetInCU: 0x6D579, offset: 0x6D579, size: 0x8, addend: 0x0, symName: __ZNSt3__122__compressed_pair_elemINS_22__tree_node_destructorINS_9allocatorINS_11__tree_nodeINS_12__value_typeINS_12basic_stringIcNS_11char_traitsIcEENS2_IcEEEEN8nlohmann16json_abi_v3_11_210basic_jsonINS_3mapENS_6vectorES9_bxydS2_NSB_14adl_serializerENSE_IhNS2_IhEEEEEEEEPvEEEEEELi1ELb0EEC2B7v160006ISN_vEEOT_, symObjAddr: 0x18738, symBinAddr: 0x10002082C, symSize: 0x24 }
  - { offsetInCU: 0x6D5BB, offset: 0x6D5BB, size: 0x8, addend: 0x0, symName: __ZNSt3__19allocatorINS_11__tree_nodeINS_12__value_typeINS_12basic_stringIcNS_11char_traitsIcEENS0_IcEEEEN8nlohmann16json_abi_v3_11_210basic_jsonINS_3mapENS_6vectorES7_bxydS0_NS9_14adl_serializerENSC_IhNS0_IhEEEEEEEEPvEEE9constructB7v160006INS_4pairIKS7_SG_EEJRKSO_EEEvPT_DpOT0_, symObjAddr: 0x1875C, symBinAddr: 0x100020850, symSize: 0x30 }
  - { offsetInCU: 0x6D611, offset: 0x6D611, size: 0x8, addend: 0x0, symName: __ZNSt3__14pairIKNS_12basic_stringIcNS_11char_traitsIcEENS_9allocatorIcEEEEN8nlohmann16json_abi_v3_11_210basic_jsonINS_3mapENS_6vectorES6_bxydS4_NS9_14adl_serializerENSC_IhNS4_IhEEEEEEEC1ERKSH_, symObjAddr: 0x1878C, symBinAddr: 0x100020880, symSize: 0x34 }
  - { offsetInCU: 0x6D646, offset: 0x6D646, size: 0x8, addend: 0x0, symName: __ZNSt3__14pairIKNS_12basic_stringIcNS_11char_traitsIcEENS_9allocatorIcEEEEN8nlohmann16json_abi_v3_11_210basic_jsonINS_3mapENS_6vectorES6_bxydS4_NS9_14adl_serializerENSC_IhNS4_IhEEEEEEEC2ERKSH_, symObjAddr: 0x187C0, symBinAddr: 0x1000208B4, symSize: 0x70 }
  - { offsetInCU: 0x6D67B, offset: 0x6D67B, size: 0x8, addend: 0x0, symName: __ZNSt3__112__value_typeINS_12basic_stringIcNS_11char_traitsIcEENS_9allocatorIcEEEEN8nlohmann16json_abi_v3_11_210basic_jsonINS_3mapENS_6vectorES6_bxydS4_NS8_14adl_serializerENSB_IhNS4_IhEEEEEEE11__get_valueB7v160006Ev, symObjAddr: 0x18830, symBinAddr: 0x100020924, symSize: 0x24 }
  - { offsetInCU: 0x6D6A1, offset: 0x6D6A1, size: 0x8, addend: 0x0, symName: __ZNKSt3__117__compressed_pairIPNS_11__tree_nodeINS_12__value_typeINS_12basic_stringIcNS_11char_traitsIcEENS_9allocatorIcEEEEN8nlohmann16json_abi_v3_11_210basic_jsonINS_3mapENS_6vectorES8_bxydS6_NSA_14adl_serializerENSD_IhNS6_IhEEEEEEEEPvEENS_22__tree_node_destructorINS6_ISK_EEEEE5firstB7v160006Ev, symObjAddr: 0x1888C, symBinAddr: 0x100020980, symSize: 0x24 }
  - { offsetInCU: 0x6D6C7, offset: 0x6D6C7, size: 0x8, addend: 0x0, symName: __ZNKSt3__122__compressed_pair_elemIPNS_11__tree_nodeINS_12__value_typeINS_12basic_stringIcNS_11char_traitsIcEENS_9allocatorIcEEEEN8nlohmann16json_abi_v3_11_210basic_jsonINS_3mapENS_6vectorES8_bxydS6_NSA_14adl_serializerENSD_IhNS6_IhEEEEEEEEPvEELi0ELb0EE5__getB7v160006Ev, symObjAddr: 0x188B0, symBinAddr: 0x1000209A4, symSize: 0x14 }
  - { offsetInCU: 0x6D6ED, offset: 0x6D6ED, size: 0x8, addend: 0x0, symName: __ZNSt3__117__compressed_pairIPNS_11__tree_nodeINS_12__value_typeINS_12basic_stringIcNS_11char_traitsIcEENS_9allocatorIcEEEEN8nlohmann16json_abi_v3_11_210basic_jsonINS_3mapENS_6vectorES8_bxydS6_NSA_14adl_serializerENSD_IhNS6_IhEEEEEEEEPvEENS_22__tree_node_destructorINS6_ISK_EEEEE6secondB7v160006Ev, symObjAddr: 0x188C4, symBinAddr: 0x1000209B8, symSize: 0x28 }
  - { offsetInCU: 0x6D713, offset: 0x6D713, size: 0x8, addend: 0x0, symName: __ZNSt3__122__compressed_pair_elemINS_22__tree_node_destructorINS_9allocatorINS_11__tree_nodeINS_12__value_typeINS_12basic_stringIcNS_11char_traitsIcEENS2_IcEEEEN8nlohmann16json_abi_v3_11_210basic_jsonINS_3mapENS_6vectorES9_bxydS2_NSB_14adl_serializerENSE_IhNS2_IhEEEEEEEEPvEEEEEELi1ELb0EE5__getB7v160006Ev, symObjAddr: 0x188EC, symBinAddr: 0x1000209E0, symSize: 0x14 }
  - { offsetInCU: 0x6D739, offset: 0x6D739, size: 0x8, addend: 0x0, symName: __ZNSt3__16__treeINS_12__value_typeINS_12basic_stringIcNS_11char_traitsIcEENS_9allocatorIcEEEEN8nlohmann16json_abi_v3_11_210basic_jsonINS_3mapENS_6vectorES7_bxydS5_NS9_14adl_serializerENSC_IhNS5_IhEEEEEEEENS_19__map_value_compareIS7_SH_NS_4lessIvEELb1EEENS5_ISH_EEE4sizeB7v160006Ev, symObjAddr: 0x18B7C, symBinAddr: 0x100020C70, symSize: 0x28 }
  - { offsetInCU: 0x6D75F, offset: 0x6D75F, size: 0x8, addend: 0x0, symName: __ZNSt3__116__tree_node_baseIPvE12__set_parentB7v160006EPS2_, symObjAddr: 0x18D48, symBinAddr: 0x100020E3C, symSize: 0x20 }
  - { offsetInCU: 0x6D794, offset: 0x6D794, size: 0x8, addend: 0x0, symName: __ZNSt3__117__compressed_pairImNS_19__map_value_compareINS_12basic_stringIcNS_11char_traitsIcEENS_9allocatorIcEEEENS_12__value_typeIS7_N8nlohmann16json_abi_v3_11_210basic_jsonINS_3mapENS_6vectorES7_bxydS5_NSA_14adl_serializerENSD_IhNS5_IhEEEEEEEENS_4lessIvEELb1EEEE5firstB7v160006Ev, symObjAddr: 0x18D68, symBinAddr: 0x100020E5C, symSize: 0x24 }
  - { offsetInCU: 0x6D7BA, offset: 0x6D7BA, size: 0x8, addend: 0x0, symName: __ZNSt3__117__compressed_pairIPNS_11__tree_nodeINS_12__value_typeINS_12basic_stringIcNS_11char_traitsIcEENS_9allocatorIcEEEEN8nlohmann16json_abi_v3_11_210basic_jsonINS_3mapENS_6vectorES8_bxydS6_NSA_14adl_serializerENSD_IhNS6_IhEEEEEEEEPvEENS_22__tree_node_destructorINS6_ISK_EEEEE5firstB7v160006Ev, symObjAddr: 0x18D8C, symBinAddr: 0x100020E80, symSize: 0x24 }
  - { offsetInCU: 0x6D7E0, offset: 0x6D7E0, size: 0x8, addend: 0x0, symName: __ZNSt3__122__compressed_pair_elemIPNS_11__tree_nodeINS_12__value_typeINS_12basic_stringIcNS_11char_traitsIcEENS_9allocatorIcEEEEN8nlohmann16json_abi_v3_11_210basic_jsonINS_3mapENS_6vectorES8_bxydS6_NSA_14adl_serializerENSD_IhNS6_IhEEEEEEEEPvEELi0ELb0EE5__getB7v160006Ev, symObjAddr: 0x18DB0, symBinAddr: 0x100020EA4, symSize: 0x14 }
  - { offsetInCU: 0x6D806, offset: 0x6D806, size: 0x8, addend: 0x0, symName: __ZNSt3__110unique_ptrINS_11__tree_nodeINS_12__value_typeINS_12basic_stringIcNS_11char_traitsIcEENS_9allocatorIcEEEEN8nlohmann16json_abi_v3_11_210basic_jsonINS_3mapENS_6vectorES8_bxydS6_NSA_14adl_serializerENSD_IhNS6_IhEEEEEEEEPvEENS_22__tree_node_destructorINS6_ISK_EEEEED2B7v160006Ev, symObjAddr: 0x18DC4, symBinAddr: 0x100020EB8, symSize: 0x30 }
  - { offsetInCU: 0x6D830, offset: 0x6D830, size: 0x8, addend: 0x0, symName: __ZNSt3__110unique_ptrINS_11__tree_nodeINS_12__value_typeINS_12basic_stringIcNS_11char_traitsIcEENS_9allocatorIcEEEEN8nlohmann16json_abi_v3_11_210basic_jsonINS_3mapENS_6vectorES8_bxydS6_NSA_14adl_serializerENSD_IhNS6_IhEEEEEEEEPvEENS_22__tree_node_destructorINS6_ISK_EEEEE5resetB7v160006EPSK_, symObjAddr: 0x18DF4, symBinAddr: 0x100020EE8, symSize: 0x78 }
  - { offsetInCU: 0x6D874, offset: 0x6D874, size: 0x8, addend: 0x0, symName: __ZNSt3__122__tree_node_destructorINS_9allocatorINS_11__tree_nodeINS_12__value_typeINS_12basic_stringIcNS_11char_traitsIcEENS1_IcEEEEN8nlohmann16json_abi_v3_11_210basic_jsonINS_3mapENS_6vectorES8_bxydS1_NSA_14adl_serializerENSD_IhNS1_IhEEEEEEEEPvEEEEEclB7v160006EPSK_, symObjAddr: 0x18E6C, symBinAddr: 0x100020F60, symSize: 0x98 }
  - { offsetInCU: 0x6D8A9, offset: 0x6D8A9, size: 0x8, addend: 0x0, symName: __ZNSt3__116allocator_traitsINS_9allocatorINS_11__tree_nodeINS_12__value_typeINS_12basic_stringIcNS_11char_traitsIcEENS1_IcEEEEN8nlohmann16json_abi_v3_11_210basic_jsonINS_3mapENS_6vectorES8_bxydS1_NSA_14adl_serializerENSD_IhNS1_IhEEEEEEEEPvEEEEE7destroyB7v160006INS_4pairIKS8_SH_EEvvEEvRSL_PT_, symObjAddr: 0x18F04, symBinAddr: 0x100020FF8, symSize: 0x28 }
  - { offsetInCU: 0x6D8E4, offset: 0x6D8E4, size: 0x8, addend: 0x0, symName: __ZNSt3__116allocator_traitsINS_9allocatorINS_11__tree_nodeINS_12__value_typeINS_12basic_stringIcNS_11char_traitsIcEENS1_IcEEEEN8nlohmann16json_abi_v3_11_210basic_jsonINS_3mapENS_6vectorES8_bxydS1_NSA_14adl_serializerENSD_IhNS1_IhEEEEEEEEPvEEEEE10deallocateB7v160006ERSL_PSK_m, symObjAddr: 0x18F2C, symBinAddr: 0x100021020, symSize: 0x34 }
  - { offsetInCU: 0x6D926, offset: 0x6D926, size: 0x8, addend: 0x0, symName: __ZNSt3__14pairIKNS_12basic_stringIcNS_11char_traitsIcEENS_9allocatorIcEEEEN8nlohmann16json_abi_v3_11_210basic_jsonINS_3mapENS_6vectorES6_bxydS4_NS9_14adl_serializerENSC_IhNS4_IhEEEEEEED1Ev, symObjAddr: 0x18F60, symBinAddr: 0x100021054, symSize: 0x2C }
  - { offsetInCU: 0x6D952, offset: 0x6D952, size: 0x8, addend: 0x0, symName: __ZNSt3__14pairIKNS_12basic_stringIcNS_11char_traitsIcEENS_9allocatorIcEEEEN8nlohmann16json_abi_v3_11_210basic_jsonINS_3mapENS_6vectorES6_bxydS4_NS9_14adl_serializerENSC_IhNS4_IhEEEEEEED2Ev, symObjAddr: 0x18F8C, symBinAddr: 0x100021080, symSize: 0x38 }
  - { offsetInCU: 0x6D97E, offset: 0x6D97E, size: 0x8, addend: 0x0, symName: __ZNSt3__19allocatorINS_11__tree_nodeINS_12__value_typeINS_12basic_stringIcNS_11char_traitsIcEENS0_IcEEEEN8nlohmann16json_abi_v3_11_210basic_jsonINS_3mapENS_6vectorES7_bxydS0_NS9_14adl_serializerENSC_IhNS0_IhEEEEEEEEPvEEE10deallocateB7v160006EPSJ_m, symObjAddr: 0x18FC4, symBinAddr: 0x1000210B8, symSize: 0x44 }
  - { offsetInCU: 0x6D9C0, offset: 0x6D9C0, size: 0x8, addend: 0x0, symName: __ZNSt3__115__tree_iteratorINS_12__value_typeINS_12basic_stringIcNS_11char_traitsIcEENS_9allocatorIcEEEEN8nlohmann16json_abi_v3_11_210basic_jsonINS_3mapENS_6vectorES7_bxydS5_NS9_14adl_serializerENSC_IhNS5_IhEEEEEEEEPNS_11__tree_nodeISH_PvEElEC2B7v160006ESL_, symObjAddr: 0x19008, symBinAddr: 0x1000210FC, symSize: 0x20 }
  - { offsetInCU: 0x6D9F9, offset: 0x6D9F9, size: 0x8, addend: 0x0, symName: __ZNSt3__14pairINS_15__tree_iteratorINS_12__value_typeINS_12basic_stringIcNS_11char_traitsIcEENS_9allocatorIcEEEEN8nlohmann16json_abi_v3_11_210basic_jsonINS_3mapENS_6vectorES8_bxydS6_NSA_14adl_serializerENSD_IhNS6_IhEEEEEEEEPNS_11__tree_nodeISI_PvEElEEbEC2B7v160006ISN_RbLSK_0EEEOT_OT0_, symObjAddr: 0x19028, symBinAddr: 0x10002111C, symSize: 0x38 }
  - { offsetInCU: 0x6DA57, offset: 0x6DA57, size: 0x8, addend: 0x0, symName: __ZNSt3__114__map_iteratorINS_15__tree_iteratorINS_12__value_typeINS_12basic_stringIcNS_11char_traitsIcEENS_9allocatorIcEEEEN8nlohmann16json_abi_v3_11_210basic_jsonINS_3mapENS_6vectorES8_bxydS6_NSA_14adl_serializerENSD_IhNS6_IhEEEEEEEEPNS_11__tree_nodeISI_PvEElEEEC2B7v160006ESN_, symObjAddr: 0x19060, symBinAddr: 0x100021154, symSize: 0x20 }
  - { offsetInCU: 0x6DA90, offset: 0x6DA90, size: 0x8, addend: 0x0, symName: __ZNSt3__120__map_const_iteratorINS_21__tree_const_iteratorINS_12__value_typeINS_12basic_stringIcNS_11char_traitsIcEENS_9allocatorIcEEEEN8nlohmann16json_abi_v3_11_210basic_jsonINS_3mapENS_6vectorES8_bxydS6_NSA_14adl_serializerENSD_IhNS6_IhEEEEEEEEPNS_11__tree_nodeISI_PvEElEEEC2B7v160006ESN_, symObjAddr: 0x19080, symBinAddr: 0x100021174, symSize: 0x20 }
  - { offsetInCU: 0x6DAC9, offset: 0x6DAC9, size: 0x8, addend: 0x0, symName: __ZNKSt3__121__tree_const_iteratorINS_12__value_typeINS_12basic_stringIcNS_11char_traitsIcEENS_9allocatorIcEEEEN8nlohmann16json_abi_v3_11_210basic_jsonINS_3mapENS_6vectorES7_bxydS5_NS9_14adl_serializerENSC_IhNS5_IhEEEEEEEEPNS_11__tree_nodeISH_PvEElEptB7v160006Ev, symObjAddr: 0x190A0, symBinAddr: 0x100021194, symSize: 0x2C }
  - { offsetInCU: 0x6DAEF, offset: 0x6DAEF, size: 0x8, addend: 0x0, symName: __ZNSt3__114pointer_traitsIPKNS_12__value_typeINS_12basic_stringIcNS_11char_traitsIcEENS_9allocatorIcEEEEN8nlohmann16json_abi_v3_11_210basic_jsonINS_3mapENS_6vectorES7_bxydS5_NS9_14adl_serializerENSC_IhNS5_IhEEEEEEEEE10pointer_toB7v160006ERSI_, symObjAddr: 0x190CC, symBinAddr: 0x1000211C0, symSize: 0x14 }
  - { offsetInCU: 0x6DB12, offset: 0x6DB12, size: 0x8, addend: 0x0, symName: __ZNKSt3__16__treeINS_12__value_typeINS_12basic_stringIcNS_11char_traitsIcEENS_9allocatorIcEEEEN8nlohmann16json_abi_v3_11_210basic_jsonINS_3mapENS_6vectorES7_bxydS5_NS9_14adl_serializerENSC_IhNS5_IhEEEEEEEENS_19__map_value_compareIS7_SH_NS_4lessIvEELb1EEENS5_ISH_EEE5beginB7v160006Ev, symObjAddr: 0x190E0, symBinAddr: 0x1000211D4, symSize: 0x34 }
  - { offsetInCU: 0x6DB38, offset: 0x6DB38, size: 0x8, addend: 0x0, symName: __ZNKSt3__16__treeINS_12__value_typeINS_12basic_stringIcNS_11char_traitsIcEENS_9allocatorIcEEEEN8nlohmann16json_abi_v3_11_210basic_jsonINS_3mapENS_6vectorES7_bxydS5_NS9_14adl_serializerENSC_IhNS5_IhEEEEEEEENS_19__map_value_compareIS7_SH_NS_4lessIvEELb1EEENS5_ISH_EEE12__begin_nodeB7v160006Ev, symObjAddr: 0x19114, symBinAddr: 0x100021208, symSize: 0x14 }
  - { offsetInCU: 0x6DB5E, offset: 0x6DB5E, size: 0x8, addend: 0x0, symName: __ZNSt3__121__tree_const_iteratorINS_12__value_typeINS_12basic_stringIcNS_11char_traitsIcEENS_9allocatorIcEEEEN8nlohmann16json_abi_v3_11_210basic_jsonINS_3mapENS_6vectorES7_bxydS5_NS9_14adl_serializerENSC_IhNS5_IhEEEEEEEEPNS_11__tree_nodeISH_PvEElEC1B7v160006EPNS_15__tree_end_nodeIPNS_16__tree_node_baseISJ_EEEE, symObjAddr: 0x19128, symBinAddr: 0x10002121C, symSize: 0x34 }
  - { offsetInCU: 0x6DB97, offset: 0x6DB97, size: 0x8, addend: 0x0, symName: __ZNSt3__121__tree_const_iteratorINS_12__value_typeINS_12basic_stringIcNS_11char_traitsIcEENS_9allocatorIcEEEEN8nlohmann16json_abi_v3_11_210basic_jsonINS_3mapENS_6vectorES7_bxydS5_NS9_14adl_serializerENSC_IhNS5_IhEEEEEEEEPNS_11__tree_nodeISH_PvEElEC2B7v160006EPNS_15__tree_end_nodeIPNS_16__tree_node_baseISJ_EEEE, symObjAddr: 0x1915C, symBinAddr: 0x100021250, symSize: 0x20 }
  - { offsetInCU: 0x6DBD0, offset: 0x6DBD0, size: 0x8, addend: 0x0, symName: __ZNKSt3__16__treeINS_12__value_typeINS_12basic_stringIcNS_11char_traitsIcEENS_9allocatorIcEEEEN8nlohmann16json_abi_v3_11_210basic_jsonINS_3mapENS_6vectorES7_bxydS5_NS9_14adl_serializerENSC_IhNS5_IhEEEEEEEENS_19__map_value_compareIS7_SH_NS_4lessIvEELb1EEENS5_ISH_EEE3endB7v160006Ev, symObjAddr: 0x1917C, symBinAddr: 0x100021270, symSize: 0x34 }
  - { offsetInCU: 0x6DBF6, offset: 0x6DBF6, size: 0x8, addend: 0x0, symName: __ZNSt3__16__treeINS_12__value_typeINS_12basic_stringIcNS_11char_traitsIcEENS_9allocatorIcEEEEN8nlohmann16json_abi_v3_11_210basic_jsonINS_3mapENS_6vectorES7_bxydS5_NS9_14adl_serializerENSC_IhNS5_IhEEEEEEEENS_19__map_value_compareIS7_SH_NS_4lessIvEELb1EEENS5_ISH_EEED2Ev, symObjAddr: 0x191B0, symBinAddr: 0x1000212A4, symSize: 0x38 }
  - { offsetInCU: 0x6DC22, offset: 0x6DC22, size: 0x8, addend: 0x0, symName: __ZNSt3__16__treeINS_12__value_typeINS_12basic_stringIcNS_11char_traitsIcEENS_9allocatorIcEEEEN8nlohmann16json_abi_v3_11_210basic_jsonINS_3mapENS_6vectorES7_bxydS5_NS9_14adl_serializerENSC_IhNS5_IhEEEEEEEENS_19__map_value_compareIS7_SH_NS_4lessIvEELb1EEENS5_ISH_EEE7destroyEPNS_11__tree_nodeISH_PvEE, symObjAddr: 0x191E8, symBinAddr: 0x1000212DC, symSize: 0xA8 }
  - { offsetInCU: 0x6DC6E, offset: 0x6DC6E, size: 0x8, addend: 0x0, symName: __ZNKSt3__117__compressed_pairIPNS_3mapINS_12basic_stringIcNS_11char_traitsIcEENS_9allocatorIcEEEEN8nlohmann16json_abi_v3_11_210basic_jsonIS1_NS_6vectorES7_bxydS5_NS9_14adl_serializerENSB_IhNS5_IhEEEEEENS_4lessIvEENS5_INS_4pairIKS7_SF_EEEEEEZNSF_6createISM_JRKSM_EEEPT_DpOT0_EUlSN_E_E5firstB7v160006Ev, symObjAddr: 0x19290, symBinAddr: 0x100021384, symSize: 0x24 }
  - { offsetInCU: 0x6DC94, offset: 0x6DC94, size: 0x8, addend: 0x0, symName: __ZNKSt3__122__compressed_pair_elemIPNS_3mapINS_12basic_stringIcNS_11char_traitsIcEENS_9allocatorIcEEEEN8nlohmann16json_abi_v3_11_210basic_jsonIS1_NS_6vectorES7_bxydS5_NS9_14adl_serializerENSB_IhNS5_IhEEEEEENS_4lessIvEENS5_INS_4pairIKS7_SF_EEEEEELi0ELb0EE5__getB7v160006Ev, symObjAddr: 0x192B4, symBinAddr: 0x1000213A8, symSize: 0x14 }
  - { offsetInCU: 0x6DCBA, offset: 0x6DCBA, size: 0x8, addend: 0x0, symName: __ZNKSt3__110unique_ptrINS_3mapINS_12basic_stringIcNS_11char_traitsIcEENS_9allocatorIcEEEEN8nlohmann16json_abi_v3_11_210basic_jsonIS1_NS_6vectorES7_bxydS5_NS9_14adl_serializerENSB_IhNS5_IhEEEEEENS_4lessIvEENS5_INS_4pairIKS7_SF_EEEEEEZNSF_6createISM_JRKSM_EEEPT_DpOT0_EUlPSM_E_EcvbB7v160006Ev, symObjAddr: 0x192C8, symBinAddr: 0x1000213BC, symSize: 0x34 }
  - { offsetInCU: 0x6DCE0, offset: 0x6DCE0, size: 0x8, addend: 0x0, symName: __ZNSt3__117__compressed_pairIPNS_3mapINS_12basic_stringIcNS_11char_traitsIcEENS_9allocatorIcEEEEN8nlohmann16json_abi_v3_11_210basic_jsonIS1_NS_6vectorES7_bxydS5_NS9_14adl_serializerENSB_IhNS5_IhEEEEEENS_4lessIvEENS5_INS_4pairIKS7_SF_EEEEEEZNSF_6createISM_JRKSM_EEEPT_DpOT0_EUlSN_E_E5firstB7v160006Ev, symObjAddr: 0x192FC, symBinAddr: 0x1000213F0, symSize: 0x24 }
  - { offsetInCU: 0x6DD06, offset: 0x6DD06, size: 0x8, addend: 0x0, symName: __ZNSt3__122__compressed_pair_elemIPNS_3mapINS_12basic_stringIcNS_11char_traitsIcEENS_9allocatorIcEEEEN8nlohmann16json_abi_v3_11_210basic_jsonIS1_NS_6vectorES7_bxydS5_NS9_14adl_serializerENSB_IhNS5_IhEEEEEENS_4lessIvEENS5_INS_4pairIKS7_SF_EEEEEELi0ELb0EE5__getB7v160006Ev, symObjAddr: 0x19320, symBinAddr: 0x100021414, symSize: 0x14 }
  - { offsetInCU: 0x6DD2C, offset: 0x6DD2C, size: 0x8, addend: 0x0, symName: __ZNSt3__110unique_ptrINS_3mapINS_12basic_stringIcNS_11char_traitsIcEENS_9allocatorIcEEEEN8nlohmann16json_abi_v3_11_210basic_jsonIS1_NS_6vectorES7_bxydS5_NS9_14adl_serializerENSB_IhNS5_IhEEEEEENS_4lessIvEENS5_INS_4pairIKS7_SF_EEEEEEZNSF_6createISM_JRKSM_EEEPT_DpOT0_EUlPSM_E_ED2B7v160006Ev, symObjAddr: 0x19334, symBinAddr: 0x100021428, symSize: 0x30 }
  - { offsetInCU: 0x6DD56, offset: 0x6DD56, size: 0x8, addend: 0x0, symName: __ZNSt3__110unique_ptrINS_3mapINS_12basic_stringIcNS_11char_traitsIcEENS_9allocatorIcEEEEN8nlohmann16json_abi_v3_11_210basic_jsonIS1_NS_6vectorES7_bxydS5_NS9_14adl_serializerENSB_IhNS5_IhEEEEEENS_4lessIvEENS5_INS_4pairIKS7_SF_EEEEEEZNSF_6createISM_JRKSM_EEEPT_DpOT0_EUlPSM_E_E5resetB7v160006ESV_, symObjAddr: 0x19364, symBinAddr: 0x100021458, symSize: 0x80 }
  - { offsetInCU: 0x6DD9A, offset: 0x6DD9A, size: 0x8, addend: 0x0, symName: __ZNSt3__117__compressed_pairIPNS_3mapINS_12basic_stringIcNS_11char_traitsIcEENS_9allocatorIcEEEEN8nlohmann16json_abi_v3_11_210basic_jsonIS1_NS_6vectorES7_bxydS5_NS9_14adl_serializerENSB_IhNS5_IhEEEEEENS_4lessIvEENS5_INS_4pairIKS7_SF_EEEEEEZNSF_6createISM_JRKSM_EEEPT_DpOT0_EUlSN_E_E6secondB7v160006Ev, symObjAddr: 0x193E4, symBinAddr: 0x1000214D8, symSize: 0x28 }
  - { offsetInCU: 0x6DDC6, offset: 0x6DDC6, size: 0x8, addend: 0x0, symName: __ZZN8nlohmann16json_abi_v3_11_210basic_jsonINSt3__13mapENS2_6vectorENS2_12basic_stringIcNS2_11char_traitsIcEENS2_9allocatorIcEEEEbxydS8_NS0_14adl_serializerENS4_IhNS8_IhEEEEE6createINS3_ISA_SE_NS2_4lessIvEENS8_INS2_4pairIKSA_SE_EEEEEEJRKSM_EEEPT_DpOT0_ENKUlPSM_E_clESU_, symObjAddr: 0x1940C, symBinAddr: 0x100021500, symSize: 0x34 }
  - { offsetInCU: 0x6DDFF, offset: 0x6DDFF, size: 0x8, addend: 0x0, symName: __ZNSt3__122__compressed_pair_elemIZN8nlohmann16json_abi_v3_11_210basic_jsonINS_3mapENS_6vectorENS_12basic_stringIcNS_11char_traitsIcEENS_9allocatorIcEEEEbxydS9_NS2_14adl_serializerENS5_IhNS9_IhEEEEE6createINS4_ISB_SF_NS_4lessIvEENS9_INS_4pairIKSB_SF_EEEEEEJRKSN_EEEPT_DpOT0_EUlPSN_E_Li1ELb0EE5__getB7v160006Ev, symObjAddr: 0x19440, symBinAddr: 0x100021534, symSize: 0x14 }
  - { offsetInCU: 0x6DE25, offset: 0x6DE25, size: 0x8, addend: 0x0, symName: __ZNSt3__116allocator_traitsINS_9allocatorINS_3mapINS_12basic_stringIcNS_11char_traitsIcEENS1_IcEEEEN8nlohmann16json_abi_v3_11_210basic_jsonIS2_NS_6vectorES7_bxydS1_NS9_14adl_serializerENSB_IhNS1_IhEEEEEENS_4lessIvEENS1_INS_4pairIKS7_SF_EEEEEEEEE10deallocateB7v160006ERSN_PSM_m, symObjAddr: 0x19454, symBinAddr: 0x100021548, symSize: 0x34 }
  - { offsetInCU: 0x6DE67, offset: 0x6DE67, size: 0x8, addend: 0x0, symName: __ZNSt3__19allocatorINS_3mapINS_12basic_stringIcNS_11char_traitsIcEENS0_IcEEEEN8nlohmann16json_abi_v3_11_210basic_jsonIS1_NS_6vectorES6_bxydS0_NS8_14adl_serializerENSA_IhNS0_IhEEEEEENS_4lessIvEENS0_INS_4pairIKS6_SE_EEEEEEE10deallocateB7v160006EPSL_m, symObjAddr: 0x19488, symBinAddr: 0x10002157C, symSize: 0x44 }
  - { offsetInCU: 0x6DEA9, offset: 0x6DEA9, size: 0x8, addend: 0x0, symName: __ZN8nlohmann16json_abi_v3_11_210basic_jsonINSt3__13mapENS2_6vectorENS2_12basic_stringIcNS2_11char_traitsIcEENS2_9allocatorIcEEEEbxydS8_NS0_14adl_serializerENS4_IhNS8_IhEEEEE10json_valueC2ERKNS4_ISE_NS8_ISE_EEEE, symObjAddr: 0x194CC, symBinAddr: 0x1000215C0, symSize: 0x3C }
  - { offsetInCU: 0x6DEE2, offset: 0x6DEE2, size: 0x8, addend: 0x0, symName: __ZN8nlohmann16json_abi_v3_11_210basic_jsonINSt3__13mapENS2_6vectorENS2_12basic_stringIcNS2_11char_traitsIcEENS2_9allocatorIcEEEEbxydS8_NS0_14adl_serializerENS4_IhNS8_IhEEEEE6createINS4_ISE_NS8_ISE_EEEEJRKSH_EEEPT_DpOT0_, symObjAddr: 0x19508, symBinAddr: 0x1000215FC, symSize: 0xF4 }
  - { offsetInCU: 0x6DF8D, offset: 0x6DF8D, size: 0x8, addend: 0x0, symName: __ZNSt3__19allocatorINS_6vectorIN8nlohmann16json_abi_v3_11_210basic_jsonINS_3mapES1_NS_12basic_stringIcNS_11char_traitsIcEENS0_IcEEEEbxydS0_NS3_14adl_serializerENS1_IhNS0_IhEEEEEENS0_ISE_EEEEEC1B7v160006Ev, symObjAddr: 0x195FC, symBinAddr: 0x1000216F0, symSize: 0x2C }
  - { offsetInCU: 0x6DFBD, offset: 0x6DFBD, size: 0x8, addend: 0x0, symName: __ZNSt3__116allocator_traitsINS_9allocatorINS_6vectorIN8nlohmann16json_abi_v3_11_210basic_jsonINS_3mapES2_NS_12basic_stringIcNS_11char_traitsIcEENS1_IcEEEEbxydS1_NS4_14adl_serializerENS2_IhNS1_IhEEEEEENS1_ISF_EEEEEEE8allocateB7v160006ERSI_m, symObjAddr: 0x19628, symBinAddr: 0x10002171C, symSize: 0x2C }
  - { offsetInCU: 0x6E091, offset: 0x6E091, size: 0x8, addend: 0x0, symName: __ZNSt3__110unique_ptrINS_6vectorIN8nlohmann16json_abi_v3_11_210basic_jsonINS_3mapES1_NS_12basic_stringIcNS_11char_traitsIcEENS_9allocatorIcEEEEbxydS9_NS3_14adl_serializerENS1_IhNS9_IhEEEEEENS9_ISF_EEEEZNSF_6createISH_JRKSH_EEEPT_DpOT0_EUlPSH_E_EC1B7v160006ILb1EvEESQ_NS_16__dependent_typeINS_27__unique_ptr_deleter_sfinaeISR_EEXT_EE15__lval_ref_typeE, symObjAddr: 0x19654, symBinAddr: 0x100021748, symSize: 0x3C }
  - { offsetInCU: 0x6E0E2, offset: 0x6E0E2, size: 0x8, addend: 0x0, symName: __ZNSt3__116allocator_traitsINS_9allocatorINS_6vectorIN8nlohmann16json_abi_v3_11_210basic_jsonINS_3mapES2_NS_12basic_stringIcNS_11char_traitsIcEENS1_IcEEEEbxydS1_NS4_14adl_serializerENS2_IhNS1_IhEEEEEENS1_ISF_EEEEEEE9constructB7v160006ISH_JRKSH_EvEEvRSI_PT_DpOT0_, symObjAddr: 0x19690, symBinAddr: 0x100021784, symSize: 0x34 }
  - { offsetInCU: 0x6E139, offset: 0x6E139, size: 0x8, addend: 0x0, symName: __ZNKSt3__110unique_ptrINS_6vectorIN8nlohmann16json_abi_v3_11_210basic_jsonINS_3mapES1_NS_12basic_stringIcNS_11char_traitsIcEENS_9allocatorIcEEEEbxydS9_NS3_14adl_serializerENS1_IhNS9_IhEEEEEENS9_ISF_EEEEZNSF_6createISH_JRKSH_EEEPT_DpOT0_EUlPSH_E_E3getB7v160006Ev, symObjAddr: 0x196C4, symBinAddr: 0x1000217B8, symSize: 0x28 }
  - { offsetInCU: 0x6E15F, offset: 0x6E15F, size: 0x8, addend: 0x0, symName: __ZNSt3__110unique_ptrINS_6vectorIN8nlohmann16json_abi_v3_11_210basic_jsonINS_3mapES1_NS_12basic_stringIcNS_11char_traitsIcEENS_9allocatorIcEEEEbxydS9_NS3_14adl_serializerENS1_IhNS9_IhEEEEEENS9_ISF_EEEEZNSF_6createISH_JRKSH_EEEPT_DpOT0_EUlPSH_E_E7releaseB7v160006Ev, symObjAddr: 0x19718, symBinAddr: 0x10002180C, symSize: 0x44 }
  - { offsetInCU: 0x6E194, offset: 0x6E194, size: 0x8, addend: 0x0, symName: __ZNSt3__110unique_ptrINS_6vectorIN8nlohmann16json_abi_v3_11_210basic_jsonINS_3mapES1_NS_12basic_stringIcNS_11char_traitsIcEENS_9allocatorIcEEEEbxydS9_NS3_14adl_serializerENS1_IhNS9_IhEEEEEENS9_ISF_EEEEZNSF_6createISH_JRKSH_EEEPT_DpOT0_EUlPSH_E_ED1B7v160006Ev, symObjAddr: 0x1975C, symBinAddr: 0x100021850, symSize: 0x2C }
  - { offsetInCU: 0x6E1BE, offset: 0x6E1BE, size: 0x8, addend: 0x0, symName: __ZNSt3__19allocatorINS_6vectorIN8nlohmann16json_abi_v3_11_210basic_jsonINS_3mapES1_NS_12basic_stringIcNS_11char_traitsIcEENS0_IcEEEEbxydS0_NS3_14adl_serializerENS1_IhNS0_IhEEEEEENS0_ISE_EEEEEC2B7v160006Ev, symObjAddr: 0x19788, symBinAddr: 0x10002187C, symSize: 0x2C }
  - { offsetInCU: 0x6E1E8, offset: 0x6E1E8, size: 0x8, addend: 0x0, symName: __ZNSt3__116__non_trivial_ifILb1ENS_9allocatorINS_6vectorIN8nlohmann16json_abi_v3_11_210basic_jsonINS_3mapES2_NS_12basic_stringIcNS_11char_traitsIcEENS1_IcEEEEbxydS1_NS4_14adl_serializerENS2_IhNS1_IhEEEEEENS1_ISF_EEEEEEEC2B7v160006Ev, symObjAddr: 0x197B4, symBinAddr: 0x1000218A8, symSize: 0x14 }
  - { offsetInCU: 0x6E212, offset: 0x6E212, size: 0x8, addend: 0x0, symName: __ZNSt3__19allocatorINS_6vectorIN8nlohmann16json_abi_v3_11_210basic_jsonINS_3mapES1_NS_12basic_stringIcNS_11char_traitsIcEENS0_IcEEEEbxydS0_NS3_14adl_serializerENS1_IhNS0_IhEEEEEENS0_ISE_EEEEE8allocateB7v160006Em, symObjAddr: 0x197C8, symBinAddr: 0x1000218BC, symSize: 0x5C }
  - { offsetInCU: 0x6E251, offset: 0x6E251, size: 0x8, addend: 0x0, symName: __ZNSt3__116allocator_traitsINS_9allocatorINS_6vectorIN8nlohmann16json_abi_v3_11_210basic_jsonINS_3mapES2_NS_12basic_stringIcNS_11char_traitsIcEENS1_IcEEEEbxydS1_NS4_14adl_serializerENS2_IhNS1_IhEEEEEENS1_ISF_EEEEEEE8max_sizeB7v160006ISI_vEEmRKSI_, symObjAddr: 0x19824, symBinAddr: 0x100021918, symSize: 0x24 }
  - { offsetInCU: 0x6E27F, offset: 0x6E27F, size: 0x8, addend: 0x0, symName: __ZNKSt3__19allocatorINS_6vectorIN8nlohmann16json_abi_v3_11_210basic_jsonINS_3mapES1_NS_12basic_stringIcNS_11char_traitsIcEENS0_IcEEEEbxydS0_NS3_14adl_serializerENS1_IhNS0_IhEEEEEENS0_ISE_EEEEE8max_sizeB7v160006Ev, symObjAddr: 0x19848, symBinAddr: 0x10002193C, symSize: 0x18 }
  - { offsetInCU: 0x6E2A5, offset: 0x6E2A5, size: 0x8, addend: 0x0, symName: __ZNSt3__110unique_ptrINS_6vectorIN8nlohmann16json_abi_v3_11_210basic_jsonINS_3mapES1_NS_12basic_stringIcNS_11char_traitsIcEENS_9allocatorIcEEEEbxydS9_NS3_14adl_serializerENS1_IhNS9_IhEEEEEENS9_ISF_EEEEZNSF_6createISH_JRKSH_EEEPT_DpOT0_EUlPSH_E_EC2B7v160006ILb1EvEESQ_NS_16__dependent_typeINS_27__unique_ptr_deleter_sfinaeISR_EEXT_EE15__lval_ref_typeE, symObjAddr: 0x19860, symBinAddr: 0x100021954, symSize: 0x48 }
  - { offsetInCU: 0x6E2F6, offset: 0x6E2F6, size: 0x8, addend: 0x0, symName: __ZNSt3__117__compressed_pairIPNS_6vectorIN8nlohmann16json_abi_v3_11_210basic_jsonINS_3mapES1_NS_12basic_stringIcNS_11char_traitsIcEENS_9allocatorIcEEEEbxydS9_NS3_14adl_serializerENS1_IhNS9_IhEEEEEENS9_ISF_EEEEZNSF_6createISH_JRKSH_EEEPT_DpOT0_EUlSI_E_EC1B7v160006IRSI_RKSR_EEOSM_OT0_, symObjAddr: 0x198A8, symBinAddr: 0x10002199C, symSize: 0x3C }
  - { offsetInCU: 0x6E34E, offset: 0x6E34E, size: 0x8, addend: 0x0, symName: __ZNSt3__117__compressed_pairIPNS_6vectorIN8nlohmann16json_abi_v3_11_210basic_jsonINS_3mapES1_NS_12basic_stringIcNS_11char_traitsIcEENS_9allocatorIcEEEEbxydS9_NS3_14adl_serializerENS1_IhNS9_IhEEEEEENS9_ISF_EEEEZNSF_6createISH_JRKSH_EEEPT_DpOT0_EUlSI_E_EC2B7v160006IRSI_RKSR_EEOSM_OT0_, symObjAddr: 0x198E4, symBinAddr: 0x1000219D8, symSize: 0x48 }
  - { offsetInCU: 0x6E3A6, offset: 0x6E3A6, size: 0x8, addend: 0x0, symName: __ZNSt3__122__compressed_pair_elemIPNS_6vectorIN8nlohmann16json_abi_v3_11_210basic_jsonINS_3mapES1_NS_12basic_stringIcNS_11char_traitsIcEENS_9allocatorIcEEEEbxydS9_NS3_14adl_serializerENS1_IhNS9_IhEEEEEENS9_ISF_EEEELi0ELb0EEC2B7v160006IRSI_vEEOT_, symObjAddr: 0x1992C, symBinAddr: 0x100021A20, symSize: 0x24 }
  - { offsetInCU: 0x6E3E8, offset: 0x6E3E8, size: 0x8, addend: 0x0, symName: __ZNSt3__122__compressed_pair_elemIZN8nlohmann16json_abi_v3_11_210basic_jsonINS_3mapENS_6vectorENS_12basic_stringIcNS_11char_traitsIcEENS_9allocatorIcEEEEbxydS9_NS2_14adl_serializerENS5_IhNS9_IhEEEEE6createINS5_ISF_NS9_ISF_EEEEJRKSI_EEEPT_DpOT0_EUlPSI_E_Li1ELb0EEC2B7v160006IRKSR_vEEOSL_, symObjAddr: 0x19950, symBinAddr: 0x100021A44, symSize: 0x24 }
  - { offsetInCU: 0x6E42A, offset: 0x6E42A, size: 0x8, addend: 0x0, symName: __ZNSt3__19allocatorINS_6vectorIN8nlohmann16json_abi_v3_11_210basic_jsonINS_3mapES1_NS_12basic_stringIcNS_11char_traitsIcEENS0_IcEEEEbxydS0_NS3_14adl_serializerENS1_IhNS0_IhEEEEEENS0_ISE_EEEEE9constructB7v160006ISG_JRKSG_EEEvPT_DpOT0_, symObjAddr: 0x19974, symBinAddr: 0x100021A68, symSize: 0x30 }
  - { offsetInCU: 0x6E480, offset: 0x6E480, size: 0x8, addend: 0x0, symName: __ZNSt3__16vectorIN8nlohmann16json_abi_v3_11_210basic_jsonINS_3mapES0_NS_12basic_stringIcNS_11char_traitsIcEENS_9allocatorIcEEEEbxydS8_NS2_14adl_serializerENS0_IhNS8_IhEEEEEENS8_ISE_EEEC1ERKSG_, symObjAddr: 0x199A4, symBinAddr: 0x100021A98, symSize: 0x34 }
  - { offsetInCU: 0x6E4BB, offset: 0x6E4BB, size: 0x8, addend: 0x0, symName: __ZNSt3__16vectorIN8nlohmann16json_abi_v3_11_210basic_jsonINS_3mapES0_NS_12basic_stringIcNS_11char_traitsIcEENS_9allocatorIcEEEEbxydS8_NS2_14adl_serializerENS0_IhNS8_IhEEEEEENS8_ISE_EEEC2ERKSG_, symObjAddr: 0x199D8, symBinAddr: 0x100021ACC, symSize: 0x114 }
  - { offsetInCU: 0x6E51A, offset: 0x6E51A, size: 0x8, addend: 0x0, symName: __ZNSt3__116allocator_traitsINS_9allocatorIN8nlohmann16json_abi_v3_11_210basic_jsonINS_3mapENS_6vectorENS_12basic_stringIcNS_11char_traitsIcEENS1_IcEEEEbxydS1_NS3_14adl_serializerENS6_IhNS1_IhEEEEEEEEE37select_on_container_copy_constructionB7v160006ISG_vvEESG_RKSG_, symObjAddr: 0x19AEC, symBinAddr: 0x100021BE0, symSize: 0x10 }
  - { offsetInCU: 0x6E54F, offset: 0x6E54F, size: 0x8, addend: 0x0, symName: __ZNSt3__117__compressed_pairIPN8nlohmann16json_abi_v3_11_210basic_jsonINS_3mapENS_6vectorENS_12basic_stringIcNS_11char_traitsIcEENS_9allocatorIcEEEEbxydS9_NS2_14adl_serializerENS5_IhNS9_IhEEEEEENS9_ISF_EEEC1B7v160006IDnSH_EEOT_OT0_, symObjAddr: 0x19AFC, symBinAddr: 0x100021BF0, symSize: 0x3C }
  - { offsetInCU: 0x6E5A7, offset: 0x6E5A7, size: 0x8, addend: 0x0, symName: __ZNSt3__16vectorIN8nlohmann16json_abi_v3_11_210basic_jsonINS_3mapES0_NS_12basic_stringIcNS_11char_traitsIcEENS_9allocatorIcEEEEbxydS8_NS2_14adl_serializerENS0_IhNS8_IhEEEEEENS8_ISE_EEE16__destroy_vectorC1ERSG_, symObjAddr: 0x19B78, symBinAddr: 0x100021C6C, symSize: 0x34 }
  - { offsetInCU: 0x6E5E0, offset: 0x6E5E0, size: 0x8, addend: 0x0, symName: __ZNSt3__16vectorIN8nlohmann16json_abi_v3_11_210basic_jsonINS_3mapES0_NS_12basic_stringIcNS_11char_traitsIcEENS_9allocatorIcEEEEbxydS8_NS2_14adl_serializerENS0_IhNS8_IhEEEEEENS8_ISE_EEE11__vallocateB7v160006Em, symObjAddr: 0x19BBC, symBinAddr: 0x100021CB0, symSize: 0xAC }
  - { offsetInCU: 0x6E624, offset: 0x6E624, size: 0x8, addend: 0x0, symName: __ZNSt3__16vectorIN8nlohmann16json_abi_v3_11_210basic_jsonINS_3mapES0_NS_12basic_stringIcNS_11char_traitsIcEENS_9allocatorIcEEEEbxydS8_NS2_14adl_serializerENS0_IhNS8_IhEEEEEENS8_ISE_EEE18__construct_at_endIPSE_Li0EEEvT_SJ_m, symObjAddr: 0x19C68, symBinAddr: 0x100021D5C, symSize: 0x8C }
  - { offsetInCU: 0x6E697, offset: 0x6E697, size: 0x8, addend: 0x0, symName: __ZNSt3__128__exception_guard_exceptionsINS_6vectorIN8nlohmann16json_abi_v3_11_210basic_jsonINS_3mapES1_NS_12basic_stringIcNS_11char_traitsIcEENS_9allocatorIcEEEEbxydS9_NS3_14adl_serializerENS1_IhNS9_IhEEEEEENS9_ISF_EEE16__destroy_vectorEE10__completeB7v160006Ev, symObjAddr: 0x19CF4, symBinAddr: 0x100021DE8, symSize: 0x1C }
  - { offsetInCU: 0x6E6BD, offset: 0x6E6BD, size: 0x8, addend: 0x0, symName: __ZNSt3__128__exception_guard_exceptionsINS_6vectorIN8nlohmann16json_abi_v3_11_210basic_jsonINS_3mapES1_NS_12basic_stringIcNS_11char_traitsIcEENS_9allocatorIcEEEEbxydS9_NS3_14adl_serializerENS1_IhNS9_IhEEEEEENS9_ISF_EEE16__destroy_vectorEED1B7v160006Ev, symObjAddr: 0x19D10, symBinAddr: 0x100021E04, symSize: 0x2C }
  - { offsetInCU: 0x6E6E7, offset: 0x6E6E7, size: 0x8, addend: 0x0, symName: __ZNSt3__117__compressed_pairIPN8nlohmann16json_abi_v3_11_210basic_jsonINS_3mapENS_6vectorENS_12basic_stringIcNS_11char_traitsIcEENS_9allocatorIcEEEEbxydS9_NS2_14adl_serializerENS5_IhNS9_IhEEEEEENS9_ISF_EEEC2B7v160006IDnSH_EEOT_OT0_, symObjAddr: 0x19D3C, symBinAddr: 0x100021E30, symSize: 0x44 }
  - { offsetInCU: 0x6E73F, offset: 0x6E73F, size: 0x8, addend: 0x0, symName: __ZNSt3__122__compressed_pair_elemINS_9allocatorIN8nlohmann16json_abi_v3_11_210basic_jsonINS_3mapENS_6vectorENS_12basic_stringIcNS_11char_traitsIcEENS1_IcEEEEbxydS1_NS3_14adl_serializerENS6_IhNS1_IhEEEEEEEELi1ELb1EEC2B7v160006ISG_vEEOT_, symObjAddr: 0x19D80, symBinAddr: 0x100021E74, symSize: 0x18 }
  - { offsetInCU: 0x6E781, offset: 0x6E781, size: 0x8, addend: 0x0, symName: __ZNSt3__128__exception_guard_exceptionsINS_6vectorIN8nlohmann16json_abi_v3_11_210basic_jsonINS_3mapES1_NS_12basic_stringIcNS_11char_traitsIcEENS_9allocatorIcEEEEbxydS9_NS3_14adl_serializerENS1_IhNS9_IhEEEEEENS9_ISF_EEE16__destroy_vectorEEC1B7v160006ESI_, symObjAddr: 0x19D98, symBinAddr: 0x100021E8C, symSize: 0x34 }
  - { offsetInCU: 0x6E7B9, offset: 0x6E7B9, size: 0x8, addend: 0x0, symName: __ZNSt3__128__exception_guard_exceptionsINS_6vectorIN8nlohmann16json_abi_v3_11_210basic_jsonINS_3mapES1_NS_12basic_stringIcNS_11char_traitsIcEENS_9allocatorIcEEEEbxydS9_NS3_14adl_serializerENS1_IhNS9_IhEEEEEENS9_ISF_EEE16__destroy_vectorEEC2B7v160006ESI_, symObjAddr: 0x19DCC, symBinAddr: 0x100021EC0, symSize: 0x24 }
  - { offsetInCU: 0x6E7F1, offset: 0x6E7F1, size: 0x8, addend: 0x0, symName: __ZNSt3__16vectorIN8nlohmann16json_abi_v3_11_210basic_jsonINS_3mapES0_NS_12basic_stringIcNS_11char_traitsIcEENS_9allocatorIcEEEEbxydS8_NS2_14adl_serializerENS0_IhNS8_IhEEEEEENS8_ISE_EEE16__destroy_vectorC2ERSG_, symObjAddr: 0x19DF0, symBinAddr: 0x100021EE4, symSize: 0x20 }
  - { offsetInCU: 0x6E82A, offset: 0x6E82A, size: 0x8, addend: 0x0, symName: __ZNSt3__129_AllocatorDestroyRangeReverseINS_9allocatorIN8nlohmann16json_abi_v3_11_210basic_jsonINS_3mapENS_6vectorENS_12basic_stringIcNS_11char_traitsIcEENS1_IcEEEEbxydS1_NS3_14adl_serializerENS6_IhNS1_IhEEEEEEEEPSF_EC1B7v160006ERSG_RSH_SK_, symObjAddr: 0x19F50, symBinAddr: 0x100022044, symSize: 0x44 }
  - { offsetInCU: 0x6E881, offset: 0x6E881, size: 0x8, addend: 0x0, symName: __ZNSt3__116allocator_traitsINS_9allocatorIN8nlohmann16json_abi_v3_11_210basic_jsonINS_3mapENS_6vectorENS_12basic_stringIcNS_11char_traitsIcEENS1_IcEEEEbxydS1_NS3_14adl_serializerENS6_IhNS1_IhEEEEEEEEE9constructB7v160006ISF_JRSF_EvEEvRSG_PT_DpOT0_, symObjAddr: 0x19F94, symBinAddr: 0x100022088, symSize: 0x34 }
  - { offsetInCU: 0x6E8D8, offset: 0x6E8D8, size: 0x8, addend: 0x0, symName: __ZNSt3__128__exception_guard_exceptionsINS_29_AllocatorDestroyRangeReverseINS_9allocatorIN8nlohmann16json_abi_v3_11_210basic_jsonINS_3mapENS_6vectorENS_12basic_stringIcNS_11char_traitsIcEENS2_IcEEEEbxydS2_NS4_14adl_serializerENS7_IhNS2_IhEEEEEEEEPSG_EEE10__completeB7v160006Ev, symObjAddr: 0x19FC8, symBinAddr: 0x1000220BC, symSize: 0x1C }
  - { offsetInCU: 0x6E8FE, offset: 0x6E8FE, size: 0x8, addend: 0x0, symName: __ZNSt3__128__exception_guard_exceptionsINS_29_AllocatorDestroyRangeReverseINS_9allocatorIN8nlohmann16json_abi_v3_11_210basic_jsonINS_3mapENS_6vectorENS_12basic_stringIcNS_11char_traitsIcEENS2_IcEEEEbxydS2_NS4_14adl_serializerENS7_IhNS2_IhEEEEEEEEPSG_EEED1B7v160006Ev, symObjAddr: 0x19FE4, symBinAddr: 0x1000220D8, symSize: 0x2C }
  - { offsetInCU: 0x6E928, offset: 0x6E928, size: 0x8, addend: 0x0, symName: __ZNSt3__128__exception_guard_exceptionsINS_29_AllocatorDestroyRangeReverseINS_9allocatorIN8nlohmann16json_abi_v3_11_210basic_jsonINS_3mapENS_6vectorENS_12basic_stringIcNS_11char_traitsIcEENS2_IcEEEEbxydS2_NS4_14adl_serializerENS7_IhNS2_IhEEEEEEEEPSG_EEEC1B7v160006ESJ_, symObjAddr: 0x1A010, symBinAddr: 0x100022104, symSize: 0x34 }
  - { offsetInCU: 0x6E961, offset: 0x6E961, size: 0x8, addend: 0x0, symName: __ZNSt3__128__exception_guard_exceptionsINS_29_AllocatorDestroyRangeReverseINS_9allocatorIN8nlohmann16json_abi_v3_11_210basic_jsonINS_3mapENS_6vectorENS_12basic_stringIcNS_11char_traitsIcEENS2_IcEEEEbxydS2_NS4_14adl_serializerENS7_IhNS2_IhEEEEEEEEPSG_EEEC2B7v160006ESJ_, symObjAddr: 0x1A044, symBinAddr: 0x100022138, symSize: 0x30 }
  - { offsetInCU: 0x6E99A, offset: 0x6E99A, size: 0x8, addend: 0x0, symName: __ZNSt3__129_AllocatorDestroyRangeReverseINS_9allocatorIN8nlohmann16json_abi_v3_11_210basic_jsonINS_3mapENS_6vectorENS_12basic_stringIcNS_11char_traitsIcEENS1_IcEEEEbxydS1_NS3_14adl_serializerENS6_IhNS1_IhEEEEEEEEPSF_EC2B7v160006ERSG_RSH_SK_, symObjAddr: 0x1A074, symBinAddr: 0x100022168, symSize: 0x38 }
  - { offsetInCU: 0x6E9F1, offset: 0x6E9F1, size: 0x8, addend: 0x0, symName: __ZNSt3__19allocatorIN8nlohmann16json_abi_v3_11_210basic_jsonINS_3mapENS_6vectorENS_12basic_stringIcNS_11char_traitsIcEENS0_IcEEEEbxydS0_NS2_14adl_serializerENS5_IhNS0_IhEEEEEEE9constructB7v160006ISE_JRSE_EEEvPT_DpOT0_, symObjAddr: 0x1A0AC, symBinAddr: 0x1000221A0, symSize: 0x30 }
  - { offsetInCU: 0x6EA47, offset: 0x6EA47, size: 0x8, addend: 0x0, symName: __ZNSt3__128__exception_guard_exceptionsINS_29_AllocatorDestroyRangeReverseINS_9allocatorIN8nlohmann16json_abi_v3_11_210basic_jsonINS_3mapENS_6vectorENS_12basic_stringIcNS_11char_traitsIcEENS2_IcEEEEbxydS2_NS4_14adl_serializerENS7_IhNS2_IhEEEEEEEEPSG_EEED2B7v160006Ev, symObjAddr: 0x1A0DC, symBinAddr: 0x1000221D0, symSize: 0x50 }
  - { offsetInCU: 0x6EA71, offset: 0x6EA71, size: 0x8, addend: 0x0, symName: __ZNKSt3__129_AllocatorDestroyRangeReverseINS_9allocatorIN8nlohmann16json_abi_v3_11_210basic_jsonINS_3mapENS_6vectorENS_12basic_stringIcNS_11char_traitsIcEENS1_IcEEEEbxydS1_NS3_14adl_serializerENS6_IhNS1_IhEEEEEEEEPSF_EclB7v160006Ev, symObjAddr: 0x1A12C, symBinAddr: 0x100022220, symSize: 0x68 }
  - { offsetInCU: 0x6EA97, offset: 0x6EA97, size: 0x8, addend: 0x0, symName: __ZNSt3__128__exception_guard_exceptionsINS_6vectorIN8nlohmann16json_abi_v3_11_210basic_jsonINS_3mapES1_NS_12basic_stringIcNS_11char_traitsIcEENS_9allocatorIcEEEEbxydS9_NS3_14adl_serializerENS1_IhNS9_IhEEEEEENS9_ISF_EEE16__destroy_vectorEED2B7v160006Ev, symObjAddr: 0x1A204, symBinAddr: 0x1000222F8, symSize: 0x50 }
  - { offsetInCU: 0x6EAC1, offset: 0x6EAC1, size: 0x8, addend: 0x0, symName: __ZNSt3__16vectorIN8nlohmann16json_abi_v3_11_210basic_jsonINS_3mapES0_NS_12basic_stringIcNS_11char_traitsIcEENS_9allocatorIcEEEEbxydS8_NS2_14adl_serializerENS0_IhNS8_IhEEEEEENS8_ISE_EEE16__destroy_vectorclB7v160006Ev, symObjAddr: 0x1A254, symBinAddr: 0x100022348, symSize: 0x9C }
  - { offsetInCU: 0x6EAE7, offset: 0x6EAE7, size: 0x8, addend: 0x0, symName: __ZNSt3__16vectorIN8nlohmann16json_abi_v3_11_210basic_jsonINS_3mapES0_NS_12basic_stringIcNS_11char_traitsIcEENS_9allocatorIcEEEEbxydS8_NS2_14adl_serializerENS0_IhNS8_IhEEEEEENS8_ISE_EEE7__clearB7v160006Ev, symObjAddr: 0x1A300, symBinAddr: 0x1000223F4, symSize: 0x28 }
  - { offsetInCU: 0x6EB0D, offset: 0x6EB0D, size: 0x8, addend: 0x0, symName: __ZNSt3__16vectorIN8nlohmann16json_abi_v3_11_210basic_jsonINS_3mapES0_NS_12basic_stringIcNS_11char_traitsIcEENS_9allocatorIcEEEEbxydS8_NS2_14adl_serializerENS0_IhNS8_IhEEEEEENS8_ISE_EEE22__base_destruct_at_endB7v160006EPSE_, symObjAddr: 0x1A328, symBinAddr: 0x10002241C, symSize: 0x8C }
  - { offsetInCU: 0x6EB51, offset: 0x6EB51, size: 0x8, addend: 0x0, symName: __ZNKSt3__117__compressed_pairIPNS_6vectorIN8nlohmann16json_abi_v3_11_210basic_jsonINS_3mapES1_NS_12basic_stringIcNS_11char_traitsIcEENS_9allocatorIcEEEEbxydS9_NS3_14adl_serializerENS1_IhNS9_IhEEEEEENS9_ISF_EEEEZNSF_6createISH_JRKSH_EEEPT_DpOT0_EUlSI_E_E5firstB7v160006Ev, symObjAddr: 0x1A3B4, symBinAddr: 0x1000224A8, symSize: 0x24 }
  - { offsetInCU: 0x6EB77, offset: 0x6EB77, size: 0x8, addend: 0x0, symName: __ZNKSt3__122__compressed_pair_elemIPNS_6vectorIN8nlohmann16json_abi_v3_11_210basic_jsonINS_3mapES1_NS_12basic_stringIcNS_11char_traitsIcEENS_9allocatorIcEEEEbxydS9_NS3_14adl_serializerENS1_IhNS9_IhEEEEEENS9_ISF_EEEELi0ELb0EE5__getB7v160006Ev, symObjAddr: 0x1A3D8, symBinAddr: 0x1000224CC, symSize: 0x14 }
  - { offsetInCU: 0x6EB9D, offset: 0x6EB9D, size: 0x8, addend: 0x0, symName: __ZNKSt3__110unique_ptrINS_6vectorIN8nlohmann16json_abi_v3_11_210basic_jsonINS_3mapES1_NS_12basic_stringIcNS_11char_traitsIcEENS_9allocatorIcEEEEbxydS9_NS3_14adl_serializerENS1_IhNS9_IhEEEEEENS9_ISF_EEEEZNSF_6createISH_JRKSH_EEEPT_DpOT0_EUlPSH_E_EcvbB7v160006Ev, symObjAddr: 0x1A3EC, symBinAddr: 0x1000224E0, symSize: 0x34 }
  - { offsetInCU: 0x6EBC3, offset: 0x6EBC3, size: 0x8, addend: 0x0, symName: __ZNSt3__117__compressed_pairIPNS_6vectorIN8nlohmann16json_abi_v3_11_210basic_jsonINS_3mapES1_NS_12basic_stringIcNS_11char_traitsIcEENS_9allocatorIcEEEEbxydS9_NS3_14adl_serializerENS1_IhNS9_IhEEEEEENS9_ISF_EEEEZNSF_6createISH_JRKSH_EEEPT_DpOT0_EUlSI_E_E5firstB7v160006Ev, symObjAddr: 0x1A420, symBinAddr: 0x100022514, symSize: 0x24 }
  - { offsetInCU: 0x6EBE9, offset: 0x6EBE9, size: 0x8, addend: 0x0, symName: __ZNSt3__122__compressed_pair_elemIPNS_6vectorIN8nlohmann16json_abi_v3_11_210basic_jsonINS_3mapES1_NS_12basic_stringIcNS_11char_traitsIcEENS_9allocatorIcEEEEbxydS9_NS3_14adl_serializerENS1_IhNS9_IhEEEEEENS9_ISF_EEEELi0ELb0EE5__getB7v160006Ev, symObjAddr: 0x1A444, symBinAddr: 0x100022538, symSize: 0x14 }
  - { offsetInCU: 0x6EC0F, offset: 0x6EC0F, size: 0x8, addend: 0x0, symName: __ZNSt3__110unique_ptrINS_6vectorIN8nlohmann16json_abi_v3_11_210basic_jsonINS_3mapES1_NS_12basic_stringIcNS_11char_traitsIcEENS_9allocatorIcEEEEbxydS9_NS3_14adl_serializerENS1_IhNS9_IhEEEEEENS9_ISF_EEEEZNSF_6createISH_JRKSH_EEEPT_DpOT0_EUlPSH_E_ED2B7v160006Ev, symObjAddr: 0x1A458, symBinAddr: 0x10002254C, symSize: 0x30 }
  - { offsetInCU: 0x6EC39, offset: 0x6EC39, size: 0x8, addend: 0x0, symName: __ZNSt3__110unique_ptrINS_6vectorIN8nlohmann16json_abi_v3_11_210basic_jsonINS_3mapES1_NS_12basic_stringIcNS_11char_traitsIcEENS_9allocatorIcEEEEbxydS9_NS3_14adl_serializerENS1_IhNS9_IhEEEEEENS9_ISF_EEEEZNSF_6createISH_JRKSH_EEEPT_DpOT0_EUlPSH_E_E5resetB7v160006ESQ_, symObjAddr: 0x1A488, symBinAddr: 0x10002257C, symSize: 0x80 }
  - { offsetInCU: 0x6EC7D, offset: 0x6EC7D, size: 0x8, addend: 0x0, symName: __ZNSt3__117__compressed_pairIPNS_6vectorIN8nlohmann16json_abi_v3_11_210basic_jsonINS_3mapES1_NS_12basic_stringIcNS_11char_traitsIcEENS_9allocatorIcEEEEbxydS9_NS3_14adl_serializerENS1_IhNS9_IhEEEEEENS9_ISF_EEEEZNSF_6createISH_JRKSH_EEEPT_DpOT0_EUlSI_E_E6secondB7v160006Ev, symObjAddr: 0x1A508, symBinAddr: 0x1000225FC, symSize: 0x28 }
  - { offsetInCU: 0x6ECA9, offset: 0x6ECA9, size: 0x8, addend: 0x0, symName: __ZZN8nlohmann16json_abi_v3_11_210basic_jsonINSt3__13mapENS2_6vectorENS2_12basic_stringIcNS2_11char_traitsIcEENS2_9allocatorIcEEEEbxydS8_NS0_14adl_serializerENS4_IhNS8_IhEEEEE6createINS4_ISE_NS8_ISE_EEEEJRKSH_EEEPT_DpOT0_ENKUlPSH_E_clESP_, symObjAddr: 0x1A530, symBinAddr: 0x100022624, symSize: 0x34 }
  - { offsetInCU: 0x6ECE2, offset: 0x6ECE2, size: 0x8, addend: 0x0, symName: __ZNSt3__122__compressed_pair_elemIZN8nlohmann16json_abi_v3_11_210basic_jsonINS_3mapENS_6vectorENS_12basic_stringIcNS_11char_traitsIcEENS_9allocatorIcEEEEbxydS9_NS2_14adl_serializerENS5_IhNS9_IhEEEEE6createINS5_ISF_NS9_ISF_EEEEJRKSI_EEEPT_DpOT0_EUlPSI_E_Li1ELb0EE5__getB7v160006Ev, symObjAddr: 0x1A564, symBinAddr: 0x100022658, symSize: 0x14 }
  - { offsetInCU: 0x6ED08, offset: 0x6ED08, size: 0x8, addend: 0x0, symName: __ZNSt3__116allocator_traitsINS_9allocatorINS_6vectorIN8nlohmann16json_abi_v3_11_210basic_jsonINS_3mapES2_NS_12basic_stringIcNS_11char_traitsIcEENS1_IcEEEEbxydS1_NS4_14adl_serializerENS2_IhNS1_IhEEEEEENS1_ISF_EEEEEEE10deallocateB7v160006ERSI_PSH_m, symObjAddr: 0x1A578, symBinAddr: 0x10002266C, symSize: 0x34 }
  - { offsetInCU: 0x6ED4A, offset: 0x6ED4A, size: 0x8, addend: 0x0, symName: __ZNSt3__19allocatorINS_6vectorIN8nlohmann16json_abi_v3_11_210basic_jsonINS_3mapES1_NS_12basic_stringIcNS_11char_traitsIcEENS0_IcEEEEbxydS0_NS3_14adl_serializerENS1_IhNS0_IhEEEEEENS0_ISE_EEEEE10deallocateB7v160006EPSG_m, symObjAddr: 0x1A5AC, symBinAddr: 0x1000226A0, symSize: 0x44 }
  - { offsetInCU: 0x6ED8C, offset: 0x6ED8C, size: 0x8, addend: 0x0, symName: __ZN8nlohmann16json_abi_v3_11_210basic_jsonINSt3__13mapENS2_6vectorENS2_12basic_stringIcNS2_11char_traitsIcEENS2_9allocatorIcEEEEbxydS8_NS0_14adl_serializerENS4_IhNS8_IhEEEEE10json_valueC2ERKSA_, symObjAddr: 0x1A5F0, symBinAddr: 0x1000226E4, symSize: 0x3C }
  - { offsetInCU: 0x6EDC5, offset: 0x6EDC5, size: 0x8, addend: 0x0, symName: __ZN8nlohmann16json_abi_v3_11_210basic_jsonINSt3__13mapENS2_6vectorENS2_12basic_stringIcNS2_11char_traitsIcEENS2_9allocatorIcEEEEbxydS8_NS0_14adl_serializerENS4_IhNS8_IhEEEEE6createISA_JRKSA_EEEPT_DpOT0_, symObjAddr: 0x1A62C, symBinAddr: 0x100022720, symSize: 0xF4 }
  - { offsetInCU: 0x6EE53, offset: 0x6EE53, size: 0x8, addend: 0x0, symName: __ZNSt3__19allocatorINS_12basic_stringIcNS_11char_traitsIcEENS0_IcEEEEEC1B7v160006Ev, symObjAddr: 0x1A720, symBinAddr: 0x100022814, symSize: 0x2C }
  - { offsetInCU: 0x6EE7D, offset: 0x6EE7D, size: 0x8, addend: 0x0, symName: __ZNSt3__116allocator_traitsINS_9allocatorINS_12basic_stringIcNS_11char_traitsIcEENS1_IcEEEEEEE8allocateB7v160006ERS7_m, symObjAddr: 0x1A74C, symBinAddr: 0x100022840, symSize: 0x2C }
  - { offsetInCU: 0x6EF23, offset: 0x6EF23, size: 0x8, addend: 0x0, symName: __ZNSt3__110unique_ptrINS_12basic_stringIcNS_11char_traitsIcEENS_9allocatorIcEEEEZN8nlohmann16json_abi_v3_11_210basic_jsonINS_3mapENS_6vectorES6_bxydS4_NS8_14adl_serializerENSB_IhNS4_IhEEEEE6createIS6_JRKS6_EEEPT_DpOT0_EUlPS6_E_EC1B7v160006ILb1EvEESO_NS_16__dependent_typeINS_27__unique_ptr_deleter_sfinaeISP_EEXT_EE15__lval_ref_typeE, symObjAddr: 0x1A778, symBinAddr: 0x10002286C, symSize: 0x3C }
  - { offsetInCU: 0x6EF74, offset: 0x6EF74, size: 0x8, addend: 0x0, symName: __ZNSt3__116allocator_traitsINS_9allocatorINS_12basic_stringIcNS_11char_traitsIcEENS1_IcEEEEEEE9constructB7v160006IS6_JRKS6_EvEEvRS7_PT_DpOT0_, symObjAddr: 0x1A7B4, symBinAddr: 0x1000228A8, symSize: 0x34 }
  - { offsetInCU: 0x6EFCB, offset: 0x6EFCB, size: 0x8, addend: 0x0, symName: __ZNKSt3__110unique_ptrINS_12basic_stringIcNS_11char_traitsIcEENS_9allocatorIcEEEEZN8nlohmann16json_abi_v3_11_210basic_jsonINS_3mapENS_6vectorES6_bxydS4_NS8_14adl_serializerENSB_IhNS4_IhEEEEE6createIS6_JRKS6_EEEPT_DpOT0_EUlPS6_E_E3getB7v160006Ev, symObjAddr: 0x1A7E8, symBinAddr: 0x1000228DC, symSize: 0x28 }
  - { offsetInCU: 0x6EFF1, offset: 0x6EFF1, size: 0x8, addend: 0x0, symName: __ZNSt3__110unique_ptrINS_12basic_stringIcNS_11char_traitsIcEENS_9allocatorIcEEEEZN8nlohmann16json_abi_v3_11_210basic_jsonINS_3mapENS_6vectorES6_bxydS4_NS8_14adl_serializerENSB_IhNS4_IhEEEEE6createIS6_JRKS6_EEEPT_DpOT0_EUlPS6_E_E7releaseB7v160006Ev, symObjAddr: 0x1A83C, symBinAddr: 0x100022930, symSize: 0x44 }
  - { offsetInCU: 0x6F026, offset: 0x6F026, size: 0x8, addend: 0x0, symName: __ZNSt3__110unique_ptrINS_12basic_stringIcNS_11char_traitsIcEENS_9allocatorIcEEEEZN8nlohmann16json_abi_v3_11_210basic_jsonINS_3mapENS_6vectorES6_bxydS4_NS8_14adl_serializerENSB_IhNS4_IhEEEEE6createIS6_JRKS6_EEEPT_DpOT0_EUlPS6_E_ED1B7v160006Ev, symObjAddr: 0x1A880, symBinAddr: 0x100022974, symSize: 0x2C }
  - { offsetInCU: 0x6F050, offset: 0x6F050, size: 0x8, addend: 0x0, symName: __ZNSt3__19allocatorINS_12basic_stringIcNS_11char_traitsIcEENS0_IcEEEEEC2B7v160006Ev, symObjAddr: 0x1A8AC, symBinAddr: 0x1000229A0, symSize: 0x2C }
  - { offsetInCU: 0x6F07A, offset: 0x6F07A, size: 0x8, addend: 0x0, symName: __ZNSt3__116__non_trivial_ifILb1ENS_9allocatorINS_12basic_stringIcNS_11char_traitsIcEENS1_IcEEEEEEEC2B7v160006Ev, symObjAddr: 0x1A8D8, symBinAddr: 0x1000229CC, symSize: 0x14 }
  - { offsetInCU: 0x6F0A4, offset: 0x6F0A4, size: 0x8, addend: 0x0, symName: __ZNSt3__19allocatorINS_12basic_stringIcNS_11char_traitsIcEENS0_IcEEEEE8allocateB7v160006Em, symObjAddr: 0x1A8EC, symBinAddr: 0x1000229E0, symSize: 0x5C }
  - { offsetInCU: 0x6F0E3, offset: 0x6F0E3, size: 0x8, addend: 0x0, symName: __ZNSt3__116allocator_traitsINS_9allocatorINS_12basic_stringIcNS_11char_traitsIcEENS1_IcEEEEEEE8max_sizeB7v160006IS7_vEEmRKS7_, symObjAddr: 0x1A948, symBinAddr: 0x100022A3C, symSize: 0x24 }
  - { offsetInCU: 0x6F111, offset: 0x6F111, size: 0x8, addend: 0x0, symName: __ZNKSt3__19allocatorINS_12basic_stringIcNS_11char_traitsIcEENS0_IcEEEEE8max_sizeB7v160006Ev, symObjAddr: 0x1A96C, symBinAddr: 0x100022A60, symSize: 0x18 }
  - { offsetInCU: 0x6F137, offset: 0x6F137, size: 0x8, addend: 0x0, symName: __ZNSt3__110unique_ptrINS_12basic_stringIcNS_11char_traitsIcEENS_9allocatorIcEEEEZN8nlohmann16json_abi_v3_11_210basic_jsonINS_3mapENS_6vectorES6_bxydS4_NS8_14adl_serializerENSB_IhNS4_IhEEEEE6createIS6_JRKS6_EEEPT_DpOT0_EUlPS6_E_EC2B7v160006ILb1EvEESO_NS_16__dependent_typeINS_27__unique_ptr_deleter_sfinaeISP_EEXT_EE15__lval_ref_typeE, symObjAddr: 0x1A984, symBinAddr: 0x100022A78, symSize: 0x48 }
  - { offsetInCU: 0x6F188, offset: 0x6F188, size: 0x8, addend: 0x0, symName: __ZNSt3__117__compressed_pairIPNS_12basic_stringIcNS_11char_traitsIcEENS_9allocatorIcEEEEZN8nlohmann16json_abi_v3_11_210basic_jsonINS_3mapENS_6vectorES6_bxydS4_NS9_14adl_serializerENSC_IhNS4_IhEEEEE6createIS6_JRKS6_EEEPT_DpOT0_EUlS7_E_EC1B7v160006IRS7_RKSP_EEOSK_OT0_, symObjAddr: 0x1A9CC, symBinAddr: 0x100022AC0, symSize: 0x3C }
  - { offsetInCU: 0x6F1E0, offset: 0x6F1E0, size: 0x8, addend: 0x0, symName: __ZNSt3__117__compressed_pairIPNS_12basic_stringIcNS_11char_traitsIcEENS_9allocatorIcEEEEZN8nlohmann16json_abi_v3_11_210basic_jsonINS_3mapENS_6vectorES6_bxydS4_NS9_14adl_serializerENSC_IhNS4_IhEEEEE6createIS6_JRKS6_EEEPT_DpOT0_EUlS7_E_EC2B7v160006IRS7_RKSP_EEOSK_OT0_, symObjAddr: 0x1AA08, symBinAddr: 0x100022AFC, symSize: 0x48 }
  - { offsetInCU: 0x6F238, offset: 0x6F238, size: 0x8, addend: 0x0, symName: __ZNSt3__122__compressed_pair_elemIPNS_12basic_stringIcNS_11char_traitsIcEENS_9allocatorIcEEEELi0ELb0EEC2B7v160006IRS7_vEEOT_, symObjAddr: 0x1AA50, symBinAddr: 0x100022B44, symSize: 0x24 }
  - { offsetInCU: 0x6F27A, offset: 0x6F27A, size: 0x8, addend: 0x0, symName: __ZNSt3__122__compressed_pair_elemIZN8nlohmann16json_abi_v3_11_210basic_jsonINS_3mapENS_6vectorENS_12basic_stringIcNS_11char_traitsIcEENS_9allocatorIcEEEEbxydS9_NS2_14adl_serializerENS5_IhNS9_IhEEEEE6createISB_JRKSB_EEEPT_DpOT0_EUlPSB_E_Li1ELb0EEC2B7v160006IRKSP_vEEOSJ_, symObjAddr: 0x1AA74, symBinAddr: 0x100022B68, symSize: 0x24 }
  - { offsetInCU: 0x6F2BC, offset: 0x6F2BC, size: 0x8, addend: 0x0, symName: __ZNSt3__19allocatorINS_12basic_stringIcNS_11char_traitsIcEENS0_IcEEEEE9constructB7v160006IS5_JRKS5_EEEvPT_DpOT0_, symObjAddr: 0x1AA98, symBinAddr: 0x100022B8C, symSize: 0x30 }
  - { offsetInCU: 0x6F312, offset: 0x6F312, size: 0x8, addend: 0x0, symName: __ZNKSt3__117__compressed_pairIPNS_12basic_stringIcNS_11char_traitsIcEENS_9allocatorIcEEEEZN8nlohmann16json_abi_v3_11_210basic_jsonINS_3mapENS_6vectorES6_bxydS4_NS9_14adl_serializerENSC_IhNS4_IhEEEEE6createIS6_JRKS6_EEEPT_DpOT0_EUlS7_E_E5firstB7v160006Ev, symObjAddr: 0x1AAC8, symBinAddr: 0x100022BBC, symSize: 0x24 }
  - { offsetInCU: 0x6F338, offset: 0x6F338, size: 0x8, addend: 0x0, symName: __ZNKSt3__122__compressed_pair_elemIPNS_12basic_stringIcNS_11char_traitsIcEENS_9allocatorIcEEEELi0ELb0EE5__getB7v160006Ev, symObjAddr: 0x1AAEC, symBinAddr: 0x100022BE0, symSize: 0x14 }
  - { offsetInCU: 0x6F35E, offset: 0x6F35E, size: 0x8, addend: 0x0, symName: __ZNKSt3__110unique_ptrINS_12basic_stringIcNS_11char_traitsIcEENS_9allocatorIcEEEEZN8nlohmann16json_abi_v3_11_210basic_jsonINS_3mapENS_6vectorES6_bxydS4_NS8_14adl_serializerENSB_IhNS4_IhEEEEE6createIS6_JRKS6_EEEPT_DpOT0_EUlPS6_E_EcvbB7v160006Ev, symObjAddr: 0x1AB00, symBinAddr: 0x100022BF4, symSize: 0x34 }
  - { offsetInCU: 0x6F384, offset: 0x6F384, size: 0x8, addend: 0x0, symName: __ZNSt3__117__compressed_pairIPNS_12basic_stringIcNS_11char_traitsIcEENS_9allocatorIcEEEEZN8nlohmann16json_abi_v3_11_210basic_jsonINS_3mapENS_6vectorES6_bxydS4_NS9_14adl_serializerENSC_IhNS4_IhEEEEE6createIS6_JRKS6_EEEPT_DpOT0_EUlS7_E_E5firstB7v160006Ev, symObjAddr: 0x1AB34, symBinAddr: 0x100022C28, symSize: 0x24 }
  - { offsetInCU: 0x6F3AA, offset: 0x6F3AA, size: 0x8, addend: 0x0, symName: __ZNSt3__122__compressed_pair_elemIPNS_12basic_stringIcNS_11char_traitsIcEENS_9allocatorIcEEEELi0ELb0EE5__getB7v160006Ev, symObjAddr: 0x1AB58, symBinAddr: 0x100022C4C, symSize: 0x14 }
  - { offsetInCU: 0x6F3D0, offset: 0x6F3D0, size: 0x8, addend: 0x0, symName: __ZNSt3__110unique_ptrINS_12basic_stringIcNS_11char_traitsIcEENS_9allocatorIcEEEEZN8nlohmann16json_abi_v3_11_210basic_jsonINS_3mapENS_6vectorES6_bxydS4_NS8_14adl_serializerENSB_IhNS4_IhEEEEE6createIS6_JRKS6_EEEPT_DpOT0_EUlPS6_E_ED2B7v160006Ev, symObjAddr: 0x1AB6C, symBinAddr: 0x100022C60, symSize: 0x30 }
  - { offsetInCU: 0x6F3FA, offset: 0x6F3FA, size: 0x8, addend: 0x0, symName: __ZNSt3__110unique_ptrINS_12basic_stringIcNS_11char_traitsIcEENS_9allocatorIcEEEEZN8nlohmann16json_abi_v3_11_210basic_jsonINS_3mapENS_6vectorES6_bxydS4_NS8_14adl_serializerENSB_IhNS4_IhEEEEE6createIS6_JRKS6_EEEPT_DpOT0_EUlPS6_E_E5resetB7v160006ESO_, symObjAddr: 0x1AB9C, symBinAddr: 0x100022C90, symSize: 0x80 }
  - { offsetInCU: 0x6F43E, offset: 0x6F43E, size: 0x8, addend: 0x0, symName: __ZNSt3__117__compressed_pairIPNS_12basic_stringIcNS_11char_traitsIcEENS_9allocatorIcEEEEZN8nlohmann16json_abi_v3_11_210basic_jsonINS_3mapENS_6vectorES6_bxydS4_NS9_14adl_serializerENSC_IhNS4_IhEEEEE6createIS6_JRKS6_EEEPT_DpOT0_EUlS7_E_E6secondB7v160006Ev, symObjAddr: 0x1AC1C, symBinAddr: 0x100022D10, symSize: 0x28 }
  - { offsetInCU: 0x6F46A, offset: 0x6F46A, size: 0x8, addend: 0x0, symName: __ZZN8nlohmann16json_abi_v3_11_210basic_jsonINSt3__13mapENS2_6vectorENS2_12basic_stringIcNS2_11char_traitsIcEENS2_9allocatorIcEEEEbxydS8_NS0_14adl_serializerENS4_IhNS8_IhEEEEE6createISA_JRKSA_EEEPT_DpOT0_ENKUlPSA_E_clESN_, symObjAddr: 0x1AC44, symBinAddr: 0x100022D38, symSize: 0x34 }
  - { offsetInCU: 0x6F4A3, offset: 0x6F4A3, size: 0x8, addend: 0x0, symName: __ZNSt3__122__compressed_pair_elemIZN8nlohmann16json_abi_v3_11_210basic_jsonINS_3mapENS_6vectorENS_12basic_stringIcNS_11char_traitsIcEENS_9allocatorIcEEEEbxydS9_NS2_14adl_serializerENS5_IhNS9_IhEEEEE6createISB_JRKSB_EEEPT_DpOT0_EUlPSB_E_Li1ELb0EE5__getB7v160006Ev, symObjAddr: 0x1AC78, symBinAddr: 0x100022D6C, symSize: 0x14 }
  - { offsetInCU: 0x6F4C9, offset: 0x6F4C9, size: 0x8, addend: 0x0, symName: __ZNSt3__116allocator_traitsINS_9allocatorINS_12basic_stringIcNS_11char_traitsIcEENS1_IcEEEEEEE10deallocateB7v160006ERS7_PS6_m, symObjAddr: 0x1AC8C, symBinAddr: 0x100022D80, symSize: 0x34 }
  - { offsetInCU: 0x6F50B, offset: 0x6F50B, size: 0x8, addend: 0x0, symName: __ZNSt3__19allocatorINS_12basic_stringIcNS_11char_traitsIcEENS0_IcEEEEE10deallocateB7v160006EPS5_m, symObjAddr: 0x1ACC0, symBinAddr: 0x100022DB4, symSize: 0x44 }
  - { offsetInCU: 0x6F54D, offset: 0x6F54D, size: 0x8, addend: 0x0, symName: __ZN8nlohmann16json_abi_v3_11_210basic_jsonINSt3__13mapENS2_6vectorENS2_12basic_stringIcNS2_11char_traitsIcEENS2_9allocatorIcEEEEbxydS8_NS0_14adl_serializerENS4_IhNS8_IhEEEEE10json_valueC2Eb, symObjAddr: 0x1AD04, symBinAddr: 0x100022DF8, symSize: 0x2C }
  - { offsetInCU: 0x6F586, offset: 0x6F586, size: 0x8, addend: 0x0, symName: __ZN8nlohmann16json_abi_v3_11_210basic_jsonINSt3__13mapENS2_6vectorENS2_12basic_stringIcNS2_11char_traitsIcEENS2_9allocatorIcEEEEbxydS8_NS0_14adl_serializerENS4_IhNS8_IhEEEEE10json_valueC2Ex, symObjAddr: 0x1AD30, symBinAddr: 0x100022E24, symSize: 0x20 }
  - { offsetInCU: 0x6F5BF, offset: 0x6F5BF, size: 0x8, addend: 0x0, symName: __ZN8nlohmann16json_abi_v3_11_210basic_jsonINSt3__13mapENS2_6vectorENS2_12basic_stringIcNS2_11char_traitsIcEENS2_9allocatorIcEEEEbxydS8_NS0_14adl_serializerENS4_IhNS8_IhEEEEE10json_valueC2Ey, symObjAddr: 0x1AD50, symBinAddr: 0x100022E44, symSize: 0x20 }
  - { offsetInCU: 0x6F5F8, offset: 0x6F5F8, size: 0x8, addend: 0x0, symName: __ZN8nlohmann16json_abi_v3_11_210basic_jsonINSt3__13mapENS2_6vectorENS2_12basic_stringIcNS2_11char_traitsIcEENS2_9allocatorIcEEEEbxydS8_NS0_14adl_serializerENS4_IhNS8_IhEEEEE10json_valueC2Ed, symObjAddr: 0x1AD70, symBinAddr: 0x100022E64, symSize: 0x20 }
  - { offsetInCU: 0x6F631, offset: 0x6F631, size: 0x8, addend: 0x0, symName: __ZN8nlohmann16json_abi_v3_11_210basic_jsonINSt3__13mapENS2_6vectorENS2_12basic_stringIcNS2_11char_traitsIcEENS2_9allocatorIcEEEEbxydS8_NS0_14adl_serializerENS4_IhNS8_IhEEEEE10json_valueC2ERKNS0_27byte_container_with_subtypeISD_EE, symObjAddr: 0x1AD90, symBinAddr: 0x100022E84, symSize: 0x3C }
  - { offsetInCU: 0x6F66A, offset: 0x6F66A, size: 0x8, addend: 0x0, symName: __ZN8nlohmann16json_abi_v3_11_210basic_jsonINSt3__13mapENS2_6vectorENS2_12basic_stringIcNS2_11char_traitsIcEENS2_9allocatorIcEEEEbxydS8_NS0_14adl_serializerENS4_IhNS8_IhEEEEE6createINS0_27byte_container_with_subtypeISD_EEJRKSH_EEEPT_DpOT0_, symObjAddr: 0x1ADCC, symBinAddr: 0x100022EC0, symSize: 0xF4 }
  - { offsetInCU: 0x6F71B, offset: 0x6F71B, size: 0x8, addend: 0x0, symName: __ZNSt3__19allocatorIN8nlohmann16json_abi_v3_11_227byte_container_with_subtypeINS_6vectorIhNS0_IhEEEEEEEC1B7v160006Ev, symObjAddr: 0x1AEC0, symBinAddr: 0x100022FB4, symSize: 0x2C }
  - { offsetInCU: 0x6F74B, offset: 0x6F74B, size: 0x8, addend: 0x0, symName: __ZNSt3__116allocator_traitsINS_9allocatorIN8nlohmann16json_abi_v3_11_227byte_container_with_subtypeINS_6vectorIhNS1_IhEEEEEEEEE8allocateB7v160006ERS9_m, symObjAddr: 0x1AEEC, symBinAddr: 0x100022FE0, symSize: 0x2C }
  - { offsetInCU: 0x6F81F, offset: 0x6F81F, size: 0x8, addend: 0x0, symName: __ZNSt3__110unique_ptrIN8nlohmann16json_abi_v3_11_227byte_container_with_subtypeINS_6vectorIhNS_9allocatorIhEEEEEEZNS2_10basic_jsonINS_3mapES4_NS_12basic_stringIcNS_11char_traitsIcEENS5_IcEEEEbxydS5_NS2_14adl_serializerES7_E6createIS8_JRKS8_EEEPT_DpOT0_EUlPS8_E_EC1B7v160006ILb1EvEESQ_NS_16__dependent_typeINS_27__unique_ptr_deleter_sfinaeISR_EEXT_EE15__lval_ref_typeE, symObjAddr: 0x1AF18, symBinAddr: 0x10002300C, symSize: 0x3C }
  - { offsetInCU: 0x6F870, offset: 0x6F870, size: 0x8, addend: 0x0, symName: __ZNSt3__116allocator_traitsINS_9allocatorIN8nlohmann16json_abi_v3_11_227byte_container_with_subtypeINS_6vectorIhNS1_IhEEEEEEEEE9constructB7v160006IS8_JRKS8_EvEEvRS9_PT_DpOT0_, symObjAddr: 0x1AF54, symBinAddr: 0x100023048, symSize: 0x34 }
  - { offsetInCU: 0x6F8C7, offset: 0x6F8C7, size: 0x8, addend: 0x0, symName: __ZNKSt3__110unique_ptrIN8nlohmann16json_abi_v3_11_227byte_container_with_subtypeINS_6vectorIhNS_9allocatorIhEEEEEEZNS2_10basic_jsonINS_3mapES4_NS_12basic_stringIcNS_11char_traitsIcEENS5_IcEEEEbxydS5_NS2_14adl_serializerES7_E6createIS8_JRKS8_EEEPT_DpOT0_EUlPS8_E_E3getB7v160006Ev, symObjAddr: 0x1AF88, symBinAddr: 0x10002307C, symSize: 0x28 }
  - { offsetInCU: 0x6F8ED, offset: 0x6F8ED, size: 0x8, addend: 0x0, symName: __ZNSt3__110unique_ptrIN8nlohmann16json_abi_v3_11_227byte_container_with_subtypeINS_6vectorIhNS_9allocatorIhEEEEEEZNS2_10basic_jsonINS_3mapES4_NS_12basic_stringIcNS_11char_traitsIcEENS5_IcEEEEbxydS5_NS2_14adl_serializerES7_E6createIS8_JRKS8_EEEPT_DpOT0_EUlPS8_E_E7releaseB7v160006Ev, symObjAddr: 0x1AFDC, symBinAddr: 0x1000230D0, symSize: 0x44 }
  - { offsetInCU: 0x6F922, offset: 0x6F922, size: 0x8, addend: 0x0, symName: __ZNSt3__110unique_ptrIN8nlohmann16json_abi_v3_11_227byte_container_with_subtypeINS_6vectorIhNS_9allocatorIhEEEEEEZNS2_10basic_jsonINS_3mapES4_NS_12basic_stringIcNS_11char_traitsIcEENS5_IcEEEEbxydS5_NS2_14adl_serializerES7_E6createIS8_JRKS8_EEEPT_DpOT0_EUlPS8_E_ED1B7v160006Ev, symObjAddr: 0x1B020, symBinAddr: 0x100023114, symSize: 0x2C }
  - { offsetInCU: 0x6F94C, offset: 0x6F94C, size: 0x8, addend: 0x0, symName: __ZNSt3__19allocatorIN8nlohmann16json_abi_v3_11_227byte_container_with_subtypeINS_6vectorIhNS0_IhEEEEEEEC2B7v160006Ev, symObjAddr: 0x1B04C, symBinAddr: 0x100023140, symSize: 0x2C }
  - { offsetInCU: 0x6F976, offset: 0x6F976, size: 0x8, addend: 0x0, symName: __ZNSt3__116__non_trivial_ifILb1ENS_9allocatorIN8nlohmann16json_abi_v3_11_227byte_container_with_subtypeINS_6vectorIhNS1_IhEEEEEEEEEC2B7v160006Ev, symObjAddr: 0x1B078, symBinAddr: 0x10002316C, symSize: 0x14 }
  - { offsetInCU: 0x6F9A0, offset: 0x6F9A0, size: 0x8, addend: 0x0, symName: __ZNSt3__19allocatorIN8nlohmann16json_abi_v3_11_227byte_container_with_subtypeINS_6vectorIhNS0_IhEEEEEEE8allocateB7v160006Em, symObjAddr: 0x1B08C, symBinAddr: 0x100023180, symSize: 0x5C }
  - { offsetInCU: 0x6F9DF, offset: 0x6F9DF, size: 0x8, addend: 0x0, symName: __ZNSt3__116allocator_traitsINS_9allocatorIN8nlohmann16json_abi_v3_11_227byte_container_with_subtypeINS_6vectorIhNS1_IhEEEEEEEEE8max_sizeB7v160006IS9_vEEmRKS9_, symObjAddr: 0x1B0E8, symBinAddr: 0x1000231DC, symSize: 0x24 }
  - { offsetInCU: 0x6FA0D, offset: 0x6FA0D, size: 0x8, addend: 0x0, symName: __ZNKSt3__19allocatorIN8nlohmann16json_abi_v3_11_227byte_container_with_subtypeINS_6vectorIhNS0_IhEEEEEEE8max_sizeB7v160006Ev, symObjAddr: 0x1B10C, symBinAddr: 0x100023200, symSize: 0x18 }
  - { offsetInCU: 0x6FA33, offset: 0x6FA33, size: 0x8, addend: 0x0, symName: __ZNSt3__110unique_ptrIN8nlohmann16json_abi_v3_11_227byte_container_with_subtypeINS_6vectorIhNS_9allocatorIhEEEEEEZNS2_10basic_jsonINS_3mapES4_NS_12basic_stringIcNS_11char_traitsIcEENS5_IcEEEEbxydS5_NS2_14adl_serializerES7_E6createIS8_JRKS8_EEEPT_DpOT0_EUlPS8_E_EC2B7v160006ILb1EvEESQ_NS_16__dependent_typeINS_27__unique_ptr_deleter_sfinaeISR_EEXT_EE15__lval_ref_typeE, symObjAddr: 0x1B124, symBinAddr: 0x100023218, symSize: 0x48 }
  - { offsetInCU: 0x6FA84, offset: 0x6FA84, size: 0x8, addend: 0x0, symName: __ZNSt3__117__compressed_pairIPN8nlohmann16json_abi_v3_11_227byte_container_with_subtypeINS_6vectorIhNS_9allocatorIhEEEEEEZNS2_10basic_jsonINS_3mapES4_NS_12basic_stringIcNS_11char_traitsIcEENS5_IcEEEEbxydS5_NS2_14adl_serializerES7_E6createIS8_JRKS8_EEEPT_DpOT0_EUlS9_E_EC1B7v160006IRS9_RKSR_EEOSM_OT0_, symObjAddr: 0x1B16C, symBinAddr: 0x100023260, symSize: 0x3C }
  - { offsetInCU: 0x6FADC, offset: 0x6FADC, size: 0x8, addend: 0x0, symName: __ZNSt3__117__compressed_pairIPN8nlohmann16json_abi_v3_11_227byte_container_with_subtypeINS_6vectorIhNS_9allocatorIhEEEEEEZNS2_10basic_jsonINS_3mapES4_NS_12basic_stringIcNS_11char_traitsIcEENS5_IcEEEEbxydS5_NS2_14adl_serializerES7_E6createIS8_JRKS8_EEEPT_DpOT0_EUlS9_E_EC2B7v160006IRS9_RKSR_EEOSM_OT0_, symObjAddr: 0x1B1A8, symBinAddr: 0x10002329C, symSize: 0x48 }
  - { offsetInCU: 0x6FB34, offset: 0x6FB34, size: 0x8, addend: 0x0, symName: __ZNSt3__122__compressed_pair_elemIPN8nlohmann16json_abi_v3_11_227byte_container_with_subtypeINS_6vectorIhNS_9allocatorIhEEEEEELi0ELb0EEC2B7v160006IRS9_vEEOT_, symObjAddr: 0x1B1F0, symBinAddr: 0x1000232E4, symSize: 0x24 }
  - { offsetInCU: 0x6FB76, offset: 0x6FB76, size: 0x8, addend: 0x0, symName: __ZNSt3__122__compressed_pair_elemIZN8nlohmann16json_abi_v3_11_210basic_jsonINS_3mapENS_6vectorENS_12basic_stringIcNS_11char_traitsIcEENS_9allocatorIcEEEEbxydS9_NS2_14adl_serializerENS5_IhNS9_IhEEEEE6createINS2_27byte_container_with_subtypeISE_EEJRKSI_EEEPT_DpOT0_EUlPSI_E_Li1ELb0EEC2B7v160006IRKSR_vEEOSL_, symObjAddr: 0x1B214, symBinAddr: 0x100023308, symSize: 0x24 }
  - { offsetInCU: 0x6FBB8, offset: 0x6FBB8, size: 0x8, addend: 0x0, symName: __ZNSt3__19allocatorIN8nlohmann16json_abi_v3_11_227byte_container_with_subtypeINS_6vectorIhNS0_IhEEEEEEE9constructB7v160006IS7_JRKS7_EEEvPT_DpOT0_, symObjAddr: 0x1B238, symBinAddr: 0x10002332C, symSize: 0x30 }
  - { offsetInCU: 0x6FC0E, offset: 0x6FC0E, size: 0x8, addend: 0x0, symName: __ZN8nlohmann16json_abi_v3_11_227byte_container_with_subtypeINSt3__16vectorIhNS2_9allocatorIhEEEEEC1ERKS7_, symObjAddr: 0x1B268, symBinAddr: 0x10002335C, symSize: 0x34 }
  - { offsetInCU: 0x6FC44, offset: 0x6FC44, size: 0x8, addend: 0x0, symName: __ZN8nlohmann16json_abi_v3_11_227byte_container_with_subtypeINSt3__16vectorIhNS2_9allocatorIhEEEEEC2ERKS7_, symObjAddr: 0x1B29C, symBinAddr: 0x100023390, symSize: 0x48 }
  - { offsetInCU: 0x6FC7A, offset: 0x6FC7A, size: 0x8, addend: 0x0, symName: __ZNSt3__16vectorIhNS_9allocatorIhEEEC2ERKS3_, symObjAddr: 0x1B2E4, symBinAddr: 0x1000233D8, symSize: 0x114 }
  - { offsetInCU: 0x6FCE4, offset: 0x6FCE4, size: 0x8, addend: 0x0, symName: __ZNSt3__116allocator_traitsINS_9allocatorIhEEE37select_on_container_copy_constructionB7v160006IS2_vvEES2_RKS2_, symObjAddr: 0x1B3F8, symBinAddr: 0x1000234EC, symSize: 0x10 }
  - { offsetInCU: 0x6FD13, offset: 0x6FD13, size: 0x8, addend: 0x0, symName: __ZNKSt3__16vectorIhNS_9allocatorIhEEE7__allocB7v160006Ev, symObjAddr: 0x1B408, symBinAddr: 0x1000234FC, symSize: 0x28 }
  - { offsetInCU: 0x6FD3F, offset: 0x6FD3F, size: 0x8, addend: 0x0, symName: __ZNSt3__117__compressed_pairIPhNS_9allocatorIhEEEC1B7v160006IDnS3_EEOT_OT0_, symObjAddr: 0x1B430, symBinAddr: 0x100023524, symSize: 0x3C }
  - { offsetInCU: 0x6FD97, offset: 0x6FD97, size: 0x8, addend: 0x0, symName: __ZNSt3__16vectorIhNS_9allocatorIhEEE16__destroy_vectorC1ERS3_, symObjAddr: 0x1B4AC, symBinAddr: 0x1000235A0, symSize: 0x34 }
  - { offsetInCU: 0x6FDD0, offset: 0x6FDD0, size: 0x8, addend: 0x0, symName: __ZNKSt3__16vectorIhNS_9allocatorIhEEE4sizeB7v160006Ev, symObjAddr: 0x1B4F0, symBinAddr: 0x1000235E4, symSize: 0x20 }
  - { offsetInCU: 0x6FDF6, offset: 0x6FDF6, size: 0x8, addend: 0x0, symName: __ZNSt3__16vectorIhNS_9allocatorIhEEE11__vallocateB7v160006Em, symObjAddr: 0x1B510, symBinAddr: 0x100023604, symSize: 0xAC }
  - { offsetInCU: 0x6FE3A, offset: 0x6FE3A, size: 0x8, addend: 0x0, symName: __ZNSt3__16vectorIhNS_9allocatorIhEEE18__construct_at_endIPhLi0EEEvT_S6_m, symObjAddr: 0x1B5BC, symBinAddr: 0x1000236B0, symSize: 0x8C }
  - { offsetInCU: 0x6FEAD, offset: 0x6FEAD, size: 0x8, addend: 0x0, symName: __ZNSt3__128__exception_guard_exceptionsINS_6vectorIhNS_9allocatorIhEEE16__destroy_vectorEE10__completeB7v160006Ev, symObjAddr: 0x1B648, symBinAddr: 0x10002373C, symSize: 0x1C }
  - { offsetInCU: 0x6FED3, offset: 0x6FED3, size: 0x8, addend: 0x0, symName: __ZNSt3__128__exception_guard_exceptionsINS_6vectorIhNS_9allocatorIhEEE16__destroy_vectorEED1B7v160006Ev, symObjAddr: 0x1B664, symBinAddr: 0x100023758, symSize: 0x2C }
  - { offsetInCU: 0x6FEFD, offset: 0x6FEFD, size: 0x8, addend: 0x0, symName: __ZNKSt3__117__compressed_pairIPhNS_9allocatorIhEEE6secondB7v160006Ev, symObjAddr: 0x1B690, symBinAddr: 0x100023784, symSize: 0x24 }
  - { offsetInCU: 0x6FF23, offset: 0x6FF23, size: 0x8, addend: 0x0, symName: __ZNKSt3__122__compressed_pair_elemINS_9allocatorIhEELi1ELb1EE5__getB7v160006Ev, symObjAddr: 0x1B6B4, symBinAddr: 0x1000237A8, symSize: 0x14 }
  - { offsetInCU: 0x6FF49, offset: 0x6FF49, size: 0x8, addend: 0x0, symName: __ZNSt3__117__compressed_pairIPhNS_9allocatorIhEEEC2B7v160006IDnS3_EEOT_OT0_, symObjAddr: 0x1B6C8, symBinAddr: 0x1000237BC, symSize: 0x44 }
  - { offsetInCU: 0x6FFA1, offset: 0x6FFA1, size: 0x8, addend: 0x0, symName: __ZNSt3__122__compressed_pair_elemIPhLi0ELb0EEC2B7v160006IDnvEEOT_, symObjAddr: 0x1B70C, symBinAddr: 0x100023800, symSize: 0x1C }
  - { offsetInCU: 0x6FFE3, offset: 0x6FFE3, size: 0x8, addend: 0x0, symName: __ZNSt3__122__compressed_pair_elemINS_9allocatorIhEELi1ELb1EEC2B7v160006IS2_vEEOT_, symObjAddr: 0x1B728, symBinAddr: 0x10002381C, symSize: 0x18 }
  - { offsetInCU: 0x70025, offset: 0x70025, size: 0x8, addend: 0x0, symName: __ZNSt3__128__exception_guard_exceptionsINS_6vectorIhNS_9allocatorIhEEE16__destroy_vectorEEC1B7v160006ES5_, symObjAddr: 0x1B740, symBinAddr: 0x100023834, symSize: 0x34 }
  - { offsetInCU: 0x7005D, offset: 0x7005D, size: 0x8, addend: 0x0, symName: __ZNSt3__128__exception_guard_exceptionsINS_6vectorIhNS_9allocatorIhEEE16__destroy_vectorEEC2B7v160006ES5_, symObjAddr: 0x1B774, symBinAddr: 0x100023868, symSize: 0x24 }
  - { offsetInCU: 0x70095, offset: 0x70095, size: 0x8, addend: 0x0, symName: __ZNSt3__16vectorIhNS_9allocatorIhEEE16__destroy_vectorC2ERS3_, symObjAddr: 0x1B798, symBinAddr: 0x10002388C, symSize: 0x20 }
  - { offsetInCU: 0x700CE, offset: 0x700CE, size: 0x8, addend: 0x0, symName: __ZNKSt3__16vectorIhNS_9allocatorIhEEE8max_sizeEv, symObjAddr: 0x1B7B8, symBinAddr: 0x1000238AC, symSize: 0x60 }
  - { offsetInCU: 0x700F6, offset: 0x700F6, size: 0x8, addend: 0x0, symName: __ZNKSt3__16vectorIhNS_9allocatorIhEEE20__throw_length_errorB7v160006Ev, symObjAddr: 0x1B818, symBinAddr: 0x10002390C, symSize: 0x1C }
  - { offsetInCU: 0x7011C, offset: 0x7011C, size: 0x8, addend: 0x0, symName: __ZNSt3__16vectorIhNS_9allocatorIhEEE7__allocB7v160006Ev, symObjAddr: 0x1B874, symBinAddr: 0x100023968, symSize: 0x28 }
  - { offsetInCU: 0x70142, offset: 0x70142, size: 0x8, addend: 0x0, symName: __ZNSt3__16vectorIhNS_9allocatorIhEEE9__end_capB7v160006Ev, symObjAddr: 0x1B89C, symBinAddr: 0x100023990, symSize: 0x28 }
  - { offsetInCU: 0x70168, offset: 0x70168, size: 0x8, addend: 0x0, symName: __ZNKSt3__16vectorIhNS_9allocatorIhEEE14__annotate_newB7v160006Em, symObjAddr: 0x1B8C4, symBinAddr: 0x1000239B8, symSize: 0xAC }
  - { offsetInCU: 0x7019D, offset: 0x7019D, size: 0x8, addend: 0x0, symName: __ZNSt3__116allocator_traitsINS_9allocatorIhEEE8max_sizeB7v160006IS2_vEEmRKS2_, symObjAddr: 0x1B970, symBinAddr: 0x100023A64, symSize: 0x24 }
  - { offsetInCU: 0x701CB, offset: 0x701CB, size: 0x8, addend: 0x0, symName: __ZNKSt3__19allocatorIhE8max_sizeB7v160006Ev, symObjAddr: 0x1B994, symBinAddr: 0x100023A88, symSize: 0x14 }
  - { offsetInCU: 0x701F1, offset: 0x701F1, size: 0x8, addend: 0x0, symName: __ZNSt3__19allocatorIhE8allocateB7v160006Em, symObjAddr: 0x1B9A8, symBinAddr: 0x100023A9C, symSize: 0x58 }
  - { offsetInCU: 0x70225, offset: 0x70225, size: 0x8, addend: 0x0, symName: __ZNSt3__117__compressed_pairIPhNS_9allocatorIhEEE6secondB7v160006Ev, symObjAddr: 0x1BA00, symBinAddr: 0x100023AF4, symSize: 0x24 }
  - { offsetInCU: 0x7024B, offset: 0x7024B, size: 0x8, addend: 0x0, symName: __ZNSt3__122__compressed_pair_elemINS_9allocatorIhEELi1ELb1EE5__getB7v160006Ev, symObjAddr: 0x1BA24, symBinAddr: 0x100023B18, symSize: 0x14 }
  - { offsetInCU: 0x70271, offset: 0x70271, size: 0x8, addend: 0x0, symName: __ZNSt3__117__compressed_pairIPhNS_9allocatorIhEEE5firstB7v160006Ev, symObjAddr: 0x1BA38, symBinAddr: 0x100023B2C, symSize: 0x24 }
  - { offsetInCU: 0x70297, offset: 0x70297, size: 0x8, addend: 0x0, symName: __ZNSt3__122__compressed_pair_elemIPhLi0ELb0EE5__getB7v160006Ev, symObjAddr: 0x1BA5C, symBinAddr: 0x100023B50, symSize: 0x14 }
  - { offsetInCU: 0x702BD, offset: 0x702BD, size: 0x8, addend: 0x0, symName: __ZNKSt3__16vectorIhNS_9allocatorIhEEE31__annotate_contiguous_containerB7v160006EPKvS5_S5_S5_, symObjAddr: 0x1BA70, symBinAddr: 0x100023B64, symSize: 0x20 }
  - { offsetInCU: 0x70313, offset: 0x70313, size: 0x8, addend: 0x0, symName: __ZNKSt3__16vectorIhNS_9allocatorIhEEE4dataB7v160006Ev, symObjAddr: 0x1BA90, symBinAddr: 0x100023B84, symSize: 0x28 }
  - { offsetInCU: 0x70339, offset: 0x70339, size: 0x8, addend: 0x0, symName: __ZNKSt3__16vectorIhNS_9allocatorIhEEE8capacityB7v160006Ev, symObjAddr: 0x1BAB8, symBinAddr: 0x100023BAC, symSize: 0x38 }
  - { offsetInCU: 0x7035F, offset: 0x7035F, size: 0x8, addend: 0x0, symName: __ZNKSt3__16vectorIhNS_9allocatorIhEEE9__end_capB7v160006Ev, symObjAddr: 0x1BB04, symBinAddr: 0x100023BF8, symSize: 0x28 }
  - { offsetInCU: 0x70385, offset: 0x70385, size: 0x8, addend: 0x0, symName: __ZNKSt3__117__compressed_pairIPhNS_9allocatorIhEEE5firstB7v160006Ev, symObjAddr: 0x1BB2C, symBinAddr: 0x100023C20, symSize: 0x24 }
  - { offsetInCU: 0x703AB, offset: 0x703AB, size: 0x8, addend: 0x0, symName: __ZNKSt3__122__compressed_pair_elemIPhLi0ELb0EE5__getB7v160006Ev, symObjAddr: 0x1BB50, symBinAddr: 0x100023C44, symSize: 0x14 }
  - { offsetInCU: 0x703ED, offset: 0x703ED, size: 0x8, addend: 0x0, symName: __ZNSt3__16vectorIhNS_9allocatorIhEEE21_ConstructTransactionC1B7v160006ERS3_m, symObjAddr: 0x1BB64, symBinAddr: 0x100023C58, symSize: 0x3C }
  - { offsetInCU: 0x70435, offset: 0x70435, size: 0x8, addend: 0x0, symName: __ZNSt3__16vectorIhNS_9allocatorIhEEE21_ConstructTransactionD1B7v160006Ev, symObjAddr: 0x1BC94, symBinAddr: 0x100023D88, symSize: 0x2C }
  - { offsetInCU: 0x7045F, offset: 0x7045F, size: 0x8, addend: 0x0, symName: __ZNSt3__16vectorIhNS_9allocatorIhEEE21_ConstructTransactionC2B7v160006ERS3_m, symObjAddr: 0x1BCC0, symBinAddr: 0x100023DB4, symSize: 0x44 }
  - { offsetInCU: 0x704A7, offset: 0x704A7, size: 0x8, addend: 0x0, symName: __ZNSt3__129_AllocatorDestroyRangeReverseINS_9allocatorIhEEPhEC1B7v160006ERS2_RS3_S6_, symObjAddr: 0x1BD50, symBinAddr: 0x100023E44, symSize: 0x44 }
  - { offsetInCU: 0x704FE, offset: 0x704FE, size: 0x8, addend: 0x0, symName: __ZNSt3__116allocator_traitsINS_9allocatorIhEEE9constructB7v160006IhJRhEvEEvRS2_PT_DpOT0_, symObjAddr: 0x1BD94, symBinAddr: 0x100023E88, symSize: 0x34 }
  - { offsetInCU: 0x70555, offset: 0x70555, size: 0x8, addend: 0x0, symName: __ZNSt3__128__exception_guard_exceptionsINS_29_AllocatorDestroyRangeReverseINS_9allocatorIhEEPhEEE10__completeB7v160006Ev, symObjAddr: 0x1BDC8, symBinAddr: 0x100023EBC, symSize: 0x1C }
  - { offsetInCU: 0x7057B, offset: 0x7057B, size: 0x8, addend: 0x0, symName: __ZNSt3__128__exception_guard_exceptionsINS_29_AllocatorDestroyRangeReverseINS_9allocatorIhEEPhEEED1B7v160006Ev, symObjAddr: 0x1BDE4, symBinAddr: 0x100023ED8, symSize: 0x2C }
  - { offsetInCU: 0x705A5, offset: 0x705A5, size: 0x8, addend: 0x0, symName: __ZNSt3__128__exception_guard_exceptionsINS_29_AllocatorDestroyRangeReverseINS_9allocatorIhEEPhEEEC1B7v160006ES5_, symObjAddr: 0x1BE10, symBinAddr: 0x100023F04, symSize: 0x34 }
  - { offsetInCU: 0x705DE, offset: 0x705DE, size: 0x8, addend: 0x0, symName: __ZNSt3__128__exception_guard_exceptionsINS_29_AllocatorDestroyRangeReverseINS_9allocatorIhEEPhEEEC2B7v160006ES5_, symObjAddr: 0x1BE44, symBinAddr: 0x100023F38, symSize: 0x30 }
  - { offsetInCU: 0x70617, offset: 0x70617, size: 0x8, addend: 0x0, symName: __ZNSt3__129_AllocatorDestroyRangeReverseINS_9allocatorIhEEPhEC2B7v160006ERS2_RS3_S6_, symObjAddr: 0x1BE74, symBinAddr: 0x100023F68, symSize: 0x38 }
  - { offsetInCU: 0x7066E, offset: 0x7066E, size: 0x8, addend: 0x0, symName: __ZNSt3__19allocatorIhE9constructB7v160006IhJRhEEEvPT_DpOT0_, symObjAddr: 0x1BEAC, symBinAddr: 0x100023FA0, symSize: 0x28 }
  - { offsetInCU: 0x706C4, offset: 0x706C4, size: 0x8, addend: 0x0, symName: __ZNSt3__128__exception_guard_exceptionsINS_29_AllocatorDestroyRangeReverseINS_9allocatorIhEEPhEEED2B7v160006Ev, symObjAddr: 0x1BED4, symBinAddr: 0x100023FC8, symSize: 0x50 }
  - { offsetInCU: 0x706EE, offset: 0x706EE, size: 0x8, addend: 0x0, symName: __ZNKSt3__129_AllocatorDestroyRangeReverseINS_9allocatorIhEEPhEclB7v160006Ev, symObjAddr: 0x1BF24, symBinAddr: 0x100024018, symSize: 0x68 }
  - { offsetInCU: 0x70714, offset: 0x70714, size: 0x8, addend: 0x0, symName: __ZNSt3__116reverse_iteratorIPhEC1B7v160006ES1_, symObjAddr: 0x1BFFC, symBinAddr: 0x1000240F0, symSize: 0x34 }
  - { offsetInCU: 0x7074C, offset: 0x7074C, size: 0x8, addend: 0x0, symName: __ZNSt3__116allocator_traitsINS_9allocatorIhEEE7destroyB7v160006IhvEEvRS2_PT_, symObjAddr: 0x1C078, symBinAddr: 0x10002416C, symSize: 0x2C }
  - { offsetInCU: 0x70789, offset: 0x70789, size: 0x8, addend: 0x0, symName: __ZNSt3__116reverse_iteratorIPhEppB7v160006Ev, symObjAddr: 0x1C0C8, symBinAddr: 0x1000241BC, symSize: 0x20 }
  - { offsetInCU: 0x707AF, offset: 0x707AF, size: 0x8, addend: 0x0, symName: __ZNKSt3__116reverse_iteratorIPhE4baseB7v160006Ev, symObjAddr: 0x1C0E8, symBinAddr: 0x1000241DC, symSize: 0x18 }
  - { offsetInCU: 0x707D5, offset: 0x707D5, size: 0x8, addend: 0x0, symName: __ZNSt3__19allocatorIhE7destroyB7v160006EPh, symObjAddr: 0x1C100, symBinAddr: 0x1000241F4, symSize: 0x14 }
  - { offsetInCU: 0x7080F, offset: 0x7080F, size: 0x8, addend: 0x0, symName: __ZNSt3__119__to_address_helperINS_16reverse_iteratorIPhEEvE6__callB7v160006ERKS3_, symObjAddr: 0x1C114, symBinAddr: 0x100024208, symSize: 0x38 }
  - { offsetInCU: 0x70832, offset: 0x70832, size: 0x8, addend: 0x0, symName: __ZNKSt3__116reverse_iteratorIPhEptB7v160006Ev, symObjAddr: 0x1C14C, symBinAddr: 0x100024240, symSize: 0x24 }
  - { offsetInCU: 0x70858, offset: 0x70858, size: 0x8, addend: 0x0, symName: __ZNKSt3__116reverse_iteratorIPhEdeB7v160006Ev, symObjAddr: 0x1C170, symBinAddr: 0x100024264, symSize: 0x28 }
  - { offsetInCU: 0x7088C, offset: 0x7088C, size: 0x8, addend: 0x0, symName: __ZNSt3__116reverse_iteratorIPhEC2B7v160006ES1_, symObjAddr: 0x1C198, symBinAddr: 0x10002428C, symSize: 0x28 }
  - { offsetInCU: 0x708C4, offset: 0x708C4, size: 0x8, addend: 0x0, symName: __ZNSt3__16vectorIhNS_9allocatorIhEEE21_ConstructTransactionD2B7v160006Ev, symObjAddr: 0x1C1C0, symBinAddr: 0x1000242B4, symSize: 0x20 }
  - { offsetInCU: 0x708EE, offset: 0x708EE, size: 0x8, addend: 0x0, symName: __ZNSt3__128__exception_guard_exceptionsINS_6vectorIhNS_9allocatorIhEEE16__destroy_vectorEED2B7v160006Ev, symObjAddr: 0x1C1E0, symBinAddr: 0x1000242D4, symSize: 0x50 }
  - { offsetInCU: 0x70918, offset: 0x70918, size: 0x8, addend: 0x0, symName: __ZNSt3__16vectorIhNS_9allocatorIhEEE16__destroy_vectorclB7v160006Ev, symObjAddr: 0x1C230, symBinAddr: 0x100024324, symSize: 0x9C }
  - { offsetInCU: 0x7093E, offset: 0x7093E, size: 0x8, addend: 0x0, symName: __ZNKSt3__16vectorIhNS_9allocatorIhEEE17__annotate_deleteB7v160006Ev, symObjAddr: 0x1C2CC, symBinAddr: 0x1000243C0, symSize: 0xB8 }
  - { offsetInCU: 0x70964, offset: 0x70964, size: 0x8, addend: 0x0, symName: __ZNSt3__16vectorIhNS_9allocatorIhEEE7__clearB7v160006Ev, symObjAddr: 0x1C394, symBinAddr: 0x100024488, symSize: 0x28 }
  - { offsetInCU: 0x7098A, offset: 0x7098A, size: 0x8, addend: 0x0, symName: __ZNSt3__116allocator_traitsINS_9allocatorIhEEE10deallocateB7v160006ERS2_Phm, symObjAddr: 0x1C3BC, symBinAddr: 0x1000244B0, symSize: 0x34 }
  - { offsetInCU: 0x709CC, offset: 0x709CC, size: 0x8, addend: 0x0, symName: __ZNSt3__16vectorIhNS_9allocatorIhEEE22__base_destruct_at_endB7v160006EPh, symObjAddr: 0x1C3F0, symBinAddr: 0x1000244E4, symSize: 0x8C }
  - { offsetInCU: 0x70A10, offset: 0x70A10, size: 0x8, addend: 0x0, symName: __ZNSt3__19allocatorIhE10deallocateB7v160006EPhm, symObjAddr: 0x1C47C, symBinAddr: 0x100024570, symSize: 0x40 }
  - { offsetInCU: 0x70A52, offset: 0x70A52, size: 0x8, addend: 0x0, symName: __ZNKSt3__117__compressed_pairIPN8nlohmann16json_abi_v3_11_227byte_container_with_subtypeINS_6vectorIhNS_9allocatorIhEEEEEEZNS2_10basic_jsonINS_3mapES4_NS_12basic_stringIcNS_11char_traitsIcEENS5_IcEEEEbxydS5_NS2_14adl_serializerES7_E6createIS8_JRKS8_EEEPT_DpOT0_EUlS9_E_E5firstB7v160006Ev, symObjAddr: 0x1C4BC, symBinAddr: 0x1000245B0, symSize: 0x24 }
  - { offsetInCU: 0x70A78, offset: 0x70A78, size: 0x8, addend: 0x0, symName: __ZNKSt3__122__compressed_pair_elemIPN8nlohmann16json_abi_v3_11_227byte_container_with_subtypeINS_6vectorIhNS_9allocatorIhEEEEEELi0ELb0EE5__getB7v160006Ev, symObjAddr: 0x1C4E0, symBinAddr: 0x1000245D4, symSize: 0x14 }
  - { offsetInCU: 0x70A9E, offset: 0x70A9E, size: 0x8, addend: 0x0, symName: __ZNKSt3__110unique_ptrIN8nlohmann16json_abi_v3_11_227byte_container_with_subtypeINS_6vectorIhNS_9allocatorIhEEEEEEZNS2_10basic_jsonINS_3mapES4_NS_12basic_stringIcNS_11char_traitsIcEENS5_IcEEEEbxydS5_NS2_14adl_serializerES7_E6createIS8_JRKS8_EEEPT_DpOT0_EUlPS8_E_EcvbB7v160006Ev, symObjAddr: 0x1C4F4, symBinAddr: 0x1000245E8, symSize: 0x34 }
  - { offsetInCU: 0x70AC4, offset: 0x70AC4, size: 0x8, addend: 0x0, symName: __ZNSt3__117__compressed_pairIPN8nlohmann16json_abi_v3_11_227byte_container_with_subtypeINS_6vectorIhNS_9allocatorIhEEEEEEZNS2_10basic_jsonINS_3mapES4_NS_12basic_stringIcNS_11char_traitsIcEENS5_IcEEEEbxydS5_NS2_14adl_serializerES7_E6createIS8_JRKS8_EEEPT_DpOT0_EUlS9_E_E5firstB7v160006Ev, symObjAddr: 0x1C528, symBinAddr: 0x10002461C, symSize: 0x24 }
  - { offsetInCU: 0x70AEA, offset: 0x70AEA, size: 0x8, addend: 0x0, symName: __ZNSt3__122__compressed_pair_elemIPN8nlohmann16json_abi_v3_11_227byte_container_with_subtypeINS_6vectorIhNS_9allocatorIhEEEEEELi0ELb0EE5__getB7v160006Ev, symObjAddr: 0x1C54C, symBinAddr: 0x100024640, symSize: 0x14 }
  - { offsetInCU: 0x70B10, offset: 0x70B10, size: 0x8, addend: 0x0, symName: __ZNSt3__110unique_ptrIN8nlohmann16json_abi_v3_11_227byte_container_with_subtypeINS_6vectorIhNS_9allocatorIhEEEEEEZNS2_10basic_jsonINS_3mapES4_NS_12basic_stringIcNS_11char_traitsIcEENS5_IcEEEEbxydS5_NS2_14adl_serializerES7_E6createIS8_JRKS8_EEEPT_DpOT0_EUlPS8_E_ED2B7v160006Ev, symObjAddr: 0x1C560, symBinAddr: 0x100024654, symSize: 0x30 }
  - { offsetInCU: 0x70B3A, offset: 0x70B3A, size: 0x8, addend: 0x0, symName: __ZNSt3__110unique_ptrIN8nlohmann16json_abi_v3_11_227byte_container_with_subtypeINS_6vectorIhNS_9allocatorIhEEEEEEZNS2_10basic_jsonINS_3mapES4_NS_12basic_stringIcNS_11char_traitsIcEENS5_IcEEEEbxydS5_NS2_14adl_serializerES7_E6createIS8_JRKS8_EEEPT_DpOT0_EUlPS8_E_E5resetB7v160006ESQ_, symObjAddr: 0x1C590, symBinAddr: 0x100024684, symSize: 0x80 }
  - { offsetInCU: 0x70B7E, offset: 0x70B7E, size: 0x8, addend: 0x0, symName: __ZNSt3__117__compressed_pairIPN8nlohmann16json_abi_v3_11_227byte_container_with_subtypeINS_6vectorIhNS_9allocatorIhEEEEEEZNS2_10basic_jsonINS_3mapES4_NS_12basic_stringIcNS_11char_traitsIcEENS5_IcEEEEbxydS5_NS2_14adl_serializerES7_E6createIS8_JRKS8_EEEPT_DpOT0_EUlS9_E_E6secondB7v160006Ev, symObjAddr: 0x1C610, symBinAddr: 0x100024704, symSize: 0x28 }
  - { offsetInCU: 0x70BAA, offset: 0x70BAA, size: 0x8, addend: 0x0, symName: __ZZN8nlohmann16json_abi_v3_11_210basic_jsonINSt3__13mapENS2_6vectorENS2_12basic_stringIcNS2_11char_traitsIcEENS2_9allocatorIcEEEEbxydS8_NS0_14adl_serializerENS4_IhNS8_IhEEEEE6createINS0_27byte_container_with_subtypeISD_EEJRKSH_EEEPT_DpOT0_ENKUlPSH_E_clESP_, symObjAddr: 0x1C638, symBinAddr: 0x10002472C, symSize: 0x34 }
  - { offsetInCU: 0x70BE3, offset: 0x70BE3, size: 0x8, addend: 0x0, symName: __ZNSt3__122__compressed_pair_elemIZN8nlohmann16json_abi_v3_11_210basic_jsonINS_3mapENS_6vectorENS_12basic_stringIcNS_11char_traitsIcEENS_9allocatorIcEEEEbxydS9_NS2_14adl_serializerENS5_IhNS9_IhEEEEE6createINS2_27byte_container_with_subtypeISE_EEJRKSI_EEEPT_DpOT0_EUlPSI_E_Li1ELb0EE5__getB7v160006Ev, symObjAddr: 0x1C66C, symBinAddr: 0x100024760, symSize: 0x14 }
  - { offsetInCU: 0x70C09, offset: 0x70C09, size: 0x8, addend: 0x0, symName: __ZNSt3__116allocator_traitsINS_9allocatorIN8nlohmann16json_abi_v3_11_227byte_container_with_subtypeINS_6vectorIhNS1_IhEEEEEEEEE10deallocateB7v160006ERS9_PS8_m, symObjAddr: 0x1C680, symBinAddr: 0x100024774, symSize: 0x34 }
  - { offsetInCU: 0x70C4B, offset: 0x70C4B, size: 0x8, addend: 0x0, symName: __ZNSt3__19allocatorIN8nlohmann16json_abi_v3_11_227byte_container_with_subtypeINS_6vectorIhNS0_IhEEEEEEE10deallocateB7v160006EPS7_m, symObjAddr: 0x1C6B4, symBinAddr: 0x1000247A8, symSize: 0x44 }
  - { offsetInCU: 0x70C8D, offset: 0x70C8D, size: 0x8, addend: 0x0, symName: __ZNSt3__16vectorIPN8nlohmann16json_abi_v3_11_210basic_jsonINS_3mapES0_NS_12basic_stringIcNS_11char_traitsIcEENS_9allocatorIcEEEEbxydS8_NS2_14adl_serializerENS0_IhNS8_IhEEEEEENS8_ISF_EEE17__destruct_at_endB7v160006EPSF_, symObjAddr: 0x1C6F8, symBinAddr: 0x1000247EC, symSize: 0x60 }
  - { offsetInCU: 0x70CD1, offset: 0x70CD1, size: 0x8, addend: 0x0, symName: __ZNSt3__16vectorIPN8nlohmann16json_abi_v3_11_210basic_jsonINS_3mapES0_NS_12basic_stringIcNS_11char_traitsIcEENS_9allocatorIcEEEEbxydS8_NS2_14adl_serializerENS0_IhNS8_IhEEEEEENS8_ISF_EEE27__invalidate_iterators_pastB7v160006EPSF_, symObjAddr: 0x1C758, symBinAddr: 0x10002484C, symSize: 0x14 }
  - { offsetInCU: 0x70D08, offset: 0x70D08, size: 0x8, addend: 0x0, symName: __ZNKSt3__16vectorIPN8nlohmann16json_abi_v3_11_210basic_jsonINS_3mapES0_NS_12basic_stringIcNS_11char_traitsIcEENS_9allocatorIcEEEEbxydS8_NS2_14adl_serializerENS0_IhNS8_IhEEEEEENS8_ISF_EEE17__annotate_shrinkB7v160006Em, symObjAddr: 0x1C76C, symBinAddr: 0x100024860, symSize: 0xB4 }
  - { offsetInCU: 0x70D3D, offset: 0x70D3D, size: 0x8, addend: 0x0, symName: __ZN8nlohmann16json_abi_v3_11_26detail9iter_implINS0_10basic_jsonINSt3__13mapENS4_6vectorENS4_12basic_stringIcNS4_11char_traitsIcEENS4_9allocatorIcEEEEbxydSA_NS0_14adl_serializerENS6_IhNSA_IhEEEEEEEC1EPSG_, symObjAddr: 0x1C820, symBinAddr: 0x100024914, symSize: 0x34 }
  - { offsetInCU: 0x70D76, offset: 0x70D76, size: 0x8, addend: 0x0, symName: __ZN8nlohmann16json_abi_v3_11_26detail9iter_implINS0_10basic_jsonINSt3__13mapENS4_6vectorENS4_12basic_stringIcNS4_11char_traitsIcEENS4_9allocatorIcEEEEbxydSA_NS0_14adl_serializerENS6_IhNSA_IhEEEEEEE9set_beginEv, symObjAddr: 0x1C854, symBinAddr: 0x100024948, symSize: 0x118 }
  - { offsetInCU: 0x70D9C, offset: 0x70D9C, size: 0x8, addend: 0x0, symName: __ZN8nlohmann16json_abi_v3_11_26detail9iter_implINS0_10basic_jsonINSt3__13mapENS4_6vectorENS4_12basic_stringIcNS4_11char_traitsIcEENS4_9allocatorIcEEEEbxydSA_NS0_14adl_serializerENS6_IhNSA_IhEEEEEEEC2EPSG_, symObjAddr: 0x1C994, symBinAddr: 0x100024A88, symSize: 0x13C }
  - { offsetInCU: 0x70DD5, offset: 0x70DD5, size: 0x8, addend: 0x0, symName: __ZNSt3__114__map_iteratorINS_15__tree_iteratorINS_12__value_typeINS_12basic_stringIcNS_11char_traitsIcEENS_9allocatorIcEEEEN8nlohmann16json_abi_v3_11_210basic_jsonINS_3mapENS_6vectorES8_bxydS6_NSA_14adl_serializerENSD_IhNS6_IhEEEEEEEEPNS_11__tree_nodeISI_PvEElEEEC1B7v160006Ev, symObjAddr: 0x1CAF8, symBinAddr: 0x100024BEC, symSize: 0x2C }
  - { offsetInCU: 0x70DFF, offset: 0x70DFF, size: 0x8, addend: 0x0, symName: __ZNSt3__111__wrap_iterIPN8nlohmann16json_abi_v3_11_210basic_jsonINS_3mapENS_6vectorENS_12basic_stringIcNS_11char_traitsIcEENS_9allocatorIcEEEEbxydS9_NS2_14adl_serializerENS5_IhNS9_IhEEEEEEEC1B7v160006Ev, symObjAddr: 0x1CB24, symBinAddr: 0x100024C18, symSize: 0x2C }
  - { offsetInCU: 0x70E29, offset: 0x70E29, size: 0x8, addend: 0x0, symName: __ZN8nlohmann16json_abi_v3_11_26detail20primitive_iterator_tC1Ev, symObjAddr: 0x1CB50, symBinAddr: 0x100024C44, symSize: 0x2C }
  - { offsetInCU: 0x70E56, offset: 0x70E56, size: 0x8, addend: 0x0, symName: __ZNSt3__114__map_iteratorINS_15__tree_iteratorINS_12__value_typeINS_12basic_stringIcNS_11char_traitsIcEENS_9allocatorIcEEEEN8nlohmann16json_abi_v3_11_210basic_jsonINS_3mapENS_6vectorES8_bxydS6_NSA_14adl_serializerENSD_IhNS6_IhEEEEEEEEPNS_11__tree_nodeISI_PvEElEEEC2B7v160006Ev, symObjAddr: 0x1CB7C, symBinAddr: 0x100024C70, symSize: 0x2C }
  - { offsetInCU: 0x70E80, offset: 0x70E80, size: 0x8, addend: 0x0, symName: __ZNSt3__115__tree_iteratorINS_12__value_typeINS_12basic_stringIcNS_11char_traitsIcEENS_9allocatorIcEEEEN8nlohmann16json_abi_v3_11_210basic_jsonINS_3mapENS_6vectorES7_bxydS5_NS9_14adl_serializerENSC_IhNS5_IhEEEEEEEEPNS_11__tree_nodeISH_PvEElEC1B7v160006Ev, symObjAddr: 0x1CBA8, symBinAddr: 0x100024C9C, symSize: 0x2C }
  - { offsetInCU: 0x70EAA, offset: 0x70EAA, size: 0x8, addend: 0x0, symName: __ZNSt3__115__tree_iteratorINS_12__value_typeINS_12basic_stringIcNS_11char_traitsIcEENS_9allocatorIcEEEEN8nlohmann16json_abi_v3_11_210basic_jsonINS_3mapENS_6vectorES7_bxydS5_NS9_14adl_serializerENSC_IhNS5_IhEEEEEEEEPNS_11__tree_nodeISH_PvEElEC2B7v160006Ev, symObjAddr: 0x1CBD4, symBinAddr: 0x100024CC8, symSize: 0x18 }
  - { offsetInCU: 0x70ED4, offset: 0x70ED4, size: 0x8, addend: 0x0, symName: __ZNSt3__111__wrap_iterIPN8nlohmann16json_abi_v3_11_210basic_jsonINS_3mapENS_6vectorENS_12basic_stringIcNS_11char_traitsIcEENS_9allocatorIcEEEEbxydS9_NS2_14adl_serializerENS5_IhNS9_IhEEEEEEEC2B7v160006Ev, symObjAddr: 0x1CBEC, symBinAddr: 0x100024CE0, symSize: 0x38 }
  - { offsetInCU: 0x70EFE, offset: 0x70EFE, size: 0x8, addend: 0x0, symName: __ZN8nlohmann16json_abi_v3_11_26detail20primitive_iterator_tC2Ev, symObjAddr: 0x1CC34, symBinAddr: 0x100024D28, symSize: 0x34 }
  - { offsetInCU: 0x70F2B, offset: 0x70F2B, size: 0x8, addend: 0x0, symName: __ZNSt3__114numeric_limitsIlE3minB7v160006Ev, symObjAddr: 0x1CC68, symBinAddr: 0x100024D5C, symSize: 0x14 }
  - { offsetInCU: 0x70F3F, offset: 0x70F3F, size: 0x8, addend: 0x0, symName: __ZNSt3__123__libcpp_numeric_limitsIlLb1EE3minB7v160006Ev, symObjAddr: 0x1CC7C, symBinAddr: 0x100024D70, symSize: 0x8 }
  - { offsetInCU: 0x70F53, offset: 0x70F53, size: 0x8, addend: 0x0, symName: __ZNSt3__13mapINS_12basic_stringIcNS_11char_traitsIcEENS_9allocatorIcEEEEN8nlohmann16json_abi_v3_11_210basic_jsonIS0_NS_6vectorES6_bxydS4_NS8_14adl_serializerENSA_IhNS4_IhEEEEEENS_4lessIvEENS4_INS_4pairIKS6_SE_EEEEE5beginB7v160006Ev, symObjAddr: 0x1CC84, symBinAddr: 0x100024D78, symSize: 0x38 }
  - { offsetInCU: 0x70F79, offset: 0x70F79, size: 0x8, addend: 0x0, symName: __ZN8nlohmann16json_abi_v3_11_26detail20primitive_iterator_t7set_endEv, symObjAddr: 0x1CCBC, symBinAddr: 0x100024DB0, symSize: 0x1C }
  - { offsetInCU: 0x70F9F, offset: 0x70F9F, size: 0x8, addend: 0x0, symName: __ZN8nlohmann16json_abi_v3_11_26detail20primitive_iterator_t9set_beginEv, symObjAddr: 0x1CCD8, symBinAddr: 0x100024DCC, symSize: 0x18 }
  - { offsetInCU: 0x70FC5, offset: 0x70FC5, size: 0x8, addend: 0x0, symName: __ZNK8nlohmann16json_abi_v3_11_26detail9iter_implINS0_10basic_jsonINSt3__13mapENS4_6vectorENS4_12basic_stringIcNS4_11char_traitsIcEENS4_9allocatorIcEEEEbxydSA_NS0_14adl_serializerENS6_IhNSA_IhEEEEEEEeqISH_LDn0EEEbRKT_, symObjAddr: 0x1CCF0, symBinAddr: 0x100024DE4, symSize: 0x214 }
  - { offsetInCU: 0x7100F, offset: 0x7100F, size: 0x8, addend: 0x0, symName: __ZN8nlohmann16json_abi_v3_11_26detail16invalid_iterator6createIPNS0_10basic_jsonINSt3__13mapENS5_6vectorENS5_12basic_stringIcNS5_11char_traitsIcEENS5_9allocatorIcEEEEbxydSB_NS0_14adl_serializerENS7_IhNSB_IhEEEEEELi0EEES2_iRKSD_T_, symObjAddr: 0x1CF2C, symBinAddr: 0x100025020, symSize: 0x130 }
  - { offsetInCU: 0x7106F, offset: 0x7106F, size: 0x8, addend: 0x0, symName: __ZN8nlohmann16json_abi_v3_11_26detail16invalid_iteratorD1Ev, symObjAddr: 0x1D05C, symBinAddr: 0x100025150, symSize: 0x2C }
  - { offsetInCU: 0x7109C, offset: 0x7109C, size: 0x8, addend: 0x0, symName: __ZN8nlohmann16json_abi_v3_11_26detail16invalid_iteratorC1EiPKc, symObjAddr: 0x1D128, symBinAddr: 0x10002521C, symSize: 0x3C }
  - { offsetInCU: 0x710E4, offset: 0x710E4, size: 0x8, addend: 0x0, symName: __ZN8nlohmann16json_abi_v3_11_26detail16invalid_iteratorC2EiPKc, symObjAddr: 0x1D164, symBinAddr: 0x100025258, symSize: 0x54 }
  - { offsetInCU: 0x7112C, offset: 0x7112C, size: 0x8, addend: 0x0, symName: __ZN8nlohmann16json_abi_v3_11_26detail16invalid_iteratorD0Ev, symObjAddr: 0x1D1B8, symBinAddr: 0x1000252AC, symSize: 0x30 }
  - { offsetInCU: 0x71159, offset: 0x71159, size: 0x8, addend: 0x0, symName: __ZN8nlohmann16json_abi_v3_11_26detail16invalid_iteratorD2Ev, symObjAddr: 0x1D1E8, symBinAddr: 0x1000252DC, symSize: 0x2C }
  - { offsetInCU: 0x71186, offset: 0x71186, size: 0x8, addend: 0x0, symName: __ZNKSt3__111__wrap_iterIPN8nlohmann16json_abi_v3_11_210basic_jsonINS_3mapENS_6vectorENS_12basic_stringIcNS_11char_traitsIcEENS_9allocatorIcEEEEbxydS9_NS2_14adl_serializerENS5_IhNS9_IhEEEEEEE4baseB7v160006Ev, symObjAddr: 0x1D244, symBinAddr: 0x100025338, symSize: 0x18 }
  - { offsetInCU: 0x711AC, offset: 0x711AC, size: 0x8, addend: 0x0, symName: __ZN8nlohmann16json_abi_v3_11_26detail9iter_implINS0_10basic_jsonINSt3__13mapENS4_6vectorENS4_12basic_stringIcNS4_11char_traitsIcEENS4_9allocatorIcEEEEbxydSA_NS0_14adl_serializerENS6_IhNSA_IhEEEEEEE7set_endEv, symObjAddr: 0x1D25C, symBinAddr: 0x100025350, symSize: 0x108 }
  - { offsetInCU: 0x711D2, offset: 0x711D2, size: 0x8, addend: 0x0, symName: __ZNSt3__13mapINS_12basic_stringIcNS_11char_traitsIcEENS_9allocatorIcEEEEN8nlohmann16json_abi_v3_11_210basic_jsonIS0_NS_6vectorES6_bxydS4_NS8_14adl_serializerENSA_IhNS4_IhEEEEEENS_4lessIvEENS4_INS_4pairIKS6_SE_EEEEE3endB7v160006Ev, symObjAddr: 0x1D38C, symBinAddr: 0x100025480, symSize: 0x38 }
  - { offsetInCU: 0x711F8, offset: 0x711F8, size: 0x8, addend: 0x0, symName: __ZNKSt3__114__map_iteratorINS_15__tree_iteratorINS_12__value_typeINS_12basic_stringIcNS_11char_traitsIcEENS_9allocatorIcEEEEN8nlohmann16json_abi_v3_11_210basic_jsonINS_3mapENS_6vectorES8_bxydS6_NSA_14adl_serializerENSD_IhNS6_IhEEEEEEEEPNS_11__tree_nodeISI_PvEElEEEptB7v160006Ev, symObjAddr: 0x1D3F4, symBinAddr: 0x1000254E8, symSize: 0x2C }
  - { offsetInCU: 0x7121E, offset: 0x7121E, size: 0x8, addend: 0x0, symName: __ZNK8nlohmann16json_abi_v3_11_26detail20primitive_iterator_t8is_beginEv, symObjAddr: 0x1D420, symBinAddr: 0x100025514, symSize: 0x24 }
  - { offsetInCU: 0x71244, offset: 0x71244, size: 0x8, addend: 0x0, symName: __ZNSt3__114pointer_traitsIPNS_4pairIKNS_12basic_stringIcNS_11char_traitsIcEENS_9allocatorIcEEEEN8nlohmann16json_abi_v3_11_210basic_jsonINS_3mapENS_6vectorES7_bxydS5_NSA_14adl_serializerENSD_IhNS5_IhEEEEEEEEE10pointer_toB7v160006ERSI_, symObjAddr: 0x1D478, symBinAddr: 0x10002556C, symSize: 0x14 }
  - { offsetInCU: 0x71267, offset: 0x71267, size: 0x8, addend: 0x0, symName: __ZNKSt3__115__tree_iteratorINS_12__value_typeINS_12basic_stringIcNS_11char_traitsIcEENS_9allocatorIcEEEEN8nlohmann16json_abi_v3_11_210basic_jsonINS_3mapENS_6vectorES7_bxydS5_NS9_14adl_serializerENSC_IhNS5_IhEEEEEEEEPNS_11__tree_nodeISH_PvEElEptB7v160006Ev, symObjAddr: 0x1D48C, symBinAddr: 0x100025580, symSize: 0x2C }
  - { offsetInCU: 0x7128D, offset: 0x7128D, size: 0x8, addend: 0x0, symName: __ZNSt3__114pointer_traitsIPNS_12__value_typeINS_12basic_stringIcNS_11char_traitsIcEENS_9allocatorIcEEEEN8nlohmann16json_abi_v3_11_210basic_jsonINS_3mapENS_6vectorES7_bxydS5_NS9_14adl_serializerENSC_IhNS5_IhEEEEEEEEE10pointer_toB7v160006ERSH_, symObjAddr: 0x1D4B8, symBinAddr: 0x1000255AC, symSize: 0x14 }
  - { offsetInCU: 0x712B0, offset: 0x712B0, size: 0x8, addend: 0x0, symName: __ZNKSt3__115__tree_iteratorINS_12__value_typeINS_12basic_stringIcNS_11char_traitsIcEENS_9allocatorIcEEEEN8nlohmann16json_abi_v3_11_210basic_jsonINS_3mapENS_6vectorES7_bxydS5_NS9_14adl_serializerENSC_IhNS5_IhEEEEEEEEPNS_11__tree_nodeISH_PvEElE8__get_npB7v160006Ev, symObjAddr: 0x1D4CC, symBinAddr: 0x1000255C0, symSize: 0x18 }
  - { offsetInCU: 0x712D6, offset: 0x712D6, size: 0x8, addend: 0x0, symName: __ZNK8nlohmann16json_abi_v3_11_210basic_jsonINSt3__13mapENS2_6vectorENS2_12basic_stringIcNS2_11char_traitsIcEENS2_9allocatorIcEEEEbxydS8_NS0_14adl_serializerENS4_IhNS8_IhEEEEE9is_stringEv, symObjAddr: 0x1D4E4, symBinAddr: 0x1000255D8, symSize: 0x24 }
  - { offsetInCU: 0x712FC, offset: 0x712FC, size: 0x8, addend: 0x0, symName: __ZNSt3__116allocator_traitsINS_9allocatorINS_12basic_stringIcNS_11char_traitsIcEENS1_IcEEEEEEE7destroyB7v160006IS6_vEEvRS7_PT_, symObjAddr: 0x1D508, symBinAddr: 0x1000255FC, symSize: 0x2C }
  - { offsetInCU: 0x71339, offset: 0x71339, size: 0x8, addend: 0x0, symName: __ZNK8nlohmann16json_abi_v3_11_210basic_jsonINSt3__13mapENS2_6vectorENS2_12basic_stringIcNS2_11char_traitsIcEENS2_9allocatorIcEEEEbxydS8_NS0_14adl_serializerENS4_IhNS8_IhEEEEE9is_binaryEv, symObjAddr: 0x1D534, symBinAddr: 0x100025628, symSize: 0x24 }
  - { offsetInCU: 0x7135F, offset: 0x7135F, size: 0x8, addend: 0x0, symName: __ZNSt3__116allocator_traitsINS_9allocatorIN8nlohmann16json_abi_v3_11_227byte_container_with_subtypeINS_6vectorIhNS1_IhEEEEEEEEE7destroyB7v160006IS8_vEEvRS9_PT_, symObjAddr: 0x1D558, symBinAddr: 0x10002564C, symSize: 0x2C }
