---
triple:          'arm64-apple-darwin'
binary-path:     '/Users/rwalsh/sourcecode/iCabbage/ICabbage/build/Debug/ICabbage.app/Contents/MacOS/ICabbage'
relocations:
  - { offsetInCU: 0x38, offset: 0x38, size: 0x8, addend: 0x0, symName: __ZN5iplug8MakePlugERKNS_12InstanceInfoE, symObjAddr: 0x0, symBinAddr: 0x100009128, symSize: 0x12C }
  - { offsetInCU: 0x63, offset: 0x63, size: 0x8, addend: 0x0, symName: __ZZN5iplug8MakePlugERKNS_12InstanceInfoEE6sMutex, symObjAddr: 0x21C3E8, symBinAddr: 0x10016B5F0, symSize: 0x0 }
  - { offsetInCU: 0xAB, offset: 0xAB, size: 0x8, addend: 0x0, symName: __ZN5iplugL15ParamSourceStrsE, symObjAddr: 0x386F8, symBinAddr: 0x1001697F8, symSize: 0x0 }
  - { offsetInCU: 0xD3, offset: 0xD3, size: 0x8, addend: 0x0, symName: __ZN5iplug17FastSinOscillatorIdE4mLUTE, symObjAddr: 0x376E0, symBinAddr: 0x100143CE0, symSize: 0x0 }
  - { offsetInCU: 0x42A5, offset: 0x42A5, size: 0x8, addend: 0x0, symName: __ZN5iplugL10MakeConfigEii, symObjAddr: 0x57C, symBinAddr: 0x1000096A4, symSize: 0xD4 }
  - { offsetInCU: 0x42E2, offset: 0x42E2, size: 0x8, addend: 0x0, symName: __ZN5iplugL7DBToAmpEd, symObjAddr: 0x3370, symBinAddr: 0x10000C498, symSize: 0x30 }
  - { offsetInCU: 0x430E, offset: 0x430E, size: 0x8, addend: 0x0, symName: __ZN5iplug4ClipIdEET_S1_S1_S1_, symObjAddr: 0x4538, symBinAddr: 0x10000D660, symSize: 0x44 }
  - { offsetInCU: 0x435F, offset: 0x435F, size: 0x8, addend: 0x0, symName: __ZN5iplugL5TraceEPKciS1_z, symObjAddr: 0x4790, symBinAddr: 0x10000D8B8, symSize: 0x18 }
  - { offsetInCU: 0x43A8, offset: 0x43A8, size: 0x8, addend: 0x0, symName: __ZN5iplug4ClipIiEET_S1_S1_S1_, symObjAddr: 0x74A4, symBinAddr: 0x1000105CC, symSize: 0x4C }
  - { offsetInCU: 0x49AE, offset: 0x49AE, size: 0x8, addend: 0x0, symName: __ZN10WDL_String3GetEv, symObjAddr: 0x34D4, symBinAddr: 0x10000C5FC, symSize: 0x60 }
  - { offsetInCU: 0x49D1, offset: 0x49D1, size: 0x8, addend: 0x0, symName: __ZZN10WDL_String3GetEvE1c, symObjAddr: 0x386F0, symBinAddr: 0x1001697F0, symSize: 0x0 }
  - { offsetInCU: 0x49FF, offset: 0x49FF, size: 0x8, addend: 0x0, symName: __ZL19wdl_base64_alphabet, symObjAddr: 0x3716A, symBinAddr: 0x1001437FA, symSize: 0x0 }
  - { offsetInCU: 0x4A1E, offset: 0x4A1E, size: 0x8, addend: 0x0, symName: __ZN8nlohmann16json_abi_v3_11_26detail12static_constINS1_10to_json_fnEE5valueE, symObjAddr: 0x37313, symBinAddr: 0x100143933, symSize: 0x0 }
  - { offsetInCU: 0x5F77, offset: 0x5F77, size: 0x8, addend: 0x0, symName: __ZN8nlohmann16json_abi_v3_11_26detail13input_adapterIPKcLi0EEENS1_22iterator_input_adapterIS4_EET_, symObjAddr: 0x7ECC, symBinAddr: 0x100010FF4, symSize: 0x54 }
  - { offsetInCU: 0x6125, offset: 0x6125, size: 0x8, addend: 0x0, symName: __ZN8nlohmann16json_abi_v3_11_26detail6concatINSt3__112basic_stringIcNS3_11char_traitsIcEENS3_9allocatorIcEEEEJS9_S9_RKS9_EEET_DpOT0_, symObjAddr: 0xAD48, symBinAddr: 0x100013E70, symSize: 0xD8 }
  - { offsetInCU: 0x619F, offset: 0x619F, size: 0x8, addend: 0x0, symName: __ZN8nlohmann16json_abi_v3_11_26detail13concat_lengthINSt3__112basic_stringIcNS3_11char_traitsIcEENS3_9allocatorIcEEEEJS9_RKS9_EEEmRKT_DpOT0_, symObjAddr: 0xAF64, symBinAddr: 0x10001408C, symSize: 0x48 }
  - { offsetInCU: 0x6204, offset: 0x6204, size: 0x8, addend: 0x0, symName: __ZN8nlohmann16json_abi_v3_11_26detail11concat_intoINSt3__112basic_stringIcNS3_11char_traitsIcEENS3_9allocatorIcEEEES9_JS9_RKS9_ELi0EEEvRT_OT0_DpOT1_, symObjAddr: 0xAFAC, symBinAddr: 0x1000140D4, symSize: 0x44 }
  - { offsetInCU: 0x6283, offset: 0x6283, size: 0x8, addend: 0x0, symName: __ZN8nlohmann16json_abi_v3_11_26detail13concat_lengthINSt3__112basic_stringIcNS3_11char_traitsIcEENS3_9allocatorIcEEEEJRKS9_EEEmRKT_DpOT0_, symObjAddr: 0xB158, symBinAddr: 0x100014280, symSize: 0x40 }
  - { offsetInCU: 0x62D4, offset: 0x62D4, size: 0x8, addend: 0x0, symName: __ZN8nlohmann16json_abi_v3_11_26detail13concat_lengthINSt3__112basic_stringIcNS3_11char_traitsIcEENS3_9allocatorIcEEEEJEEEmRKT_DpOT0_, symObjAddr: 0xB198, symBinAddr: 0x1000142C0, symSize: 0x38 }
  - { offsetInCU: 0x6310, offset: 0x6310, size: 0x8, addend: 0x0, symName: __ZN8nlohmann16json_abi_v3_11_26detail13concat_lengthEv, symObjAddr: 0xB1D0, symBinAddr: 0x1000142F8, symSize: 0x8 }
  - { offsetInCU: 0x632E, offset: 0x632E, size: 0x8, addend: 0x0, symName: __ZN8nlohmann16json_abi_v3_11_26detail11concat_intoINSt3__112basic_stringIcNS3_11char_traitsIcEENS3_9allocatorIcEEEES9_JRKS9_ELi0EEEvRT_OT0_DpOT1_, symObjAddr: 0xB224, symBinAddr: 0x10001434C, symSize: 0x3C }
  - { offsetInCU: 0x6399, offset: 0x6399, size: 0x8, addend: 0x0, symName: __ZN8nlohmann16json_abi_v3_11_26detail11concat_intoINSt3__112basic_stringIcNS3_11char_traitsIcEENS3_9allocatorIcEEEERKS9_JELi0EEEvRT_OT0_DpOT1_, symObjAddr: 0xB3C4, symBinAddr: 0x1000144EC, symSize: 0x34 }
  - { offsetInCU: 0x63EF, offset: 0x63EF, size: 0x8, addend: 0x0, symName: __ZN8nlohmann16json_abi_v3_11_26detail11concat_intoINSt3__112basic_stringIcNS3_11char_traitsIcEENS3_9allocatorIcEEEEEEvRT_, symObjAddr: 0xB3F8, symBinAddr: 0x100014520, symSize: 0x10 }
  - { offsetInCU: 0x641E, offset: 0x641E, size: 0x8, addend: 0x0, symName: __ZN8nlohmann16json_abi_v3_11_26detail6concatINSt3__112basic_stringIcNS3_11char_traitsIcEENS3_9allocatorIcEEEEJRA17_KcRKS9_cS9_RA3_SA_EEET_DpOT0_, symObjAddr: 0xB408, symBinAddr: 0x100014530, symSize: 0xF0 }
  - { offsetInCU: 0x64C0, offset: 0x64C0, size: 0x8, addend: 0x0, symName: __ZN8nlohmann16json_abi_v3_11_26detail13concat_lengthIJRKNSt3__112basic_stringIcNS3_11char_traitsIcEENS3_9allocatorIcEEEEcS9_RA3_KcEEEmPSC_DpOT_, symObjAddr: 0xB4F8, symBinAddr: 0x100014620, symSize: 0x58 }
  - { offsetInCU: 0x6544, offset: 0x6544, size: 0x8, addend: 0x0, symName: __ZN8nlohmann16json_abi_v3_11_26detail11concat_intoINSt3__112basic_stringIcNS3_11char_traitsIcEENS3_9allocatorIcEEEERA17_KcJRKS9_cS9_RA3_SA_ELi0EEEvRT_OT0_DpOT1_, symObjAddr: 0xB550, symBinAddr: 0x100014678, symSize: 0x54 }
  - { offsetInCU: 0x65EB, offset: 0x65EB, size: 0x8, addend: 0x0, symName: __ZN8nlohmann16json_abi_v3_11_26detail13concat_lengthINSt3__112basic_stringIcNS3_11char_traitsIcEENS3_9allocatorIcEEEEJcS9_RA3_KcEEEmRKT_DpOT0_, symObjAddr: 0xB5A4, symBinAddr: 0x1000146CC, symSize: 0x54 }
  - { offsetInCU: 0x6664, offset: 0x6664, size: 0x8, addend: 0x0, symName: __ZN8nlohmann16json_abi_v3_11_26detail13concat_lengthIJNSt3__112basic_stringIcNS3_11char_traitsIcEENS3_9allocatorIcEEEERA3_KcEEEmcDpOT_, symObjAddr: 0xB5F8, symBinAddr: 0x100014720, symSize: 0x34 }
  - { offsetInCU: 0x66BC, offset: 0x66BC, size: 0x8, addend: 0x0, symName: __ZN8nlohmann16json_abi_v3_11_26detail13concat_lengthINSt3__112basic_stringIcNS3_11char_traitsIcEENS3_9allocatorIcEEEEJRA3_KcEEEmRKT_DpOT0_, symObjAddr: 0xB62C, symBinAddr: 0x100014754, symSize: 0x40 }
  - { offsetInCU: 0x670D, offset: 0x670D, size: 0x8, addend: 0x0, symName: __ZN8nlohmann16json_abi_v3_11_26detail13concat_lengthIJEEEmPKcDpOT_, symObjAddr: 0xB66C, symBinAddr: 0x100014794, symSize: 0x38 }
  - { offsetInCU: 0x6740, offset: 0x6740, size: 0x8, addend: 0x0, symName: __ZN8nlohmann16json_abi_v3_11_26detail11concat_intoINSt3__112basic_stringIcNS3_11char_traitsIcEENS3_9allocatorIcEEEERKS9_JcS9_RA3_KcELi0EEEvRT_OT0_DpOT1_, symObjAddr: 0xB6A4, symBinAddr: 0x1000147CC, symSize: 0x4C }
  - { offsetInCU: 0x67D3, offset: 0x67D3, size: 0x8, addend: 0x0, symName: __ZN8nlohmann16json_abi_v3_11_26detail11concat_intoINSt3__112basic_stringIcNS3_11char_traitsIcEENS3_9allocatorIcEEEEcJS9_RA3_KcELi0EEEvRT_OT0_DpOT1_, symObjAddr: 0xB6F0, symBinAddr: 0x100014818, symSize: 0x48 }
  - { offsetInCU: 0x6852, offset: 0x6852, size: 0x8, addend: 0x0, symName: __ZN8nlohmann16json_abi_v3_11_26detail11concat_intoINSt3__112basic_stringIcNS3_11char_traitsIcEENS3_9allocatorIcEEEES9_JRA3_KcELi0EEEvRT_OT0_DpOT1_, symObjAddr: 0xB76C, symBinAddr: 0x100014894, symSize: 0x3C }
  - { offsetInCU: 0x68BD, offset: 0x68BD, size: 0x8, addend: 0x0, symName: __ZN8nlohmann16json_abi_v3_11_26detail11concat_intoINSt3__112basic_stringIcNS3_11char_traitsIcEENS3_9allocatorIcEEEERA3_KcJELi0EEEvRT_OT0_DpOT1_, symObjAddr: 0xB7A8, symBinAddr: 0x1000148D0, symSize: 0x34 }
  - { offsetInCU: 0x6913, offset: 0x6913, size: 0x8, addend: 0x0, symName: __ZN8nlohmann16json_abi_v3_11_26detail13input_adapterIPKcEENS1_30iterator_input_adapter_factoryIT_vE12adapter_typeES6_S6_, symObjAddr: 0xED78, symBinAddr: 0x100017EA0, symSize: 0x3C }
  - { offsetInCU: 0x72D0, offset: 0x72D0, size: 0x8, addend: 0x0, symName: __ZN8nlohmann16json_abi_v3_11_26detail6concatINSt3__112basic_stringIcNS3_11char_traitsIcEENS3_9allocatorIcEEEEJRA26_KcS9_cEEET_DpOT0_, symObjAddr: 0x15608, symBinAddr: 0x10001E730, symSize: 0xD8 }
  - { offsetInCU: 0x734A, offset: 0x734A, size: 0x8, addend: 0x0, symName: __ZN8nlohmann16json_abi_v3_11_26detail6concatINSt3__112basic_stringIcNS3_11char_traitsIcEENS3_9allocatorIcEEEEJRA24_KcS9_EEET_DpOT0_, symObjAddr: 0x16130, symBinAddr: 0x10001F258, symSize: 0xCC }
  - { offsetInCU: 0x73B0, offset: 0x73B0, size: 0x8, addend: 0x0, symName: __ZN8nlohmann16json_abi_v3_11_26detail13concat_lengthIJNSt3__112basic_stringIcNS3_11char_traitsIcEENS3_9allocatorIcEEEEEEEmPKcDpOT_, symObjAddr: 0x193C8, symBinAddr: 0x1000224F0, symSize: 0x40 }
  - { offsetInCU: 0x73F8, offset: 0x73F8, size: 0x8, addend: 0x0, symName: __ZN8nlohmann16json_abi_v3_11_26detail11concat_intoINSt3__112basic_stringIcNS3_11char_traitsIcEENS3_9allocatorIcEEEERA24_KcJS9_ELi0EEEvRT_OT0_DpOT1_, symObjAddr: 0x19408, symBinAddr: 0x100022530, symSize: 0x3C }
  - { offsetInCU: 0x7463, offset: 0x7463, size: 0x8, addend: 0x0, symName: __ZN8nlohmann16json_abi_v3_11_26detail11concat_intoINSt3__112basic_stringIcNS3_11char_traitsIcEENS3_9allocatorIcEEEES9_JELi0EEEvRT_OT0_DpOT1_, symObjAddr: 0x19444, symBinAddr: 0x10002256C, symSize: 0x34 }
  - { offsetInCU: 0x752B, offset: 0x752B, size: 0x8, addend: 0x0, symName: __ZN8nlohmann16json_abi_v3_11_26detaileqENS1_20primitive_iterator_tES2_, symObjAddr: 0x2052C, symBinAddr: 0x100029654, symSize: 0x28 }
  - { offsetInCU: 0x760A, offset: 0x760A, size: 0x8, addend: 0x0, symName: __ZN8nlohmann16json_abi_v3_11_26detail6concatINSt3__112basic_stringIcNS3_11char_traitsIcEENS3_9allocatorIcEEEEJRA25_KcPSA_EEET_DpOT0_, symObjAddr: 0x20C74, symBinAddr: 0x100029D9C, symSize: 0xCC }
  - { offsetInCU: 0x7670, offset: 0x7670, size: 0x8, addend: 0x0, symName: __ZN8nlohmann16json_abi_v3_11_26detail13concat_lengthIJPKcEEEmS4_DpOT_, symObjAddr: 0x2200C, symBinAddr: 0x10002B134, symSize: 0x44 }
  - { offsetInCU: 0x76B8, offset: 0x76B8, size: 0x8, addend: 0x0, symName: __ZN8nlohmann16json_abi_v3_11_26detail11concat_intoINSt3__112basic_stringIcNS3_11char_traitsIcEENS3_9allocatorIcEEEERA25_KcJPSA_ELi0EEEvRT_OT0_DpOT1_, symObjAddr: 0x22050, symBinAddr: 0x10002B178, symSize: 0x3C }
  - { offsetInCU: 0x7723, offset: 0x7723, size: 0x8, addend: 0x0, symName: __ZN8nlohmann16json_abi_v3_11_26detail11concat_intoINSt3__112basic_stringIcNS3_11char_traitsIcEENS3_9allocatorIcEEEEPKcJELi0EEEvRT_OT0_DpOT1_, symObjAddr: 0x2208C, symBinAddr: 0x10002B1B4, symSize: 0x38 }
  - { offsetInCU: 0x7779, offset: 0x7779, size: 0x8, addend: 0x0, symName: __ZN8nlohmann16json_abi_v3_11_26detail7to_jsonINS0_10basic_jsonINSt3__13mapENS4_6vectorENS4_12basic_stringIcNS4_11char_traitsIcEENS4_9allocatorIcEEEEbxydSA_NS0_14adl_serializerENS6_IhNSA_IhEEEEEESC_Li0EEEvRT_RKT0_, symObjAddr: 0x224EC, symBinAddr: 0x10002B614, symSize: 0x2C }
  - { offsetInCU: 0x782A, offset: 0x782A, size: 0x8, addend: 0x0, symName: __ZN8nlohmann16json_abi_v3_11_26detail6concatINSt3__112basic_stringIcNS3_11char_traitsIcEENS3_9allocatorIcEEEEJRA23_KcS9_EEET_DpOT0_, symObjAddr: 0x23BC0, symBinAddr: 0x10002CCE8, symSize: 0xCC }
  - { offsetInCU: 0x7890, offset: 0x7890, size: 0x8, addend: 0x0, symName: __ZN8nlohmann16json_abi_v3_11_26detail11concat_intoINSt3__112basic_stringIcNS3_11char_traitsIcEENS3_9allocatorIcEEEERA23_KcJS9_ELi0EEEvRT_OT0_DpOT1_, symObjAddr: 0x23C8C, symBinAddr: 0x10002CDB4, symSize: 0x3C }
  - { offsetInCU: 0x78FB, offset: 0x78FB, size: 0x8, addend: 0x0, symName: __ZN8nlohmann16json_abi_v3_11_26detail13concat_lengthIJNSt3__112basic_stringIcNS3_11char_traitsIcEENS3_9allocatorIcEEEEcEEEmPKcDpOT_, symObjAddr: 0x23DDC, symBinAddr: 0x10002CF04, symSize: 0x48 }
  - { offsetInCU: 0x7957, offset: 0x7957, size: 0x8, addend: 0x0, symName: __ZN8nlohmann16json_abi_v3_11_26detail11concat_intoINSt3__112basic_stringIcNS3_11char_traitsIcEENS3_9allocatorIcEEEERA26_KcJS9_cELi0EEEvRT_OT0_DpOT1_, symObjAddr: 0x23E24, symBinAddr: 0x10002CF4C, symSize: 0x44 }
  - { offsetInCU: 0x79D6, offset: 0x79D6, size: 0x8, addend: 0x0, symName: __ZN8nlohmann16json_abi_v3_11_26detail13concat_lengthINSt3__112basic_stringIcNS3_11char_traitsIcEENS3_9allocatorIcEEEEJcEEEmRKT_DpOT0_, symObjAddr: 0x23E68, symBinAddr: 0x10002CF90, symSize: 0x44 }
  - { offsetInCU: 0x7A27, offset: 0x7A27, size: 0x8, addend: 0x0, symName: __ZN8nlohmann16json_abi_v3_11_26detail13concat_lengthIJEEEmcDpOT_, symObjAddr: 0x23EAC, symBinAddr: 0x10002CFD4, symSize: 0x24 }
  - { offsetInCU: 0x7A56, offset: 0x7A56, size: 0x8, addend: 0x0, symName: __ZN8nlohmann16json_abi_v3_11_26detail11concat_intoINSt3__112basic_stringIcNS3_11char_traitsIcEENS3_9allocatorIcEEEES9_JcELi0EEEvRT_OT0_DpOT1_, symObjAddr: 0x23ED0, symBinAddr: 0x10002CFF8, symSize: 0x3C }
  - { offsetInCU: 0x7AC1, offset: 0x7AC1, size: 0x8, addend: 0x0, symName: __ZN8nlohmann16json_abi_v3_11_26detail11concat_intoINSt3__112basic_stringIcNS3_11char_traitsIcEENS3_9allocatorIcEEEEcJELi0EEEvRT_OT0_DpOT1_, symObjAddr: 0x23F0C, symBinAddr: 0x10002D034, symSize: 0x38 }
  - { offsetInCU: 0x7B17, offset: 0x7B17, size: 0x8, addend: 0x0, symName: __ZN8nlohmann16json_abi_v3_11_26detail7to_jsonINS0_10basic_jsonINSt3__13mapENS4_6vectorENS4_12basic_stringIcNS4_11char_traitsIcEENS4_9allocatorIcEEEEbxydSA_NS0_14adl_serializerENS6_IhNSA_IhEEEEEEdLi0EEEvRT_T0_, symObjAddr: 0x2453C, symBinAddr: 0x10002D664, symSize: 0x2C }
  - { offsetInCU: 0x7B99, offset: 0x7B99, size: 0x8, addend: 0x0, symName: __ZN8nlohmann16json_abi_v3_11_26detail7to_jsonINS0_10basic_jsonINSt3__13mapENS4_6vectorENS4_12basic_stringIcNS4_11char_traitsIcEENS4_9allocatorIcEEEEbxydSA_NS0_14adl_serializerENS6_IhNSA_IhEEEEEEbLi0EEEvRT_T0_, symObjAddr: 0x24BA8, symBinAddr: 0x10002DCD0, symSize: 0x38 }
  - { offsetInCU: 0x7C1B, offset: 0x7C1B, size: 0x8, addend: 0x0, symName: __ZN8nlohmann16json_abi_v3_11_26detail7to_jsonINS0_10basic_jsonINSt3__13mapENS4_6vectorENS4_12basic_stringIcNS4_11char_traitsIcEENS4_9allocatorIcEEEEbxydSA_NS0_14adl_serializerENS6_IhNSA_IhEEEEEExLi0EEEvRT_T0_, symObjAddr: 0x25704, symBinAddr: 0x10002E82C, symSize: 0x2C }
  - { offsetInCU: 0x7C9D, offset: 0x7C9D, size: 0x8, addend: 0x0, symName: __ZN8nlohmann16json_abi_v3_11_26detail7to_jsonINS0_10basic_jsonINSt3__13mapENS4_6vectorENS4_12basic_stringIcNS4_11char_traitsIcEENS4_9allocatorIcEEEEbxydSA_NS0_14adl_serializerENS6_IhNSA_IhEEEEEEyLi0EEEvRT_T0_, symObjAddr: 0x26248, symBinAddr: 0x10002F370, symSize: 0x2C }
  - { offsetInCU: 0x7D1F, offset: 0x7D1F, size: 0x8, addend: 0x0, symName: __ZN8nlohmann16json_abi_v3_11_26detail6concatINSt3__112basic_stringIcNS3_11char_traitsIcEENS3_9allocatorIcEEEEJS9_RA12_KcS9_RA3_SA_S9_RKS9_EEET_DpOT0_, symObjAddr: 0x265B4, symBinAddr: 0x10002F6DC, symSize: 0xFC }
  - { offsetInCU: 0x7DD5, offset: 0x7DD5, size: 0x8, addend: 0x0, symName: __ZN8nlohmann16json_abi_v3_11_26detail13concat_lengthINSt3__112basic_stringIcNS3_11char_traitsIcEENS3_9allocatorIcEEEEJRA12_KcS9_RA3_SA_S9_RKS9_EEEmRKT_DpOT0_, symObjAddr: 0x267B0, symBinAddr: 0x10002F8D8, symSize: 0x60 }
  - { offsetInCU: 0x7E76, offset: 0x7E76, size: 0x8, addend: 0x0, symName: __ZN8nlohmann16json_abi_v3_11_26detail11concat_intoINSt3__112basic_stringIcNS3_11char_traitsIcEENS3_9allocatorIcEEEES9_JRA12_KcS9_RA3_SA_S9_RKS9_ELi0EEEvRT_OT0_DpOT1_, symObjAddr: 0x26810, symBinAddr: 0x10002F938, symSize: 0x5C }
  - { offsetInCU: 0x7F31, offset: 0x7F31, size: 0x8, addend: 0x0, symName: __ZN8nlohmann16json_abi_v3_11_26detail13concat_lengthIJNSt3__112basic_stringIcNS3_11char_traitsIcEENS3_9allocatorIcEEEERA3_KcS9_RKS9_EEEmPSA_DpOT_, symObjAddr: 0x2686C, symBinAddr: 0x10002F994, symSize: 0x58 }
  - { offsetInCU: 0x7FB5, offset: 0x7FB5, size: 0x8, addend: 0x0, symName: __ZN8nlohmann16json_abi_v3_11_26detail13concat_lengthINSt3__112basic_stringIcNS3_11char_traitsIcEENS3_9allocatorIcEEEEJRA3_KcS9_RKS9_EEEmRKT_DpOT0_, symObjAddr: 0x268C4, symBinAddr: 0x10002F9EC, symSize: 0x50 }
  - { offsetInCU: 0x802E, offset: 0x802E, size: 0x8, addend: 0x0, symName: __ZN8nlohmann16json_abi_v3_11_26detail13concat_lengthIJNSt3__112basic_stringIcNS3_11char_traitsIcEENS3_9allocatorIcEEEERKS9_EEEmPKcDpOT_, symObjAddr: 0x26914, symBinAddr: 0x10002FA3C, symSize: 0x48 }
  - { offsetInCU: 0x808A, offset: 0x808A, size: 0x8, addend: 0x0, symName: __ZN8nlohmann16json_abi_v3_11_26detail11concat_intoINSt3__112basic_stringIcNS3_11char_traitsIcEENS3_9allocatorIcEEEERA12_KcJS9_RA3_SA_S9_RKS9_ELi0EEEvRT_OT0_DpOT1_, symObjAddr: 0x2695C, symBinAddr: 0x10002FA84, symSize: 0x54 }
  - { offsetInCU: 0x8131, offset: 0x8131, size: 0x8, addend: 0x0, symName: __ZN8nlohmann16json_abi_v3_11_26detail11concat_intoINSt3__112basic_stringIcNS3_11char_traitsIcEENS3_9allocatorIcEEEES9_JRA3_KcS9_RKS9_ELi0EEEvRT_OT0_DpOT1_, symObjAddr: 0x269B0, symBinAddr: 0x10002FAD8, symSize: 0x4C }
  - { offsetInCU: 0x81C4, offset: 0x81C4, size: 0x8, addend: 0x0, symName: __ZN8nlohmann16json_abi_v3_11_26detail11concat_intoINSt3__112basic_stringIcNS3_11char_traitsIcEENS3_9allocatorIcEEEERA3_KcJS9_RKS9_ELi0EEEvRT_OT0_DpOT1_, symObjAddr: 0x269FC, symBinAddr: 0x10002FB24, symSize: 0x44 }
  - { offsetInCU: 0x8243, offset: 0x8243, size: 0x8, addend: 0x0, symName: __ZN8nlohmann16json_abi_v3_11_26detail6concatINSt3__112basic_stringIcNS3_11char_traitsIcEENS3_9allocatorIcEEEEJRA10_KcS9_SC_S9_EEET_DpOT0_, symObjAddr: 0x26A40, symBinAddr: 0x10002FB68, symSize: 0xE4 }
  - { offsetInCU: 0x82D1, offset: 0x82D1, size: 0x8, addend: 0x0, symName: __ZN8nlohmann16json_abi_v3_11_26detail13concat_lengthIJNSt3__112basic_stringIcNS3_11char_traitsIcEENS3_9allocatorIcEEEERA10_KcS9_EEEmPSA_DpOT_, symObjAddr: 0x26B24, symBinAddr: 0x10002FC4C, symSize: 0x50 }
  - { offsetInCU: 0x8341, offset: 0x8341, size: 0x8, addend: 0x0, symName: __ZN8nlohmann16json_abi_v3_11_26detail11concat_intoINSt3__112basic_stringIcNS3_11char_traitsIcEENS3_9allocatorIcEEEERA10_KcJS9_SC_S9_ELi0EEEvRT_OT0_DpOT1_, symObjAddr: 0x26B74, symBinAddr: 0x10002FC9C, symSize: 0x4C }
  - { offsetInCU: 0x83D4, offset: 0x83D4, size: 0x8, addend: 0x0, symName: __ZN8nlohmann16json_abi_v3_11_26detail13concat_lengthINSt3__112basic_stringIcNS3_11char_traitsIcEENS3_9allocatorIcEEEEJRA10_KcS9_EEEmRKT_DpOT0_, symObjAddr: 0x26BC0, symBinAddr: 0x10002FCE8, symSize: 0x48 }
  - { offsetInCU: 0x8439, offset: 0x8439, size: 0x8, addend: 0x0, symName: __ZN8nlohmann16json_abi_v3_11_26detail11concat_intoINSt3__112basic_stringIcNS3_11char_traitsIcEENS3_9allocatorIcEEEES9_JRA10_KcS9_ELi0EEEvRT_OT0_DpOT1_, symObjAddr: 0x26C08, symBinAddr: 0x10002FD30, symSize: 0x44 }
  - { offsetInCU: 0x84B8, offset: 0x84B8, size: 0x8, addend: 0x0, symName: __ZN8nlohmann16json_abi_v3_11_26detail11concat_intoINSt3__112basic_stringIcNS3_11char_traitsIcEENS3_9allocatorIcEEEERA10_KcJS9_ELi0EEEvRT_OT0_DpOT1_, symObjAddr: 0x26C4C, symBinAddr: 0x10002FD74, symSize: 0x3C }
  - { offsetInCU: 0x8523, offset: 0x8523, size: 0x8, addend: 0x0, symName: __ZN8nlohmann16json_abi_v3_11_26detail6concatINSt3__112basic_stringIcNS3_11char_traitsIcEENS3_9allocatorIcEEEEJRA15_KcRKS9_cEEET_DpOT0_, symObjAddr: 0x26D18, symBinAddr: 0x10002FE40, symSize: 0xD8 }
  - { offsetInCU: 0x859D, offset: 0x859D, size: 0x8, addend: 0x0, symName: __ZN8nlohmann16json_abi_v3_11_26detail6concatINSt3__112basic_stringIcNS3_11char_traitsIcEENS3_9allocatorIcEEEEJPKcRA15_SA_S9_cEEET_DpOT0_, symObjAddr: 0x26E1C, symBinAddr: 0x10002FF44, symSize: 0xE8 }
  - { offsetInCU: 0x862B, offset: 0x862B, size: 0x8, addend: 0x0, symName: __ZN8nlohmann16json_abi_v3_11_26detail6concatINSt3__112basic_stringIcNS3_11char_traitsIcEENS3_9allocatorIcEEEEJRA12_KcPSA_EEET_DpOT0_, symObjAddr: 0x26F1C, symBinAddr: 0x100030044, symSize: 0xCC }
  - { offsetInCU: 0x8691, offset: 0x8691, size: 0x8, addend: 0x0, symName: __ZN8nlohmann16json_abi_v3_11_26detail13concat_lengthIJRKNSt3__112basic_stringIcNS3_11char_traitsIcEENS3_9allocatorIcEEEEcEEEmPKcDpOT_, symObjAddr: 0x27174, symBinAddr: 0x10003029C, symSize: 0x48 }
  - { offsetInCU: 0x86ED, offset: 0x86ED, size: 0x8, addend: 0x0, symName: __ZN8nlohmann16json_abi_v3_11_26detail11concat_intoINSt3__112basic_stringIcNS3_11char_traitsIcEENS3_9allocatorIcEEEERA15_KcJRKS9_cELi0EEEvRT_OT0_DpOT1_, symObjAddr: 0x271BC, symBinAddr: 0x1000302E4, symSize: 0x44 }
  - { offsetInCU: 0x876C, offset: 0x876C, size: 0x8, addend: 0x0, symName: __ZN8nlohmann16json_abi_v3_11_26detail11concat_intoINSt3__112basic_stringIcNS3_11char_traitsIcEENS3_9allocatorIcEEEERKS9_JcELi0EEEvRT_OT0_DpOT1_, symObjAddr: 0x27200, symBinAddr: 0x100030328, symSize: 0x3C }
  - { offsetInCU: 0x87D7, offset: 0x87D7, size: 0x8, addend: 0x0, symName: __ZN8nlohmann16json_abi_v3_11_26detail13concat_lengthIJRA15_KcNSt3__112basic_stringIcNS6_11char_traitsIcEENS6_9allocatorIcEEEEcEEEmPS3_DpOT_, symObjAddr: 0x2723C, symBinAddr: 0x100030364, symSize: 0x50 }
  - { offsetInCU: 0x8847, offset: 0x8847, size: 0x8, addend: 0x0, symName: __ZN8nlohmann16json_abi_v3_11_26detail11concat_intoINSt3__112basic_stringIcNS3_11char_traitsIcEENS3_9allocatorIcEEEEPKcJRA15_SA_S9_cELi0EEEvRT_OT0_DpOT1_, symObjAddr: 0x2728C, symBinAddr: 0x1000303B4, symSize: 0x50 }
  - { offsetInCU: 0x88DA, offset: 0x88DA, size: 0x8, addend: 0x0, symName: __ZN8nlohmann16json_abi_v3_11_26detail11concat_intoINSt3__112basic_stringIcNS3_11char_traitsIcEENS3_9allocatorIcEEEERA15_KcJS9_cELi0EEEvRT_OT0_DpOT1_, symObjAddr: 0x272DC, symBinAddr: 0x100030404, symSize: 0x44 }
  - { offsetInCU: 0x8959, offset: 0x8959, size: 0x8, addend: 0x0, symName: __ZN8nlohmann16json_abi_v3_11_26detail11concat_intoINSt3__112basic_stringIcNS3_11char_traitsIcEENS3_9allocatorIcEEEERA12_KcJPSA_ELi0EEEvRT_OT0_DpOT1_, symObjAddr: 0x27320, symBinAddr: 0x100030448, symSize: 0x3C }
  - { offsetInCU: 0x89C4, offset: 0x89C4, size: 0x8, addend: 0x0, symName: __ZN8nlohmann16json_abi_v3_11_26detail7to_jsonINS0_10basic_jsonINSt3__13mapENS4_6vectorENS4_12basic_stringIcNS4_11char_traitsIcEENS4_9allocatorIcEEEEbxydSA_NS0_14adl_serializerENS6_IhNSA_IhEEEEEEPKcLi0EEEvRT_RKT0_, symObjAddr: 0x2B358, symBinAddr: 0x100034480, symSize: 0x2C }
  - { offsetInCU: 0x8A15, offset: 0x8A15, size: 0x8, addend: 0x0, symName: __ZN8nlohmann16json_abi_v3_11_26detail6concatINSt3__112basic_stringIcNS3_11char_traitsIcEENS3_9allocatorIcEEEEJRA51_KcPSA_EEET_DpOT0_, symObjAddr: 0x2BAEC, symBinAddr: 0x100034C14, symSize: 0xCC }
  - { offsetInCU: 0x8A7B, offset: 0x8A7B, size: 0x8, addend: 0x0, symName: __ZN8nlohmann16json_abi_v3_11_26detail11concat_intoINSt3__112basic_stringIcNS3_11char_traitsIcEENS3_9allocatorIcEEEERA51_KcJPSA_ELi0EEEvRT_OT0_DpOT1_, symObjAddr: 0x2C054, symBinAddr: 0x10003517C, symSize: 0x3C }
  - { offsetInCU: 0x8AFB, offset: 0x8AFB, size: 0x8, addend: 0x0, symName: __ZN8nlohmann16json_abi_v3_11_26detail9from_jsonINS0_10basic_jsonINSt3__13mapENS4_6vectorENS4_12basic_stringIcNS4_11char_traitsIcEENS4_9allocatorIcEEEEbxydSA_NS0_14adl_serializerENS6_IhNSA_IhEEEEEEiLi0EEEvRKT_RT0_, symObjAddr: 0x2C148, symBinAddr: 0x100035270, symSize: 0x1A0 }
  - { offsetInCU: 0x8B4C, offset: 0x8B4C, size: 0x8, addend: 0x0, symName: __ZN8nlohmann16json_abi_v3_11_26detail6concatINSt3__112basic_stringIcNS3_11char_traitsIcEENS3_9allocatorIcEEEEJRA29_KcPSA_EEET_DpOT0_, symObjAddr: 0x2C4F8, symBinAddr: 0x100035620, symSize: 0xCC }
  - { offsetInCU: 0x8BB2, offset: 0x8BB2, size: 0x8, addend: 0x0, symName: __ZN8nlohmann16json_abi_v3_11_26detail11concat_intoINSt3__112basic_stringIcNS3_11char_traitsIcEENS3_9allocatorIcEEEERA29_KcJPSA_ELi0EEEvRT_OT0_DpOT1_, symObjAddr: 0x2C75C, symBinAddr: 0x100035884, symSize: 0x3C }
  - { offsetInCU: 0x8C1D, offset: 0x8C1D, size: 0x8, addend: 0x0, symName: __ZN8nlohmann16json_abi_v3_11_26detail9from_jsonINS0_10basic_jsonINSt3__13mapENS4_6vectorENS4_12basic_stringIcNS4_11char_traitsIcEENS4_9allocatorIcEEEEbxydSA_NS0_14adl_serializerENS6_IhNSA_IhEEEEEEEEvRKT_RNSH_14number_float_tE, symObjAddr: 0x2C854, symBinAddr: 0x10003597C, symSize: 0x2C }
  - { offsetInCU: 0x8C5F, offset: 0x8C5F, size: 0x8, addend: 0x0, symName: __ZN8nlohmann16json_abi_v3_11_26detail20get_arithmetic_valueINS0_10basic_jsonINSt3__13mapENS4_6vectorENS4_12basic_stringIcNS4_11char_traitsIcEENS4_9allocatorIcEEEEbxydSA_NS0_14adl_serializerENS6_IhNSA_IhEEEEEEdLi0EEEvRKT_RT0_, symObjAddr: 0x2C880, symBinAddr: 0x1000359A8, symSize: 0x188 }
  - { offsetInCU: 0x8CB0, offset: 0x8CB0, size: 0x8, addend: 0x0, symName: __ZN8nlohmann16json_abi_v3_11_26detail9from_jsonINS0_10basic_jsonINSt3__13mapENS4_6vectorENS4_12basic_stringIcNS4_11char_traitsIcEENS4_9allocatorIcEEEEbxydSA_NS0_14adl_serializerENS6_IhNSA_IhEEEEEEEEvRKT_RNSH_8string_tE, symObjAddr: 0x2CFDC, symBinAddr: 0x100036104, symSize: 0x118 }
  - { offsetInCU: 0x8CF2, offset: 0x8CF2, size: 0x8, addend: 0x0, symName: __ZN8nlohmann16json_abi_v3_11_26detail9from_jsonINS0_10basic_jsonINSt3__13mapENS4_6vectorENS4_12basic_stringIcNS4_11char_traitsIcEENS4_9allocatorIcEEEEbxydSA_NS0_14adl_serializerENS6_IhNSA_IhEEEEEEhLi0EEEvRKT_RT0_, symObjAddr: 0x2E3F0, symBinAddr: 0x100037518, symSize: 0x1A0 }
  - { offsetInCU: 0xA921, offset: 0xA921, size: 0x8, addend: 0x0, symName: __ZN8nlohmann16json_abi_v3_11_2eqIPKcLi0EEEbRKNS0_10basic_jsonINSt3__13mapENS5_6vectorENS5_12basic_stringIcNS5_11char_traitsIcEENS5_9allocatorIcEEEEbxydSB_NS0_14adl_serializerENS7_IhNSB_IhEEEEEET_, symObjAddr: 0x782C, symBinAddr: 0x100010954, symSize: 0x68 }
  - { offsetInCU: 0xAAF5, offset: 0xAAF5, size: 0x8, addend: 0x0, symName: __ZN8nlohmann16json_abi_v3_11_2eqERKNS0_10basic_jsonINSt3__13mapENS2_6vectorENS2_12basic_stringIcNS2_11char_traitsIcEENS2_9allocatorIcEEEEbxydS8_NS0_14adl_serializerENS4_IhNS8_IhEEEEEESG_, symObjAddr: 0x29D74, symBinAddr: 0x100032E9C, symSize: 0x470 }
  - { offsetInCU: 0xAC27, offset: 0xAC27, size: 0x8, addend: 0x0, symName: __ZNSt3__1L19piecewise_constructE, symObjAddr: 0x37314, symBinAddr: 0x100143934, symSize: 0x0 }
  - { offsetInCU: 0x10FB6, offset: 0x10FB6, size: 0x8, addend: 0x0, symName: '__ZNSt3__110__function10__not_nullB7v160006IZN8ICabbageC1ERKN5iplug12InstanceInfoEE3$_0EEbRKT_', symObjAddr: 0x2EBE8, symBinAddr: 0x100037D10, symSize: 0x18 }
  - { offsetInCU: 0x10FE9, offset: 0x10FE9, size: 0x8, addend: 0x0, symName: '__ZNSt3__110__function10__not_nullB7v160006IZN8ICabbageC1ERKN5iplug12InstanceInfoEE3$_1EEbRKT_', symObjAddr: 0x30A70, symBinAddr: 0x100039B98, symSize: 0x18 }
  - { offsetInCU: 0x237FB, offset: 0x237FB, size: 0x8, addend: 0x0, symName: __ZNSt3__117__cxx_atomic_loadB7v160006IdEET_PKNS_22__cxx_atomic_base_implIS1_EENS_12memory_orderE, symObjAddr: 0x33CC, symBinAddr: 0x10000C4F4, symSize: 0x80 }
  - { offsetInCU: 0x23AFC, offset: 0x23AFC, size: 0x8, addend: 0x0, symName: __ZNSt3__117__cxx_atomic_loadB7v160006ImEET_PKNS_22__cxx_atomic_base_implIS1_EENS_12memory_orderE, symObjAddr: 0x70E8, symBinAddr: 0x100010210, symSize: 0x80 }
  - { offsetInCU: 0x23B65, offset: 0x23B65, size: 0x8, addend: 0x0, symName: __ZNSt3__17advanceB7v160006IPKciivEEvRT_T0_, symObjAddr: 0xE224, symBinAddr: 0x10001734C, symSize: 0x58 }
  - { offsetInCU: 0x250FD, offset: 0x250FD, size: 0x8, addend: 0x0, symName: __ZNSt3__114__copy_alignedB7v160006INS_6vectorIbNS_9allocatorIbEEEELb0EEENS_14__bit_iteratorIT_Lb0EXLi0EEEENS5_IS6_XT0_EXLi0EEEES8_S7_, symObjAddr: 0x133EC, symBinAddr: 0x10001C514, symSize: 0x278 }
  - { offsetInCU: 0x2522E, offset: 0x2522E, size: 0x8, addend: 0x0, symName: __ZNSt3__16copy_nB7v160006IPmmS1_EENS_9enable_ifIXsr33__is_cpp17_random_access_iteratorIT_EE5valueET1_E4typeES3_T0_S4_, symObjAddr: 0x13BD0, symBinAddr: 0x10001CCF8, symSize: 0x44 }
  - { offsetInCU: 0x252D6, offset: 0x252D6, size: 0x8, addend: 0x0, symName: __ZNSt3__116__copy_unalignedB7v160006INS_6vectorIbNS_9allocatorIbEEEELb0EEENS_14__bit_iteratorIT_Lb0EXLi0EEEENS5_IS6_XT0_EXLi0EEEES8_S7_, symObjAddr: 0x13664, symBinAddr: 0x10001C78C, symSize: 0x540 }
  - { offsetInCU: 0x27241, offset: 0x27241, size: 0x8, addend: 0x0, symName: __ZNSt3__17advanceB7v160006INS_21__tree_const_iteratorINS_12__value_typeINS_12basic_stringIcNS_11char_traitsIcEENS_9allocatorIcEEEEN8nlohmann16json_abi_v3_11_210basic_jsonINS_3mapENS_6vectorES8_bxydS6_NSA_14adl_serializerENSD_IhNS6_IhEEEEEEEEPNS_11__tree_nodeISI_PvEElEEllvEEvRT_T0_, symObjAddr: 0x1BC48, symBinAddr: 0x100024D70, symSize: 0x50 }
  - { offsetInCU: 0x27905, offset: 0x27905, size: 0x8, addend: 0x0, symName: __ZNSt3__17advanceB7v160006INS_14__map_iteratorINS_15__tree_iteratorINS_12__value_typeINS_12basic_stringIcNS_11char_traitsIcEENS_9allocatorIcEEEEN8nlohmann16json_abi_v3_11_210basic_jsonINS_3mapENS_6vectorES9_bxydS7_NSB_14adl_serializerENSE_IhNS7_IhEEEEEEEEPNS_11__tree_nodeISJ_PvEElEEEEiivEEvRT_T0_, symObjAddr: 0x22128, symBinAddr: 0x10002B250, symSize: 0x58 }
  - { offsetInCU: 0x27999, offset: 0x27999, size: 0x8, addend: 0x0, symName: __ZNSt3__17advanceB7v160006INS_11__wrap_iterIPN8nlohmann16json_abi_v3_11_210basic_jsonINS_3mapENS_6vectorENS_12basic_stringIcNS_11char_traitsIcEENS_9allocatorIcEEEEbxydSA_NS3_14adl_serializerENS6_IhNSA_IhEEEEEEEEiivEEvRT_T0_, symObjAddr: 0x22180, symBinAddr: 0x10002B2A8, symSize: 0x58 }
  - { offsetInCU: 0x2E517, offset: 0x2E517, size: 0x8, addend: 0x0, symName: __ZNSt3__124__put_character_sequenceB7v160006IcNS_11char_traitsIcEEEERNS_13basic_ostreamIT_T0_EES7_PKS4_m, symObjAddr: 0x327F4, symBinAddr: 0x10003B91C, symSize: 0x1EC }
  - { offsetInCU: 0x2F733, offset: 0x2F733, size: 0x8, addend: 0x0, symName: __ZNSt3__13minB7v160006IdEERKT_S3_S3_, symObjAddr: 0x4624, symBinAddr: 0x10000D74C, symSize: 0x2C }
  - { offsetInCU: 0x2F776, offset: 0x2F776, size: 0x8, addend: 0x0, symName: __ZNSt3__13maxB7v160006IdEERKT_S3_S3_, symObjAddr: 0x4650, symBinAddr: 0x10000D778, symSize: 0x2C }
  - { offsetInCU: 0x2F7B9, offset: 0x2F7B9, size: 0x8, addend: 0x0, symName: __ZNSt3__13minB7v160006IdNS_6__lessIddEEEERKT_S5_S5_T0_, symObjAddr: 0x467C, symBinAddr: 0x10000D7A4, symSize: 0x54 }
  - { offsetInCU: 0x2F84E, offset: 0x2F84E, size: 0x8, addend: 0x0, symName: __ZNSt3__13maxB7v160006IdNS_6__lessIddEEEERKT_S5_S5_T0_, symObjAddr: 0x4704, symBinAddr: 0x10000D82C, symSize: 0x54 }
  - { offsetInCU: 0x2F8A9, offset: 0x2F8A9, size: 0x8, addend: 0x0, symName: __ZNSt3__119__debug_db_insert_cB7v160006INS_6vectorIcNS_9allocatorIcEEEEEEvPT_, symObjAddr: 0x4D10, symBinAddr: 0x10000DE38, symSize: 0x10 }
  - { offsetInCU: 0x2F8DB, offset: 0x2F8DB, size: 0x8, addend: 0x0, symName: __ZNSt3__112__to_addressB7v160006IcEEPT_S2_, symObjAddr: 0x5410, symBinAddr: 0x10000E538, symSize: 0x14 }
  - { offsetInCU: 0x2F910, offset: 0x2F910, size: 0x8, addend: 0x0, symName: __ZNSt3__13maxB7v160006ImEERKT_S3_S3_, symObjAddr: 0x55BC, symBinAddr: 0x10000E6E4, symSize: 0x2C }
  - { offsetInCU: 0x2F953, offset: 0x2F953, size: 0x8, addend: 0x0, symName: __ZNSt3__13minB7v160006ImEERKT_S3_S3_, symObjAddr: 0x55E8, symBinAddr: 0x10000E710, symSize: 0x2C }
  - { offsetInCU: 0x2FB97, offset: 0x2FB97, size: 0x8, addend: 0x0, symName: __ZNSt3__13minB7v160006ImNS_6__lessImmEEEERKT_S5_S5_T0_, symObjAddr: 0x5674, symBinAddr: 0x10000E79C, symSize: 0x54 }
  - { offsetInCU: 0x2FC2D, offset: 0x2FC2D, size: 0x8, addend: 0x0, symName: __ZNSt3__120__throw_length_errorB7v160006EPKc, symObjAddr: 0x5750, symBinAddr: 0x10000E878, symSize: 0x64 }
  - { offsetInCU: 0x2FC55, offset: 0x2FC55, size: 0x8, addend: 0x0, symName: __ZNSt3__13maxB7v160006ImNS_6__lessImmEEEERKT_S5_S5_T0_, symObjAddr: 0x5894, symBinAddr: 0x10000E9BC, symSize: 0x54 }
  - { offsetInCU: 0x2FCAF, offset: 0x2FCAF, size: 0x8, addend: 0x0, symName: __ZNSt3__119__allocate_at_leastB7v160006INS_9allocatorIcEEEENS_19__allocation_resultINS_16allocator_traitsIT_E7pointerEEERS5_m, symObjAddr: 0x59F8, symBinAddr: 0x10000EB20, symSize: 0x40 }
  - { offsetInCU: 0x2FCF2, offset: 0x2FCF2, size: 0x8, addend: 0x0, symName: __ZNSt3__117__libcpp_allocateB7v160006Emm, symObjAddr: 0x5B7C, symBinAddr: 0x10000ECA4, symSize: 0x60 }
  - { offsetInCU: 0x2FD4D, offset: 0x2FD4D, size: 0x8, addend: 0x0, symName: __ZNSt3__124__is_overaligned_for_newB7v160006Em, symObjAddr: 0x5BDC, symBinAddr: 0x10000ED04, symSize: 0x20 }
  - { offsetInCU: 0x2FD7B, offset: 0x2FD7B, size: 0x8, addend: 0x0, symName: __ZNSt3__121__libcpp_operator_newB7v160006IJmSt11align_val_tEEEPvDpT_, symObjAddr: 0x5BFC, symBinAddr: 0x10000ED24, symSize: 0x2C }
  - { offsetInCU: 0x2FDC8, offset: 0x2FDC8, size: 0x8, addend: 0x0, symName: __ZNSt3__121__libcpp_operator_newB7v160006IJmEEEPvDpT_, symObjAddr: 0x5C28, symBinAddr: 0x10000ED50, symSize: 0x24 }
  - { offsetInCU: 0x2FE01, offset: 0x2FE01, size: 0x8, addend: 0x0, symName: __ZNSt3__142__uninitialized_allocator_move_if_noexceptB7v160006INS_9allocatorIcEENS_16reverse_iteratorIPcEES5_cvEET1_RT_T0_S9_S6_, symObjAddr: 0x5E34, symBinAddr: 0x10000EF5C, symSize: 0x78 }
  - { offsetInCU: 0x2FE80, offset: 0x2FE80, size: 0x8, addend: 0x0, symName: __ZNSt3__14swapB7v160006IPcEENS_9enable_ifIXaasr21is_move_constructibleIT_EE5valuesr18is_move_assignableIS3_EE5valueEvE4typeERS3_S6_, symObjAddr: 0x5EF8, symBinAddr: 0x10000F020, symSize: 0x3C }
  - { offsetInCU: 0x2FED3, offset: 0x2FED3, size: 0x8, addend: 0x0, symName: __ZNSt3__125__debug_db_invalidate_allB7v160006INS_6vectorIcNS_9allocatorIcEEEEEEvPT_, symObjAddr: 0x5FE0, symBinAddr: 0x10000F108, symSize: 0x10 }
  - { offsetInCU: 0x2FF04, offset: 0x2FF04, size: 0x8, addend: 0x0, symName: __ZNSt3__14moveB7v160006INS_16reverse_iteratorIPcEES3_EET0_T_S5_S4_, symObjAddr: 0x6038, symBinAddr: 0x10000F160, symSize: 0x78 }
  - { offsetInCU: 0x2FF5E, offset: 0x2FF5E, size: 0x8, addend: 0x0, symName: __ZNSt3__16__moveB7v160006INS_17_ClassicAlgPolicyENS_16reverse_iteratorIPcEES4_S4_EENS_4pairIT0_T2_EES6_T1_S7_, symObjAddr: 0x60B0, symBinAddr: 0x10000F1D8, symSize: 0x64 }
  - { offsetInCU: 0x2FFCA, offset: 0x2FFCA, size: 0x8, addend: 0x0, symName: __ZNSt3__123__dispatch_copy_or_moveB7v160006INS_17_ClassicAlgPolicyENS_11__move_loopIS1_EENS_14__move_trivialENS_16reverse_iteratorIPcEES7_S7_EENS_4pairIT2_T4_EES9_T3_SA_, symObjAddr: 0x6114, symBinAddr: 0x10000F23C, symSize: 0x64 }
  - { offsetInCU: 0x30048, offset: 0x30048, size: 0x8, addend: 0x0, symName: __ZNSt3__121__unwrap_and_dispatchB7v160006INS_10__overloadINS_11__move_loopINS_17_ClassicAlgPolicyEEENS_14__move_trivialEEENS_16reverse_iteratorIPcEES9_S9_Li0EEENS_4pairIT0_T2_EESB_T1_SC_, symObjAddr: 0x6178, symBinAddr: 0x10000F2A0, symSize: 0x12C }
  - { offsetInCU: 0x300DA, offset: 0x300DA, size: 0x8, addend: 0x0, symName: __ZNSt3__114__unwrap_rangeB7v160006INS_16reverse_iteratorIPcEES3_EENS_4pairIT0_S5_EET_S7_, symObjAddr: 0x62A4, symBinAddr: 0x10000F3CC, symSize: 0x84 }
  - { offsetInCU: 0x30352, offset: 0x30352, size: 0x8, addend: 0x0, symName: __ZNSt3__113__unwrap_iterB7v160006INS_16reverse_iteratorIPcEENS_18__unwrap_iter_implIS3_Lb0EEELi0EEEDTclsrT0_8__unwrapclsr3stdE7declvalIT_EEEES7_, symObjAddr: 0x63C8, symBinAddr: 0x10000F4F0, symSize: 0x44 }
  - { offsetInCU: 0x30396, offset: 0x30396, size: 0x8, addend: 0x0, symName: __ZNSt3__19make_pairB7v160006INS_16reverse_iteratorIPcEES3_EENS_4pairINS_18__unwrap_ref_decayIT_E4typeENS5_IT0_E4typeEEEOS6_OS9_, symObjAddr: 0x640C, symBinAddr: 0x10000F534, symSize: 0x38 }
  - { offsetInCU: 0x303E5, offset: 0x303E5, size: 0x8, addend: 0x0, symName: __ZNSt3__114__rewrap_rangeB7v160006INS_16reverse_iteratorIPcEES3_EET_S4_T0_, symObjAddr: 0x6444, symBinAddr: 0x10000F56C, symSize: 0x5C }
  - { offsetInCU: 0x30431, offset: 0x30431, size: 0x8, addend: 0x0, symName: __ZNSt3__113__rewrap_iterB7v160006INS_16reverse_iteratorIPcEES3_NS_18__unwrap_iter_implIS3_Lb0EEEEET_S6_T0_, symObjAddr: 0x64A0, symBinAddr: 0x10000F5C8, symSize: 0x74 }
  - { offsetInCU: 0x30486, offset: 0x30486, size: 0x8, addend: 0x0, symName: __ZNSt3__1neB7v160006IPcS1_EEbRKNS_16reverse_iteratorIT_EERKNS2_IT0_EE, symObjAddr: 0x6514, symBinAddr: 0x10000F63C, symSize: 0x48 }
  - { offsetInCU: 0x3061D, offset: 0x3061D, size: 0x8, addend: 0x0, symName: __ZNSt3__119__libcpp_deallocateB7v160006EPvmm, symObjAddr: 0x6904, symBinAddr: 0x10000FA2C, symSize: 0x60 }
  - { offsetInCU: 0x30683, offset: 0x30683, size: 0x8, addend: 0x0, symName: __ZNSt3__127__do_deallocate_handle_sizeB7v160006IJSt11align_val_tEEEvPvmDpT_, symObjAddr: 0x6964, symBinAddr: 0x10000FA8C, symSize: 0x30 }
  - { offsetInCU: 0x306D6, offset: 0x306D6, size: 0x8, addend: 0x0, symName: __ZNSt3__127__do_deallocate_handle_sizeB7v160006IJEEEvPvmDpT_, symObjAddr: 0x6994, symBinAddr: 0x10000FABC, symSize: 0x28 }
  - { offsetInCU: 0x30714, offset: 0x30714, size: 0x8, addend: 0x0, symName: __ZNSt3__124__libcpp_operator_deleteB7v160006IJPvSt11align_val_tEEEvDpT_, symObjAddr: 0x69BC, symBinAddr: 0x10000FAE4, symSize: 0x2C }
  - { offsetInCU: 0x3075D, offset: 0x3075D, size: 0x8, addend: 0x0, symName: __ZNSt3__124__libcpp_operator_deleteB7v160006IJPvEEEvDpT_, symObjAddr: 0x69E8, symBinAddr: 0x10000FB10, symSize: 0x24 }
  - { offsetInCU: 0x30793, offset: 0x30793, size: 0x8, addend: 0x0, symName: __ZNSt3__118__debug_db_erase_cB7v160006INS_6vectorIcNS_9allocatorIcEEEEEEvPT_, symObjAddr: 0x6CE0, symBinAddr: 0x10000FE08, symSize: 0x10 }
  - { offsetInCU: 0x307C4, offset: 0x307C4, size: 0x8, addend: 0x0, symName: __ZNSt3__118__cxx_atomic_storeB7v160006IdEEvPNS_22__cxx_atomic_base_implIT_EES2_NS_12memory_orderE, symObjAddr: 0x6EAC, symBinAddr: 0x10000FFD4, symSize: 0x84 }
  - { offsetInCU: 0x30815, offset: 0x30815, size: 0x8, addend: 0x0, symName: __ZNSt3__118__cxx_atomic_storeB7v160006ImEEvPNS_22__cxx_atomic_base_implIT_EES2_NS_12memory_orderE, symObjAddr: 0x7194, symBinAddr: 0x1000102BC, symSize: 0x84 }
  - { offsetInCU: 0x30866, offset: 0x30866, size: 0x8, addend: 0x0, symName: __ZNSt3__13minB7v160006IiEERKT_S3_S3_, symObjAddr: 0x74F0, symBinAddr: 0x100010618, symSize: 0x2C }
  - { offsetInCU: 0x308A9, offset: 0x308A9, size: 0x8, addend: 0x0, symName: __ZNSt3__13maxB7v160006IiEERKT_S3_S3_, symObjAddr: 0x751C, symBinAddr: 0x100010644, symSize: 0x2C }
  - { offsetInCU: 0x308EC, offset: 0x308EC, size: 0x8, addend: 0x0, symName: __ZNSt3__13minB7v160006IiNS_6__lessIiiEEEERKT_S5_S5_T0_, symObjAddr: 0x7548, symBinAddr: 0x100010670, symSize: 0x54 }
  - { offsetInCU: 0x30981, offset: 0x30981, size: 0x8, addend: 0x0, symName: __ZNSt3__13maxB7v160006IiNS_6__lessIiiEEEERKT_S5_S5_T0_, symObjAddr: 0x75D0, symBinAddr: 0x1000106F8, symSize: 0x54 }
  - { offsetInCU: 0x31085, offset: 0x31085, size: 0x8, addend: 0x0, symName: __ZNSt3__1neB7v160006INS_3mapINS_12basic_stringIcNS_11char_traitsIcEENS_9allocatorIcEEEEN8nlohmann16json_abi_v3_11_210basic_jsonIS1_NS_6vectorES7_bxydS5_NS9_14adl_serializerENSB_IhNS5_IhEEEEEENS_4lessIvEENS5_INS_4pairIKS7_SF_EEEEEEZNSF_6createISM_JEEEPT_DpOT0_EUlPSM_E_EEbRKNS_10unique_ptrISO_T0_EEDn, symObjAddr: 0x8F8C, symBinAddr: 0x1000120B4, symSize: 0x2C }
  - { offsetInCU: 0x317AD, offset: 0x317AD, size: 0x8, addend: 0x0, symName: __ZNSt3__1neB7v160006INS_6vectorIN8nlohmann16json_abi_v3_11_210basic_jsonINS_3mapES1_NS_12basic_stringIcNS_11char_traitsIcEENS_9allocatorIcEEEEbxydS9_NS3_14adl_serializerENS1_IhNS9_IhEEEEEENS9_ISF_EEEEZNSF_6createISH_JEEEPT_DpOT0_EUlPSH_E_EEbRKNS_10unique_ptrISJ_T0_EEDn, symObjAddr: 0x9940, symBinAddr: 0x100012A68, symSize: 0x2C }
  - { offsetInCU: 0x317F9, offset: 0x317F9, size: 0x8, addend: 0x0, symName: __ZNSt3__119__debug_db_insert_cB7v160006INS_6vectorIN8nlohmann16json_abi_v3_11_210basic_jsonINS_3mapES1_NS_12basic_stringIcNS_11char_traitsIcEENS_9allocatorIcEEEEbxydS9_NS3_14adl_serializerENS1_IhNS9_IhEEEEEENS9_ISF_EEEEEEvPT_, symObjAddr: 0x9CB0, symBinAddr: 0x100012DD8, symSize: 0x10 }
  - { offsetInCU: 0x31B7A, offset: 0x31B7A, size: 0x8, addend: 0x0, symName: __ZNSt3__1neB7v160006INS_12basic_stringIcNS_11char_traitsIcEENS_9allocatorIcEEEEZN8nlohmann16json_abi_v3_11_210basic_jsonINS_3mapENS_6vectorES6_bxydS4_NS8_14adl_serializerENSB_IhNS4_IhEEEEE6createIS6_JRA1_KcEEEPT_DpOT0_EUlPS6_E_EEbRKNS_10unique_ptrISK_T0_EEDn, symObjAddr: 0xA0B4, symBinAddr: 0x1000131DC, symSize: 0x2C }
  - { offsetInCU: 0x3226F, offset: 0x3226F, size: 0x8, addend: 0x0, symName: __ZNSt3__1neB7v160006IN8nlohmann16json_abi_v3_11_227byte_container_with_subtypeINS_6vectorIhNS_9allocatorIhEEEEEEZNS2_10basic_jsonINS_3mapES4_NS_12basic_stringIcNS_11char_traitsIcEENS5_IcEEEEbxydS5_NS2_14adl_serializerES7_E6createIS8_JEEEPT_DpOT0_EUlPS8_E_EEbRKNS_10unique_ptrISJ_T0_EEDn, symObjAddr: 0xA690, symBinAddr: 0x1000137B8, symSize: 0x2C }
  - { offsetInCU: 0x322BB, offset: 0x322BB, size: 0x8, addend: 0x0, symName: __ZNSt3__119__debug_db_insert_cB7v160006INS_6vectorIhNS_9allocatorIhEEEEEEvPT_, symObjAddr: 0xAA34, symBinAddr: 0x100013B5C, symSize: 0x10 }
  - { offsetInCU: 0x322ED, offset: 0x322ED, size: 0x8, addend: 0x0, symName: __ZNSt3__119__debug_db_insert_cB7v160006INS_12basic_stringIcNS_11char_traitsIcEENS_9allocatorIcEEEEEEvPT_, symObjAddr: 0xB080, symBinAddr: 0x1000141A8, symSize: 0x10 }
  - { offsetInCU: 0x3231F, offset: 0x3231F, size: 0x8, addend: 0x0, symName: __ZNSt3__112__to_addressB7v160006IKcEEPT_S3_, symObjAddr: 0xB288, symBinAddr: 0x1000143B0, symSize: 0x14 }
  - { offsetInCU: 0x3290E, offset: 0x3290E, size: 0x8, addend: 0x0, symName: __ZNSt3__121__convert_to_integralB7v160006Ei, symObjAddr: 0xE27C, symBinAddr: 0x1000173A4, symSize: 0x14 }
  - { offsetInCU: 0x3293B, offset: 0x3293B, size: 0x8, addend: 0x0, symName: __ZNSt3__19__advanceB7v160006IPKcEEvRT_NS_15iterator_traitsIS3_E15difference_typeENS_26random_access_iterator_tagE, symObjAddr: 0xE290, symBinAddr: 0x1000173B8, symSize: 0x28 }
  - { offsetInCU: 0x32986, offset: 0x32986, size: 0x8, addend: 0x0, symName: __ZNSt3__125__debug_db_invalidate_allB7v160006INS_12basic_stringIcNS_11char_traitsIcEENS_9allocatorIcEEEEEEvPT_, symObjAddr: 0xEAA8, symBinAddr: 0x100017BD0, symSize: 0x10 }
  - { offsetInCU: 0x329EB, offset: 0x329EB, size: 0x8, addend: 0x0, symName: __ZNSt3__119__debug_db_insert_cB7v160006INS_6vectorIPN8nlohmann16json_abi_v3_11_210basic_jsonINS_3mapES1_NS_12basic_stringIcNS_11char_traitsIcEENS_9allocatorIcEEEEbxydS9_NS3_14adl_serializerENS1_IhNS9_IhEEEEEENS9_ISG_EEEEEEvPT_, symObjAddr: 0x12434, symBinAddr: 0x10001B55C, symSize: 0x10 }
  - { offsetInCU: 0x32A3A, offset: 0x32A3A, size: 0x8, addend: 0x0, symName: __ZNSt3__125__debug_db_invalidate_allB7v160006INS_6vectorIbNS_9allocatorIbEEEEEEvPT_, symObjAddr: 0x12D40, symBinAddr: 0x10001BE68, symSize: 0x10 }
  - { offsetInCU: 0x32C6E, offset: 0x32C6E, size: 0x8, addend: 0x0, symName: __ZNSt3__119__allocate_at_leastB7v160006INS_9allocatorImEEEENS_19__allocation_resultINS_16allocator_traitsIT_E7pointerEEERS5_m, symObjAddr: 0x12FE4, symBinAddr: 0x10001C10C, symSize: 0x40 }
  - { offsetInCU: 0x32CB1, offset: 0x32CB1, size: 0x8, addend: 0x0, symName: __ZNSt3__18distanceB7v160006INS_14__bit_iteratorINS_6vectorIbNS_9allocatorIbEEEELb0ELm0EEEEENS_15iterator_traitsIT_E15difference_typeES8_S8_, symObjAddr: 0x13160, symBinAddr: 0x10001C288, symSize: 0x5C }
  - { offsetInCU: 0x32CF6, offset: 0x32CF6, size: 0x8, addend: 0x0, symName: __ZNSt3__14copyB7v160006INS_6vectorIbNS_9allocatorIbEEEELb0EEENS_14__bit_iteratorIT_Lb0EXLi0EEEENS5_IS6_XT0_EXLi0EEEES8_S7_, symObjAddr: 0x131F0, symBinAddr: 0x10001C318, symSize: 0xE8 }
  - { offsetInCU: 0x32D58, offset: 0x32D58, size: 0x8, addend: 0x0, symName: __ZNSt3__110__distanceB7v160006INS_14__bit_iteratorINS_6vectorIbNS_9allocatorIbEEEELb0ELm0EEEEENS_15iterator_traitsIT_E15difference_typeES8_S8_NS_26random_access_iterator_tagE, symObjAddr: 0x1333C, symBinAddr: 0x10001C464, symSize: 0x38 }
  - { offsetInCU: 0x32DA8, offset: 0x32DA8, size: 0x8, addend: 0x0, symName: __ZNSt3__1miB7v160006ERKNS_14__bit_iteratorINS_6vectorIbNS_9allocatorIbEEEELb0ELm0EEES7_, symObjAddr: 0x13374, symBinAddr: 0x10001C49C, symSize: 0x48 }
  - { offsetInCU: 0x32DE5, offset: 0x32DE5, size: 0x8, addend: 0x0, symName: __ZNSt3__13minB7v160006IlEERKT_S3_S3_, symObjAddr: 0x13BA4, symBinAddr: 0x10001CCCC, symSize: 0x2C }
  - { offsetInCU: 0x32E29, offset: 0x32E29, size: 0x8, addend: 0x0, symName: __ZNSt3__112__to_addressB7v160006ImEEPT_S2_, symObjAddr: 0x13C14, symBinAddr: 0x10001CD3C, symSize: 0x14 }
  - { offsetInCU: 0x32E5E, offset: 0x32E5E, size: 0x8, addend: 0x0, symName: __ZNSt3__13minB7v160006IlNS_6__lessIllEEEERKT_S5_S5_T0_, symObjAddr: 0x13C28, symBinAddr: 0x10001CD50, symSize: 0x54 }
  - { offsetInCU: 0x32EF3, offset: 0x32EF3, size: 0x8, addend: 0x0, symName: __ZNSt3__14copyB7v160006IPmS1_EET0_T_S3_S2_, symObjAddr: 0x13CB0, symBinAddr: 0x10001CDD8, symSize: 0x40 }
  - { offsetInCU: 0x32F4D, offset: 0x32F4D, size: 0x8, addend: 0x0, symName: __ZNSt3__16__copyB7v160006INS_17_ClassicAlgPolicyEPmS2_S2_EENS_4pairIT0_T2_EES4_T1_S5_, symObjAddr: 0x13CF0, symBinAddr: 0x10001CE18, symSize: 0x44 }
  - { offsetInCU: 0x32FB9, offset: 0x32FB9, size: 0x8, addend: 0x0, symName: __ZNSt3__123__dispatch_copy_or_moveB7v160006INS_17_ClassicAlgPolicyENS_11__copy_loopIS1_EENS_14__copy_trivialEPmS5_S5_EENS_4pairIT2_T4_EES7_T3_S8_, symObjAddr: 0x13D34, symBinAddr: 0x10001CE5C, symSize: 0x44 }
  - { offsetInCU: 0x33037, offset: 0x33037, size: 0x8, addend: 0x0, symName: __ZNSt3__121__unwrap_and_dispatchB7v160006INS_10__overloadINS_11__copy_loopINS_17_ClassicAlgPolicyEEENS_14__copy_trivialEEEPmS7_S7_Li0EEENS_4pairIT0_T2_EES9_T1_SA_, symObjAddr: 0x13D78, symBinAddr: 0x10001CEA0, symSize: 0xB4 }
  - { offsetInCU: 0x330C7, offset: 0x330C7, size: 0x8, addend: 0x0, symName: __ZNSt3__114__unwrap_rangeB7v160006IPmS1_EENS_4pairIT0_S3_EET_S5_, symObjAddr: 0x13E2C, symBinAddr: 0x10001CF54, symSize: 0x60 }
  - { offsetInCU: 0x3325C, offset: 0x3325C, size: 0x8, addend: 0x0, symName: __ZNSt3__113__unwrap_iterB7v160006IPmNS_18__unwrap_iter_implIS1_Lb1EEELi0EEEDTclsrT0_8__unwrapclsr3stdE7declvalIT_EEEES5_, symObjAddr: 0x13ED4, symBinAddr: 0x10001CFFC, symSize: 0x24 }
  - { offsetInCU: 0x332A0, offset: 0x332A0, size: 0x8, addend: 0x0, symName: __ZNSt3__19make_pairB7v160006IPmS1_EENS_4pairINS_18__unwrap_ref_decayIT_E4typeENS3_IT0_E4typeEEEOS4_OS7_, symObjAddr: 0x13EF8, symBinAddr: 0x10001D020, symSize: 0x38 }
  - { offsetInCU: 0x332EF, offset: 0x332EF, size: 0x8, addend: 0x0, symName: __ZNSt3__114__rewrap_rangeB7v160006IPmS1_EET_S2_T0_, symObjAddr: 0x13F30, symBinAddr: 0x10001D058, symSize: 0x2C }
  - { offsetInCU: 0x3333B, offset: 0x3333B, size: 0x8, addend: 0x0, symName: __ZNSt3__113__rewrap_iterB7v160006IPmS1_NS_18__unwrap_iter_implIS1_Lb1EEEEET_S4_T0_, symObjAddr: 0x13F5C, symBinAddr: 0x10001D084, symSize: 0x3C }
  - { offsetInCU: 0x33390, offset: 0x33390, size: 0x8, addend: 0x0, symName: __ZNSt3__119__copy_trivial_implB7v160006ImmEENS_4pairIPT_PT0_EES3_S3_S5_, symObjAddr: 0x13F98, symBinAddr: 0x10001D0C0, symSize: 0x84 }
  - { offsetInCU: 0x333F9, offset: 0x333F9, size: 0x8, addend: 0x0, symName: __ZNSt3__19make_pairB7v160006IRPmS1_EENS_4pairINS_18__unwrap_ref_decayIT_E4typeENS4_IT0_E4typeEEEOS5_OS8_, symObjAddr: 0x1401C, symBinAddr: 0x10001D144, symSize: 0x38 }
  - { offsetInCU: 0x3349C, offset: 0x3349C, size: 0x8, addend: 0x0, symName: __ZNSt3__14swapB7v160006IPmEENS_9enable_ifIXaasr21is_move_constructibleIT_EE5valuesr18is_move_assignableIS3_EE5valueEvE4typeERS3_S6_, symObjAddr: 0x14210, symBinAddr: 0x10001D338, symSize: 0x3C }
  - { offsetInCU: 0x334EF, offset: 0x334EF, size: 0x8, addend: 0x0, symName: __ZNSt3__14swapB7v160006ImEENS_9enable_ifIXaasr21is_move_constructibleIT_EE5valuesr18is_move_assignableIS2_EE5valueEvE4typeERS2_S5_, symObjAddr: 0x1424C, symBinAddr: 0x10001D374, symSize: 0x3C }
  - { offsetInCU: 0x33542, offset: 0x33542, size: 0x8, addend: 0x0, symName: __ZNSt3__116__swap_allocatorB7v160006INS_9allocatorImEEEEvRT_S4_NS_17integral_constantIbLb0EEE, symObjAddr: 0x14288, symBinAddr: 0x10001D3B0, symSize: 0x14 }
  - { offsetInCU: 0x33587, offset: 0x33587, size: 0x8, addend: 0x0, symName: __ZNSt3__125__debug_db_invalidate_allB7v160006INS_6vectorIbNS_9allocatorIbEEE16__destroy_vectorEEEvPT_, symObjAddr: 0x144D0, symBinAddr: 0x10001D5F8, symSize: 0x10 }
  - { offsetInCU: 0x335B9, offset: 0x335B9, size: 0x8, addend: 0x0, symName: __ZNSt3__118__debug_db_erase_cB7v160006INS_6vectorIPN8nlohmann16json_abi_v3_11_210basic_jsonINS_3mapES1_NS_12basic_stringIcNS_11char_traitsIcEENS_9allocatorIcEEEEbxydS9_NS3_14adl_serializerENS1_IhNS9_IhEEEEEENS9_ISG_EEEEEEvPT_, symObjAddr: 0x1470C, symBinAddr: 0x10001D834, symSize: 0x10 }
  - { offsetInCU: 0x335EB, offset: 0x335EB, size: 0x8, addend: 0x0, symName: __ZNSt3__112__to_addressB7v160006IPN8nlohmann16json_abi_v3_11_210basic_jsonINS_3mapENS_6vectorENS_12basic_stringIcNS_11char_traitsIcEENS_9allocatorIcEEEEbxydS9_NS2_14adl_serializerENS5_IhNS9_IhEEEEEEEEPT_SI_, symObjAddr: 0x14850, symBinAddr: 0x10001D978, symSize: 0x14 }
  - { offsetInCU: 0x33753, offset: 0x33753, size: 0x8, addend: 0x0, symName: __ZNSt3__125__throw_bad_function_callB7v160006Ev, symObjAddr: 0x16268, symBinAddr: 0x10001F390, symSize: 0x38 }
  - { offsetInCU: 0x337A4, offset: 0x337A4, size: 0x8, addend: 0x0, symName: __ZNSt3__112__to_addressB7v160006IN8nlohmann16json_abi_v3_11_210basic_jsonINS_3mapENS_6vectorENS_12basic_stringIcNS_11char_traitsIcEENS_9allocatorIcEEEEbxydS9_NS2_14adl_serializerENS5_IhNS9_IhEEEEEEEEPT_SH_, symObjAddr: 0x168E4, symBinAddr: 0x10001FA0C, symSize: 0x14 }
  - { offsetInCU: 0x337D9, offset: 0x337D9, size: 0x8, addend: 0x0, symName: __ZNSt3__119__allocate_at_leastB7v160006INS_9allocatorIN8nlohmann16json_abi_v3_11_210basic_jsonINS_3mapENS_6vectorENS_12basic_stringIcNS_11char_traitsIcEENS1_IcEEEEbxydS1_NS3_14adl_serializerENS6_IhNS1_IhEEEEEEEEEENS_19__allocation_resultINS_16allocator_traitsIT_E7pointerEEERSJ_m, symObjAddr: 0x16F18, symBinAddr: 0x100020040, symSize: 0x40 }
  - { offsetInCU: 0x3381C, offset: 0x3381C, size: 0x8, addend: 0x0, symName: __ZNSt3__142__uninitialized_allocator_move_if_noexceptB7v160006INS_9allocatorIN8nlohmann16json_abi_v3_11_210basic_jsonINS_3mapENS_6vectorENS_12basic_stringIcNS_11char_traitsIcEENS1_IcEEEEbxydS1_NS3_14adl_serializerENS6_IhNS1_IhEEEEEEEENS_16reverse_iteratorIPSF_EESJ_SJ_EET2_RT_T0_T1_SK_, symObjAddr: 0x17184, symBinAddr: 0x1000202AC, symSize: 0x12C }
  - { offsetInCU: 0x338BD, offset: 0x338BD, size: 0x8, addend: 0x0, symName: __ZNSt3__14swapB7v160006IPN8nlohmann16json_abi_v3_11_210basic_jsonINS_3mapENS_6vectorENS_12basic_stringIcNS_11char_traitsIcEENS_9allocatorIcEEEEbxydS9_NS2_14adl_serializerENS5_IhNS9_IhEEEEEEEENS_9enable_ifIXaasr21is_move_constructibleIT_EE5valuesr18is_move_assignableISI_EE5valueEvE4typeERSI_SL_, symObjAddr: 0x172FC, symBinAddr: 0x100020424, symSize: 0x3C }
  - { offsetInCU: 0x33910, offset: 0x33910, size: 0x8, addend: 0x0, symName: __ZNSt3__125__debug_db_invalidate_allB7v160006INS_6vectorIN8nlohmann16json_abi_v3_11_210basic_jsonINS_3mapES1_NS_12basic_stringIcNS_11char_traitsIcEENS_9allocatorIcEEEEbxydS9_NS3_14adl_serializerENS1_IhNS9_IhEEEEEENS9_ISF_EEEEEEvPT_, symObjAddr: 0x173E4, symBinAddr: 0x10002050C, symSize: 0x10 }
  - { offsetInCU: 0x33941, offset: 0x33941, size: 0x8, addend: 0x0, symName: __ZNSt3__122__make_exception_guardB7v160006INS_29_AllocatorDestroyRangeReverseINS_9allocatorIN8nlohmann16json_abi_v3_11_210basic_jsonINS_3mapENS_6vectorENS_12basic_stringIcNS_11char_traitsIcEENS2_IcEEEEbxydS2_NS4_14adl_serializerENS7_IhNS2_IhEEEEEEEENS_16reverse_iteratorIPSG_EEEEEENS_28__exception_guard_exceptionsIT_EESN_, symObjAddr: 0x1743C, symBinAddr: 0x100020564, symSize: 0x4C }
  - { offsetInCU: 0x33977, offset: 0x33977, size: 0x8, addend: 0x0, symName: __ZNSt3__1neB7v160006IPN8nlohmann16json_abi_v3_11_210basic_jsonINS_3mapENS_6vectorENS_12basic_stringIcNS_11char_traitsIcEENS_9allocatorIcEEEEbxydS9_NS2_14adl_serializerENS5_IhNS9_IhEEEEEESG_EEbRKNS_16reverse_iteratorIT_EERKNSH_IT0_EE, symObjAddr: 0x174CC, symBinAddr: 0x1000205F4, symSize: 0x48 }
  - { offsetInCU: 0x339C3, offset: 0x339C3, size: 0x8, addend: 0x0, symName: __ZNSt3__112__to_addressB7v160006INS_16reverse_iteratorIPN8nlohmann16json_abi_v3_11_210basic_jsonINS_3mapENS_6vectorENS_12basic_stringIcNS_11char_traitsIcEENS_9allocatorIcEEEEbxydSA_NS3_14adl_serializerENS6_IhNSA_IhEEEEEEEEvEENS_5decayIDTclsr19__to_address_helperIT_EE6__callclsr3stdE7declvalIRKSK_EEEEE4typeESM_, symObjAddr: 0x17514, symBinAddr: 0x10002063C, symSize: 0x24 }
  - { offsetInCU: 0x33A23, offset: 0x33A23, size: 0x8, addend: 0x0, symName: __ZNSt3__119__allocator_destroyB7v160006INS_9allocatorIN8nlohmann16json_abi_v3_11_210basic_jsonINS_3mapENS_6vectorENS_12basic_stringIcNS_11char_traitsIcEENS1_IcEEEEbxydS1_NS3_14adl_serializerENS6_IhNS1_IhEEEEEEEENS_16reverse_iteratorINSH_IPSF_EEEESK_EEvRT_T0_T1_, symObjAddr: 0x177C4, symBinAddr: 0x1000208EC, symSize: 0x70 }
  - { offsetInCU: 0x33A88, offset: 0x33A88, size: 0x8, addend: 0x0, symName: __ZNSt3__1neB7v160006INS_16reverse_iteratorIPN8nlohmann16json_abi_v3_11_210basic_jsonINS_3mapENS_6vectorENS_12basic_stringIcNS_11char_traitsIcEENS_9allocatorIcEEEEbxydSA_NS3_14adl_serializerENS6_IhNSA_IhEEEEEEEESI_EEbRKNS1_IT_EERKNS1_IT0_EE, symObjAddr: 0x17870, symBinAddr: 0x100020998, symSize: 0x60 }
  - { offsetInCU: 0x33AD4, offset: 0x33AD4, size: 0x8, addend: 0x0, symName: __ZNSt3__112__to_addressB7v160006INS_16reverse_iteratorINS1_IPN8nlohmann16json_abi_v3_11_210basic_jsonINS_3mapENS_6vectorENS_12basic_stringIcNS_11char_traitsIcEENS_9allocatorIcEEEEbxydSA_NS3_14adl_serializerENS6_IhNSA_IhEEEEEEEEEEvEENS_5decayIDTclsr19__to_address_helperIT_EE6__callclsr3stdE7declvalIRKSL_EEEEE4typeESN_, symObjAddr: 0x178FC, symBinAddr: 0x100020A24, symSize: 0x24 }
  - { offsetInCU: 0x33B34, offset: 0x33B34, size: 0x8, addend: 0x0, symName: __ZNSt3__119__allocate_at_leastB7v160006INS_9allocatorIPN8nlohmann16json_abi_v3_11_210basic_jsonINS_3mapENS_6vectorENS_12basic_stringIcNS_11char_traitsIcEENS1_IcEEEEbxydS1_NS3_14adl_serializerENS6_IhNS1_IhEEEEEEEEEENS_19__allocation_resultINS_16allocator_traitsIT_E7pointerEEERSK_m, symObjAddr: 0x18488, symBinAddr: 0x1000215B0, symSize: 0x40 }
  - { offsetInCU: 0x33B77, offset: 0x33B77, size: 0x8, addend: 0x0, symName: __ZNSt3__142__uninitialized_allocator_move_if_noexceptB7v160006INS_9allocatorIPN8nlohmann16json_abi_v3_11_210basic_jsonINS_3mapENS_6vectorENS_12basic_stringIcNS_11char_traitsIcEENS1_IcEEEEbxydS1_NS3_14adl_serializerENS6_IhNS1_IhEEEEEEEENS_16reverse_iteratorIPSG_EESK_SG_vEET1_RT_T0_SO_SL_, symObjAddr: 0x1863C, symBinAddr: 0x100021764, symSize: 0x78 }
  - { offsetInCU: 0x33BF6, offset: 0x33BF6, size: 0x8, addend: 0x0, symName: __ZNSt3__14swapB7v160006IPPN8nlohmann16json_abi_v3_11_210basic_jsonINS_3mapENS_6vectorENS_12basic_stringIcNS_11char_traitsIcEENS_9allocatorIcEEEEbxydS9_NS2_14adl_serializerENS5_IhNS9_IhEEEEEEEENS_9enable_ifIXaasr21is_move_constructibleIT_EE5valuesr18is_move_assignableISJ_EE5valueEvE4typeERSJ_SM_, symObjAddr: 0x18700, symBinAddr: 0x100021828, symSize: 0x3C }
  - { offsetInCU: 0x33C49, offset: 0x33C49, size: 0x8, addend: 0x0, symName: __ZNSt3__125__debug_db_invalidate_allB7v160006INS_6vectorIPN8nlohmann16json_abi_v3_11_210basic_jsonINS_3mapES1_NS_12basic_stringIcNS_11char_traitsIcEENS_9allocatorIcEEEEbxydS9_NS3_14adl_serializerENS1_IhNS9_IhEEEEEENS9_ISG_EEEEEEvPT_, symObjAddr: 0x187E8, symBinAddr: 0x100021910, symSize: 0x10 }
  - { offsetInCU: 0x33C7A, offset: 0x33C7A, size: 0x8, addend: 0x0, symName: __ZNSt3__14moveB7v160006INS_16reverse_iteratorIPPN8nlohmann16json_abi_v3_11_210basic_jsonINS_3mapENS_6vectorENS_12basic_stringIcNS_11char_traitsIcEENS_9allocatorIcEEEEbxydSA_NS3_14adl_serializerENS6_IhNSA_IhEEEEEEEESJ_EET0_T_SL_SK_, symObjAddr: 0x187F8, symBinAddr: 0x100021920, symSize: 0x78 }
  - { offsetInCU: 0x33CD4, offset: 0x33CD4, size: 0x8, addend: 0x0, symName: __ZNSt3__16__moveB7v160006INS_17_ClassicAlgPolicyENS_16reverse_iteratorIPPN8nlohmann16json_abi_v3_11_210basic_jsonINS_3mapENS_6vectorENS_12basic_stringIcNS_11char_traitsIcEENS_9allocatorIcEEEEbxydSB_NS4_14adl_serializerENS7_IhNSB_IhEEEEEEEESK_SK_EENS_4pairIT0_T2_EESM_T1_SN_, symObjAddr: 0x18870, symBinAddr: 0x100021998, symSize: 0x64 }
  - { offsetInCU: 0x33D40, offset: 0x33D40, size: 0x8, addend: 0x0, symName: __ZNSt3__123__dispatch_copy_or_moveB7v160006INS_17_ClassicAlgPolicyENS_11__move_loopIS1_EENS_14__move_trivialENS_16reverse_iteratorIPPN8nlohmann16json_abi_v3_11_210basic_jsonINS_3mapENS_6vectorENS_12basic_stringIcNS_11char_traitsIcEENS_9allocatorIcEEEEbxydSE_NS7_14adl_serializerENSA_IhNSE_IhEEEEEEEESN_SN_EENS_4pairIT2_T4_EESP_T3_SQ_, symObjAddr: 0x188D4, symBinAddr: 0x1000219FC, symSize: 0x64 }
  - { offsetInCU: 0x33DBE, offset: 0x33DBE, size: 0x8, addend: 0x0, symName: __ZNSt3__121__unwrap_and_dispatchB7v160006INS_10__overloadINS_11__move_loopINS_17_ClassicAlgPolicyEEENS_14__move_trivialEEENS_16reverse_iteratorIPPN8nlohmann16json_abi_v3_11_210basic_jsonINS_3mapENS_6vectorENS_12basic_stringIcNS_11char_traitsIcEENS_9allocatorIcEEEEbxydSG_NS9_14adl_serializerENSC_IhNSG_IhEEEEEEEESP_SP_Li0EEENS_4pairIT0_T2_EESR_T1_SS_, symObjAddr: 0x18938, symBinAddr: 0x100021A60, symSize: 0x12C }
  - { offsetInCU: 0x33E50, offset: 0x33E50, size: 0x8, addend: 0x0, symName: __ZNSt3__114__unwrap_rangeB7v160006INS_16reverse_iteratorIPPN8nlohmann16json_abi_v3_11_210basic_jsonINS_3mapENS_6vectorENS_12basic_stringIcNS_11char_traitsIcEENS_9allocatorIcEEEEbxydSA_NS3_14adl_serializerENS6_IhNSA_IhEEEEEEEESJ_EENS_4pairIT0_SL_EET_SN_, symObjAddr: 0x18A64, symBinAddr: 0x100021B8C, symSize: 0x84 }
  - { offsetInCU: 0x33F70, offset: 0x33F70, size: 0x8, addend: 0x0, symName: __ZNSt3__113__unwrap_iterB7v160006INS_16reverse_iteratorIPPN8nlohmann16json_abi_v3_11_210basic_jsonINS_3mapENS_6vectorENS_12basic_stringIcNS_11char_traitsIcEENS_9allocatorIcEEEEbxydSA_NS3_14adl_serializerENS6_IhNSA_IhEEEEEEEENS_18__unwrap_iter_implISJ_Lb0EEELi0EEEDTclsrT0_8__unwrapclsr3stdE7declvalIT_EEEESN_, symObjAddr: 0x18B88, symBinAddr: 0x100021CB0, symSize: 0x44 }
  - { offsetInCU: 0x33FB4, offset: 0x33FB4, size: 0x8, addend: 0x0, symName: __ZNSt3__19make_pairB7v160006INS_16reverse_iteratorIPPN8nlohmann16json_abi_v3_11_210basic_jsonINS_3mapENS_6vectorENS_12basic_stringIcNS_11char_traitsIcEENS_9allocatorIcEEEEbxydSA_NS3_14adl_serializerENS6_IhNSA_IhEEEEEEEESJ_EENS_4pairINS_18__unwrap_ref_decayIT_E4typeENSL_IT0_E4typeEEEOSM_OSP_, symObjAddr: 0x18BCC, symBinAddr: 0x100021CF4, symSize: 0x38 }
  - { offsetInCU: 0x34003, offset: 0x34003, size: 0x8, addend: 0x0, symName: __ZNSt3__114__rewrap_rangeB7v160006INS_16reverse_iteratorIPPN8nlohmann16json_abi_v3_11_210basic_jsonINS_3mapENS_6vectorENS_12basic_stringIcNS_11char_traitsIcEENS_9allocatorIcEEEEbxydSA_NS3_14adl_serializerENS6_IhNSA_IhEEEEEEEESJ_EET_SK_T0_, symObjAddr: 0x18C04, symBinAddr: 0x100021D2C, symSize: 0x5C }
  - { offsetInCU: 0x3404F, offset: 0x3404F, size: 0x8, addend: 0x0, symName: __ZNSt3__113__rewrap_iterB7v160006INS_16reverse_iteratorIPPN8nlohmann16json_abi_v3_11_210basic_jsonINS_3mapENS_6vectorENS_12basic_stringIcNS_11char_traitsIcEENS_9allocatorIcEEEEbxydSA_NS3_14adl_serializerENS6_IhNSA_IhEEEEEEEESJ_NS_18__unwrap_iter_implISJ_Lb0EEEEET_SM_T0_, symObjAddr: 0x18C60, symBinAddr: 0x100021D88, symSize: 0x74 }
  - { offsetInCU: 0x340A4, offset: 0x340A4, size: 0x8, addend: 0x0, symName: __ZNSt3__1neB7v160006IPPN8nlohmann16json_abi_v3_11_210basic_jsonINS_3mapENS_6vectorENS_12basic_stringIcNS_11char_traitsIcEENS_9allocatorIcEEEEbxydS9_NS2_14adl_serializerENS5_IhNS9_IhEEEEEESH_EEbRKNS_16reverse_iteratorIT_EERKNSI_IT0_EE, symObjAddr: 0x18CD4, symBinAddr: 0x100021DFC, symSize: 0x48 }
  - { offsetInCU: 0x344A1, offset: 0x344A1, size: 0x8, addend: 0x0, symName: __ZNSt3__1neB7v160006INS_3mapINS_12basic_stringIcNS_11char_traitsIcEENS_9allocatorIcEEEEN8nlohmann16json_abi_v3_11_210basic_jsonIS1_NS_6vectorES7_bxydS5_NS9_14adl_serializerENSB_IhNS5_IhEEEEEENS_4lessIvEENS5_INS_4pairIKS7_SF_EEEEEEZNSF_6createISM_JRKSM_EEEPT_DpOT0_EUlPSM_E_EEbRKNS_10unique_ptrISQ_T0_EEDn, symObjAddr: 0x1A360, symBinAddr: 0x100023488, symSize: 0x2C }
  - { offsetInCU: 0x344EC, offset: 0x344EC, size: 0x8, addend: 0x0, symName: __ZNSt3__1neB7v160006ERKNS_20__map_const_iteratorINS_21__tree_const_iteratorINS_12__value_typeINS_12basic_stringIcNS_11char_traitsIcEENS_9allocatorIcEEEEN8nlohmann16json_abi_v3_11_210basic_jsonINS_3mapENS_6vectorES8_bxydS6_NSA_14adl_serializerENSD_IhNS6_IhEEEEEEEEPNS_11__tree_nodeISI_PvEElEEEESQ_, symObjAddr: 0x1A92C, symBinAddr: 0x100023A54, symSize: 0x30 }
  - { offsetInCU: 0x34529, offset: 0x34529, size: 0x8, addend: 0x0, symName: __ZNSt3__1neB7v160006ERKNS_21__tree_const_iteratorINS_12__value_typeINS_12basic_stringIcNS_11char_traitsIcEENS_9allocatorIcEEEEN8nlohmann16json_abi_v3_11_210basic_jsonINS_3mapENS_6vectorES7_bxydS5_NS9_14adl_serializerENSC_IhNS5_IhEEEEEEEEPNS_11__tree_nodeISH_PvEElEESO_, symObjAddr: 0x1AA34, symBinAddr: 0x100023B5C, symSize: 0x34 }
  - { offsetInCU: 0x34566, offset: 0x34566, size: 0x8, addend: 0x0, symName: __ZNSt3__1eqB7v160006ERKNS_21__tree_const_iteratorINS_12__value_typeINS_12basic_stringIcNS_11char_traitsIcEENS_9allocatorIcEEEEN8nlohmann16json_abi_v3_11_210basic_jsonINS_3mapENS_6vectorES7_bxydS5_NS9_14adl_serializerENSC_IhNS5_IhEEEEEEEEPNS_11__tree_nodeISH_PvEElEESO_, symObjAddr: 0x1AA68, symBinAddr: 0x100023B90, symSize: 0x30 }
  - { offsetInCU: 0x345C7, offset: 0x345C7, size: 0x8, addend: 0x0, symName: __ZNSt3__14nextB7v160006INS_21__tree_const_iteratorINS_12__value_typeINS_12basic_stringIcNS_11char_traitsIcEENS_9allocatorIcEEEEN8nlohmann16json_abi_v3_11_210basic_jsonINS_3mapENS_6vectorES8_bxydS6_NSA_14adl_serializerENSD_IhNS6_IhEEEEEEEEPNS_11__tree_nodeISI_PvEElEEEENS_9enable_ifIXsr25__is_cpp17_input_iteratorIT_EE5valueESP_E4typeESP_NS_15iterator_traitsISP_E15difference_typeE, symObjAddr: 0x1B570, symBinAddr: 0x100024698, symSize: 0x50 }
  - { offsetInCU: 0x3460A, offset: 0x3460A, size: 0x8, addend: 0x0, symName: __ZNSt3__1ltB7v160006IcNS_11char_traitsIcEENS_9allocatorIcEEEEbRKNS_12basic_stringIT_T0_T1_EESB_, symObjAddr: 0x1B6DC, symBinAddr: 0x100024804, symSize: 0x38 }
  - { offsetInCU: 0x34686, offset: 0x34686, size: 0x8, addend: 0x0, symName: __ZNSt3__118__constexpr_memcmpB7v160006IcEEiPKT_S3_m, symObjAddr: 0x1B978, symBinAddr: 0x100024AA0, symSize: 0x34 }
  - { offsetInCU: 0x346D7, offset: 0x346D7, size: 0x8, addend: 0x0, symName: __ZNSt3__17launderB7v160006IKNS_4pairIKNS_12basic_stringIcNS_11char_traitsIcEENS_9allocatorIcEEEEN8nlohmann16json_abi_v3_11_210basic_jsonINS_3mapENS_6vectorES7_bxydS5_NSA_14adl_serializerENSD_IhNS5_IhEEEEEEEEEEPT_SL_, symObjAddr: 0x1BA38, symBinAddr: 0x100024B60, symSize: 0x24 }
  - { offsetInCU: 0x3470E, offset: 0x3470E, size: 0x8, addend: 0x0, symName: __ZNSt3__19__launderB7v160006IKNS_4pairIKNS_12basic_stringIcNS_11char_traitsIcEENS_9allocatorIcEEEEN8nlohmann16json_abi_v3_11_210basic_jsonINS_3mapENS_6vectorES7_bxydS5_NSA_14adl_serializerENSD_IhNS5_IhEEEEEEEEEEPT_SL_, symObjAddr: 0x1BA5C, symBinAddr: 0x100024B84, symSize: 0x14 }
  - { offsetInCU: 0x34745, offset: 0x34745, size: 0x8, addend: 0x0, symName: __ZNSt3__116__tree_prev_iterB7v160006IPNS_16__tree_node_baseIPvEEPNS_15__tree_end_nodeIS4_EEEET_T0_, symObjAddr: 0x1BA70, symBinAddr: 0x100024B98, symSize: 0xA4 }
  - { offsetInCU: 0x34793, offset: 0x34793, size: 0x8, addend: 0x0, symName: __ZNSt3__110__tree_maxB7v160006IPNS_16__tree_node_baseIPvEEEET_S5_, symObjAddr: 0x1BB14, symBinAddr: 0x100024C3C, symSize: 0x40 }
  - { offsetInCU: 0x347C9, offset: 0x347C9, size: 0x8, addend: 0x0, symName: __ZNSt3__120__tree_is_left_childB7v160006IPNS_16__tree_node_baseIPvEEEEbT_, symObjAddr: 0x1BB54, symBinAddr: 0x100024C7C, symSize: 0x2C }
  - { offsetInCU: 0x347FF, offset: 0x347FF, size: 0x8, addend: 0x0, symName: __ZNSt3__121__convert_to_integralB7v160006El, symObjAddr: 0x1BC98, symBinAddr: 0x100024DC0, symSize: 0x14 }
  - { offsetInCU: 0x3482C, offset: 0x3482C, size: 0x8, addend: 0x0, symName: __ZNSt3__19__advanceB7v160006INS_21__tree_const_iteratorINS_12__value_typeINS_12basic_stringIcNS_11char_traitsIcEENS_9allocatorIcEEEEN8nlohmann16json_abi_v3_11_210basic_jsonINS_3mapENS_6vectorES8_bxydS6_NSA_14adl_serializerENSD_IhNS6_IhEEEEEEEEPNS_11__tree_nodeISI_PvEElEEEEvRT_NS_15iterator_traitsISO_E15difference_typeENS_26bidirectional_iterator_tagE, symObjAddr: 0x1BCAC, symBinAddr: 0x100024DD4, symSize: 0xA4 }
  - { offsetInCU: 0x34876, offset: 0x34876, size: 0x8, addend: 0x0, symName: __ZNSt3__116__tree_next_iterB7v160006IPNS_15__tree_end_nodeIPNS_16__tree_node_baseIPvEEEES5_EET_T0_, symObjAddr: 0x1BD88, symBinAddr: 0x100024EB0, symSize: 0x80 }
  - { offsetInCU: 0x348B5, offset: 0x348B5, size: 0x8, addend: 0x0, symName: __ZNSt3__110__tree_minB7v160006IPNS_16__tree_node_baseIPvEEEET_S5_, symObjAddr: 0x1BE08, symBinAddr: 0x100024F30, symSize: 0x40 }
  - { offsetInCU: 0x34908, offset: 0x34908, size: 0x8, addend: 0x0, symName: __ZNSt3__17launderB7v160006INS_4pairIKNS_12basic_stringIcNS_11char_traitsIcEENS_9allocatorIcEEEEN8nlohmann16json_abi_v3_11_210basic_jsonINS_3mapENS_6vectorES7_bxydS5_NSA_14adl_serializerENSD_IhNS5_IhEEEEEEEEEEPT_SK_, symObjAddr: 0x1C29C, symBinAddr: 0x1000253C4, symSize: 0x24 }
  - { offsetInCU: 0x3493F, offset: 0x3493F, size: 0x8, addend: 0x0, symName: __ZNSt3__19__launderB7v160006INS_4pairIKNS_12basic_stringIcNS_11char_traitsIcEENS_9allocatorIcEEEEN8nlohmann16json_abi_v3_11_210basic_jsonINS_3mapENS_6vectorES7_bxydS5_NSA_14adl_serializerENSD_IhNS5_IhEEEEEEEEEEPT_SK_, symObjAddr: 0x1C2C0, symBinAddr: 0x1000253E8, symSize: 0x14 }
  - { offsetInCU: 0x34976, offset: 0x34976, size: 0x8, addend: 0x0, symName: __ZNSt3__127__tree_balance_after_insertB7v160006IPNS_16__tree_node_baseIPvEEEEvT_S5_, symObjAddr: 0x1C348, symBinAddr: 0x100025470, symSize: 0x27C }
  - { offsetInCU: 0x349F4, offset: 0x349F4, size: 0x8, addend: 0x0, symName: __ZNSt3__118__tree_left_rotateB7v160006IPNS_16__tree_node_baseIPvEEEEvT_, symObjAddr: 0x1C5EC, symBinAddr: 0x100025714, symSize: 0xD8 }
  - { offsetInCU: 0x34A36, offset: 0x34A36, size: 0x8, addend: 0x0, symName: __ZNSt3__119__tree_right_rotateB7v160006IPNS_16__tree_node_baseIPvEEEEvT_, symObjAddr: 0x1C6C4, symBinAddr: 0x1000257EC, symSize: 0xCC }
  - { offsetInCU: 0x34DF0, offset: 0x34DF0, size: 0x8, addend: 0x0, symName: __ZNSt3__1neB7v160006INS_6vectorIN8nlohmann16json_abi_v3_11_210basic_jsonINS_3mapES1_NS_12basic_stringIcNS_11char_traitsIcEENS_9allocatorIcEEEEbxydS9_NS3_14adl_serializerENS1_IhNS9_IhEEEEEENS9_ISF_EEEEZNSF_6createISH_JRKSH_EEEPT_DpOT0_EUlPSH_E_EEbRKNS_10unique_ptrISL_T0_EEDn, symObjAddr: 0x1D03C, symBinAddr: 0x100026164, symSize: 0x2C }
  - { offsetInCU: 0x34E3B, offset: 0x34E3B, size: 0x8, addend: 0x0, symName: __ZNSt3__122__make_exception_guardB7v160006INS_6vectorIN8nlohmann16json_abi_v3_11_210basic_jsonINS_3mapES1_NS_12basic_stringIcNS_11char_traitsIcEENS_9allocatorIcEEEEbxydS9_NS3_14adl_serializerENS1_IhNS9_IhEEEEEENS9_ISF_EEE16__destroy_vectorEEENS_28__exception_guard_exceptionsIT_EESK_, symObjAddr: 0x1D388, symBinAddr: 0x1000264B0, symSize: 0x40 }
  - { offsetInCU: 0x34E70, offset: 0x34E70, size: 0x8, addend: 0x0, symName: __ZNSt3__130__uninitialized_allocator_copyB7v160006INS_9allocatorIN8nlohmann16json_abi_v3_11_210basic_jsonINS_3mapENS_6vectorENS_12basic_stringIcNS_11char_traitsIcEENS1_IcEEEEbxydS1_NS3_14adl_serializerENS6_IhNS1_IhEEEEEEEEPSF_SH_SH_EET2_RT_T0_T1_SI_, symObjAddr: 0x1D650, symBinAddr: 0x100026778, symSize: 0xF4 }
  - { offsetInCU: 0x34F0E, offset: 0x34F0E, size: 0x8, addend: 0x0, symName: __ZNSt3__122__make_exception_guardB7v160006INS_29_AllocatorDestroyRangeReverseINS_9allocatorIN8nlohmann16json_abi_v3_11_210basic_jsonINS_3mapENS_6vectorENS_12basic_stringIcNS_11char_traitsIcEENS2_IcEEEEbxydS2_NS4_14adl_serializerENS7_IhNS2_IhEEEEEEEEPSG_EEEENS_28__exception_guard_exceptionsIT_EESL_, symObjAddr: 0x1D744, symBinAddr: 0x10002686C, symSize: 0x4C }
  - { offsetInCU: 0x34F44, offset: 0x34F44, size: 0x8, addend: 0x0, symName: __ZNSt3__119__allocator_destroyB7v160006INS_9allocatorIN8nlohmann16json_abi_v3_11_210basic_jsonINS_3mapENS_6vectorENS_12basic_stringIcNS_11char_traitsIcEENS1_IcEEEEbxydS1_NS3_14adl_serializerENS6_IhNS1_IhEEEEEEEENS_16reverse_iteratorIPSF_EESJ_EEvRT_T0_T1_, symObjAddr: 0x1D9D4, symBinAddr: 0x100026AFC, symSize: 0x70 }
  - { offsetInCU: 0x34FA8, offset: 0x34FA8, size: 0x8, addend: 0x0, symName: __ZNSt3__118__debug_db_erase_cB7v160006INS_6vectorIN8nlohmann16json_abi_v3_11_210basic_jsonINS_3mapES1_NS_12basic_stringIcNS_11char_traitsIcEENS_9allocatorIcEEEEbxydS9_NS3_14adl_serializerENS1_IhNS9_IhEEEEEENS9_ISF_EEEEEEvPT_, symObjAddr: 0x1DB30, symBinAddr: 0x100026C58, symSize: 0x10 }
  - { offsetInCU: 0x3531E, offset: 0x3531E, size: 0x8, addend: 0x0, symName: __ZNSt3__1neB7v160006INS_12basic_stringIcNS_11char_traitsIcEENS_9allocatorIcEEEEZN8nlohmann16json_abi_v3_11_210basic_jsonINS_3mapENS_6vectorES6_bxydS4_NS8_14adl_serializerENSB_IhNS4_IhEEEEE6createIS6_JRKS6_EEEPT_DpOT0_EUlPS6_E_EEbRKNS_10unique_ptrISJ_T0_EEDn, symObjAddr: 0x1DF58, symBinAddr: 0x100027080, symSize: 0x2C }
  - { offsetInCU: 0x356AE, offset: 0x356AE, size: 0x8, addend: 0x0, symName: __ZNSt3__1neB7v160006IN8nlohmann16json_abi_v3_11_227byte_container_with_subtypeINS_6vectorIhNS_9allocatorIhEEEEEEZNS2_10basic_jsonINS_3mapES4_NS_12basic_stringIcNS_11char_traitsIcEENS5_IcEEEEbxydS5_NS2_14adl_serializerES7_E6createIS8_JRKS8_EEEPT_DpOT0_EUlPS8_E_EEbRKNS_10unique_ptrISL_T0_EEDn, symObjAddr: 0x1E504, symBinAddr: 0x10002762C, symSize: 0x2C }
  - { offsetInCU: 0x356F9, offset: 0x356F9, size: 0x8, addend: 0x0, symName: __ZNSt3__122__make_exception_guardB7v160006INS_6vectorIhNS_9allocatorIhEEE16__destroy_vectorEEENS_28__exception_guard_exceptionsIT_EES7_, symObjAddr: 0x1E8C0, symBinAddr: 0x1000279E8, symSize: 0x40 }
  - { offsetInCU: 0x3572E, offset: 0x3572E, size: 0x8, addend: 0x0, symName: __ZNSt3__119__allocate_at_leastB7v160006INS_9allocatorIhEEEENS_19__allocation_resultINS_16allocator_traitsIT_E7pointerEEERS5_m, symObjAddr: 0x1EC3C, symBinAddr: 0x100027D64, symSize: 0x40 }
  - { offsetInCU: 0x35772, offset: 0x35772, size: 0x8, addend: 0x0, symName: __ZNSt3__112__to_addressB7v160006IhEEPT_S2_, symObjAddr: 0x1EEF8, symBinAddr: 0x100028020, symSize: 0x14 }
  - { offsetInCU: 0x357A7, offset: 0x357A7, size: 0x8, addend: 0x0, symName: __ZNSt3__130__uninitialized_allocator_copyB7v160006INS_9allocatorIhEEPhS3_S3_EET2_RT_T0_T1_S4_, symObjAddr: 0x1EFA8, symBinAddr: 0x1000280D0, symSize: 0xF4 }
  - { offsetInCU: 0x35845, offset: 0x35845, size: 0x8, addend: 0x0, symName: __ZNSt3__122__make_exception_guardB7v160006INS_29_AllocatorDestroyRangeReverseINS_9allocatorIhEEPhEEEENS_28__exception_guard_exceptionsIT_EES7_, symObjAddr: 0x1F10C, symBinAddr: 0x100028234, symSize: 0x4C }
  - { offsetInCU: 0x3587B, offset: 0x3587B, size: 0x8, addend: 0x0, symName: __ZNSt3__119__allocator_destroyB7v160006INS_9allocatorIhEENS_16reverse_iteratorIPhEES5_EEvRT_T0_T1_, symObjAddr: 0x1F394, symBinAddr: 0x1000284BC, symSize: 0x70 }
  - { offsetInCU: 0x358DE, offset: 0x358DE, size: 0x8, addend: 0x0, symName: __ZNSt3__1neB7v160006IPhS1_EEbRKNS_16reverse_iteratorIT_EERKNS2_IT0_EE, symObjAddr: 0x1F438, symBinAddr: 0x100028560, symSize: 0x48 }
  - { offsetInCU: 0x3592A, offset: 0x3592A, size: 0x8, addend: 0x0, symName: __ZNSt3__112__to_addressB7v160006INS_16reverse_iteratorIPhEEvEENS_5decayIDTclsr19__to_address_helperIT_EE6__callclsr3stdE7declvalIRKS5_EEEEE4typeES7_, symObjAddr: 0x1F4AC, symBinAddr: 0x1000285D4, symSize: 0x24 }
  - { offsetInCU: 0x3598B, offset: 0x3598B, size: 0x8, addend: 0x0, symName: __ZNSt3__118__debug_db_erase_cB7v160006INS_6vectorIhNS_9allocatorIhEEEEEEvPT_, symObjAddr: 0x1F78C, symBinAddr: 0x1000288B4, symSize: 0x10 }
  - { offsetInCU: 0x359BD, offset: 0x359BD, size: 0x8, addend: 0x0, symName: __ZNSt3__119__debug_db_insert_iB7v160006INS_11__wrap_iterIPN8nlohmann16json_abi_v3_11_210basic_jsonINS_3mapENS_6vectorENS_12basic_stringIcNS_11char_traitsIcEENS_9allocatorIcEEEEbxydSA_NS3_14adl_serializerENS6_IhNSA_IhEEEEEEEEEEvPT_, symObjAddr: 0x1FF8C, symBinAddr: 0x1000290B4, symSize: 0x10 }
  - { offsetInCU: 0x359EE, offset: 0x359EE, size: 0x8, addend: 0x0, symName: __ZNSt3__1eqB7v160006ERKNS_14__map_iteratorINS_15__tree_iteratorINS_12__value_typeINS_12basic_stringIcNS_11char_traitsIcEENS_9allocatorIcEEEEN8nlohmann16json_abi_v3_11_210basic_jsonINS_3mapENS_6vectorES8_bxydS6_NSA_14adl_serializerENSD_IhNS6_IhEEEEEEEEPNS_11__tree_nodeISI_PvEElEEEESQ_, symObjAddr: 0x204B4, symBinAddr: 0x1000295DC, symSize: 0x30 }
  - { offsetInCU: 0x35A2B, offset: 0x35A2B, size: 0x8, addend: 0x0, symName: __ZNSt3__1eqB7v160006IPN8nlohmann16json_abi_v3_11_210basic_jsonINS_3mapENS_6vectorENS_12basic_stringIcNS_11char_traitsIcEENS_9allocatorIcEEEEbxydS9_NS2_14adl_serializerENS5_IhNS9_IhEEEEEEEEbRKNS_11__wrap_iterIT_EESL_, symObjAddr: 0x204E4, symBinAddr: 0x10002960C, symSize: 0x48 }
  - { offsetInCU: 0x35A6E, offset: 0x35A6E, size: 0x8, addend: 0x0, symName: __ZNSt3__1eqB7v160006ERKNS_15__tree_iteratorINS_12__value_typeINS_12basic_stringIcNS_11char_traitsIcEENS_9allocatorIcEEEEN8nlohmann16json_abi_v3_11_210basic_jsonINS_3mapENS_6vectorES7_bxydS5_NS9_14adl_serializerENSC_IhNS5_IhEEEEEEEEPNS_11__tree_nodeISH_PvEElEESO_, symObjAddr: 0x20640, symBinAddr: 0x100029768, symSize: 0x30 }
  - { offsetInCU: 0x35AAB, offset: 0x35AAB, size: 0x8, addend: 0x0, symName: __ZNSt3__1neB7v160006ERKNS_14__map_iteratorINS_15__tree_iteratorINS_12__value_typeINS_12basic_stringIcNS_11char_traitsIcEENS_9allocatorIcEEEEN8nlohmann16json_abi_v3_11_210basic_jsonINS_3mapENS_6vectorES8_bxydS6_NSA_14adl_serializerENSD_IhNS6_IhEEEEEEEEPNS_11__tree_nodeISI_PvEElEEEESQ_, symObjAddr: 0x20820, symBinAddr: 0x100029948, symSize: 0x30 }
  - { offsetInCU: 0x35AE8, offset: 0x35AE8, size: 0x8, addend: 0x0, symName: __ZNSt3__1neB7v160006IPN8nlohmann16json_abi_v3_11_210basic_jsonINS_3mapENS_6vectorENS_12basic_stringIcNS_11char_traitsIcEENS_9allocatorIcEEEEbxydS9_NS2_14adl_serializerENS5_IhNS9_IhEEEEEEEEbRKNS_11__wrap_iterIT_EESL_, symObjAddr: 0x2087C, symBinAddr: 0x1000299A4, symSize: 0x34 }
  - { offsetInCU: 0x35B2B, offset: 0x35B2B, size: 0x8, addend: 0x0, symName: __ZNSt3__1neB7v160006ERKNS_15__tree_iteratorINS_12__value_typeINS_12basic_stringIcNS_11char_traitsIcEENS_9allocatorIcEEEEN8nlohmann16json_abi_v3_11_210basic_jsonINS_3mapENS_6vectorES7_bxydS5_NS9_14adl_serializerENSC_IhNS5_IhEEEEEEEEPNS_11__tree_nodeISH_PvEElEESO_, symObjAddr: 0x208EC, symBinAddr: 0x100029A14, symSize: 0x34 }
  - { offsetInCU: 0x35BCE, offset: 0x35BCE, size: 0x8, addend: 0x0, symName: __ZNSt3__113__tree_removeB7v160006IPNS_16__tree_node_baseIPvEEEEvT_S5_, symObjAddr: 0x210DC, symBinAddr: 0x10002A204, symSize: 0x6E0 }
  - { offsetInCU: 0x35C4C, offset: 0x35C4C, size: 0x8, addend: 0x0, symName: __ZNSt3__111__tree_nextB7v160006IPNS_16__tree_node_baseIPvEEEET_S5_, symObjAddr: 0x217BC, symBinAddr: 0x10002A8E4, symSize: 0x80 }
  - { offsetInCU: 0x35C81, offset: 0x35C81, size: 0x8, addend: 0x0, symName: __ZNSt3__1miB7v160006IPKN8nlohmann16json_abi_v3_11_210basic_jsonINS_3mapENS_6vectorENS_12basic_stringIcNS_11char_traitsIcEENS_9allocatorIcEEEEbxydS9_NS2_14adl_serializerENS5_IhNS9_IhEEEEEESH_EEDTmicldtfp_4baseEcldtfp0_4baseEERKNS_11__wrap_iterIT_EERKNSJ_IT0_EE, symObjAddr: 0x2183C, symBinAddr: 0x10002A964, symSize: 0x48 }
  - { offsetInCU: 0x35CCD, offset: 0x35CCD, size: 0x8, addend: 0x0, symName: __ZNSt3__14moveB7v160006IPN8nlohmann16json_abi_v3_11_210basic_jsonINS_3mapENS_6vectorENS_12basic_stringIcNS_11char_traitsIcEENS_9allocatorIcEEEEbxydS9_NS2_14adl_serializerENS5_IhNS9_IhEEEEEESG_EET0_T_SI_SH_, symObjAddr: 0x21910, symBinAddr: 0x10002AA38, symSize: 0x40 }
  - { offsetInCU: 0x35D27, offset: 0x35D27, size: 0x8, addend: 0x0, symName: __ZNSt3__16__moveB7v160006INS_17_ClassicAlgPolicyEPN8nlohmann16json_abi_v3_11_210basic_jsonINS_3mapENS_6vectorENS_12basic_stringIcNS_11char_traitsIcEENS_9allocatorIcEEEEbxydSA_NS3_14adl_serializerENS6_IhNSA_IhEEEEEESH_SH_EENS_4pairIT0_T2_EESJ_T1_SK_, symObjAddr: 0x21AF4, symBinAddr: 0x10002AC1C, symSize: 0x44 }
  - { offsetInCU: 0x35D93, offset: 0x35D93, size: 0x8, addend: 0x0, symName: __ZNSt3__123__dispatch_copy_or_moveB7v160006INS_17_ClassicAlgPolicyENS_11__move_loopIS1_EENS_14__move_trivialEPN8nlohmann16json_abi_v3_11_210basic_jsonINS_3mapENS_6vectorENS_12basic_stringIcNS_11char_traitsIcEENS_9allocatorIcEEEEbxydSD_NS6_14adl_serializerENS9_IhNSD_IhEEEEEESK_SK_EENS_4pairIT2_T4_EESM_T3_SN_, symObjAddr: 0x21B38, symBinAddr: 0x10002AC60, symSize: 0x44 }
  - { offsetInCU: 0x35E11, offset: 0x35E11, size: 0x8, addend: 0x0, symName: __ZNSt3__121__unwrap_and_dispatchB7v160006INS_10__overloadINS_11__move_loopINS_17_ClassicAlgPolicyEEENS_14__move_trivialEEEPN8nlohmann16json_abi_v3_11_210basic_jsonINS_3mapENS_6vectorENS_12basic_stringIcNS_11char_traitsIcEENS_9allocatorIcEEEEbxydSF_NS8_14adl_serializerENSB_IhNSF_IhEEEEEESM_SM_Li0EEENS_4pairIT0_T2_EESO_T1_SP_, symObjAddr: 0x21B7C, symBinAddr: 0x10002ACA4, symSize: 0xB4 }
  - { offsetInCU: 0x35EA1, offset: 0x35EA1, size: 0x8, addend: 0x0, symName: __ZNSt3__114__unwrap_rangeB7v160006IPN8nlohmann16json_abi_v3_11_210basic_jsonINS_3mapENS_6vectorENS_12basic_stringIcNS_11char_traitsIcEENS_9allocatorIcEEEEbxydS9_NS2_14adl_serializerENS5_IhNS9_IhEEEEEESG_EENS_4pairIT0_SI_EET_SK_, symObjAddr: 0x21C30, symBinAddr: 0x10002AD58, symSize: 0x60 }
  - { offsetInCU: 0x35FC1, offset: 0x35FC1, size: 0x8, addend: 0x0, symName: __ZNSt3__113__unwrap_iterB7v160006IPN8nlohmann16json_abi_v3_11_210basic_jsonINS_3mapENS_6vectorENS_12basic_stringIcNS_11char_traitsIcEENS_9allocatorIcEEEEbxydS9_NS2_14adl_serializerENS5_IhNS9_IhEEEEEENS_18__unwrap_iter_implISG_Lb1EEELi0EEEDTclsrT0_8__unwrapclsr3stdE7declvalIT_EEEESK_, symObjAddr: 0x21D38, symBinAddr: 0x10002AE60, symSize: 0x24 }
  - { offsetInCU: 0x36005, offset: 0x36005, size: 0x8, addend: 0x0, symName: __ZNSt3__19make_pairB7v160006IPN8nlohmann16json_abi_v3_11_210basic_jsonINS_3mapENS_6vectorENS_12basic_stringIcNS_11char_traitsIcEENS_9allocatorIcEEEEbxydS9_NS2_14adl_serializerENS5_IhNS9_IhEEEEEESG_EENS_4pairINS_18__unwrap_ref_decayIT_E4typeENSI_IT0_E4typeEEEOSJ_OSM_, symObjAddr: 0x21D5C, symBinAddr: 0x10002AE84, symSize: 0x38 }
  - { offsetInCU: 0x36054, offset: 0x36054, size: 0x8, addend: 0x0, symName: __ZNSt3__114__rewrap_rangeB7v160006IPN8nlohmann16json_abi_v3_11_210basic_jsonINS_3mapENS_6vectorENS_12basic_stringIcNS_11char_traitsIcEENS_9allocatorIcEEEEbxydS9_NS2_14adl_serializerENS5_IhNS9_IhEEEEEESG_EET_SH_T0_, symObjAddr: 0x21D94, symBinAddr: 0x10002AEBC, symSize: 0x2C }
  - { offsetInCU: 0x360A0, offset: 0x360A0, size: 0x8, addend: 0x0, symName: __ZNSt3__113__rewrap_iterB7v160006IPN8nlohmann16json_abi_v3_11_210basic_jsonINS_3mapENS_6vectorENS_12basic_stringIcNS_11char_traitsIcEENS_9allocatorIcEEEEbxydS9_NS2_14adl_serializerENS5_IhNS9_IhEEEEEESG_NS_18__unwrap_iter_implISG_Lb1EEEEET_SJ_T0_, symObjAddr: 0x21DC0, symBinAddr: 0x10002AEE8, symSize: 0x3C }
  - { offsetInCU: 0x3616D, offset: 0x3616D, size: 0x8, addend: 0x0, symName: __ZNSt3__19__advanceB7v160006INS_14__map_iteratorINS_15__tree_iteratorINS_12__value_typeINS_12basic_stringIcNS_11char_traitsIcEENS_9allocatorIcEEEEN8nlohmann16json_abi_v3_11_210basic_jsonINS_3mapENS_6vectorES9_bxydS7_NSB_14adl_serializerENSE_IhNS7_IhEEEEEEEEPNS_11__tree_nodeISJ_PvEElEEEEEEvRT_NS_15iterator_traitsISQ_E15difference_typeENS_26bidirectional_iterator_tagE, symObjAddr: 0x221F8, symBinAddr: 0x10002B320, symSize: 0xA4 }
  - { offsetInCU: 0x361B8, offset: 0x361B8, size: 0x8, addend: 0x0, symName: __ZNSt3__19__advanceB7v160006INS_11__wrap_iterIPN8nlohmann16json_abi_v3_11_210basic_jsonINS_3mapENS_6vectorENS_12basic_stringIcNS_11char_traitsIcEENS_9allocatorIcEEEEbxydSA_NS3_14adl_serializerENS6_IhNSA_IhEEEEEEEEEEvRT_NS_15iterator_traitsISJ_E15difference_typeENS_26random_access_iterator_tagE, symObjAddr: 0x2232C, symBinAddr: 0x10002B454, symSize: 0x2C }
  - { offsetInCU: 0x36202, offset: 0x36202, size: 0x8, addend: 0x0, symName: __ZNSt3__14moveB7v160006INS_11__wrap_iterIPN8nlohmann16json_abi_v3_11_210basic_jsonINS_3mapENS_6vectorENS_12basic_stringIcNS_11char_traitsIcEENS_9allocatorIcEEEEbxydSA_NS3_14adl_serializerENS6_IhNSA_IhEEEEEEEENS_20back_insert_iteratorINS6_ISG_NSA_ISG_EEEEEEEET0_T_SO_SN_, symObjAddr: 0x22AEC, symBinAddr: 0x10002BC14, symSize: 0x60 }
  - { offsetInCU: 0x3625C, offset: 0x3625C, size: 0x8, addend: 0x0, symName: __ZNSt3__113back_inserterB7v160006INS_6vectorIN8nlohmann16json_abi_v3_11_210basic_jsonINS_3mapES1_NS_12basic_stringIcNS_11char_traitsIcEENS_9allocatorIcEEEEbxydS9_NS3_14adl_serializerENS1_IhNS9_IhEEEEEENS9_ISF_EEEEEENS_20back_insert_iteratorIT_EERSJ_, symObjAddr: 0x22B4C, symBinAddr: 0x10002BC74, symSize: 0x2C }
  - { offsetInCU: 0x36291, offset: 0x36291, size: 0x8, addend: 0x0, symName: __ZNSt3__16__moveB7v160006INS_17_ClassicAlgPolicyENS_11__wrap_iterIPN8nlohmann16json_abi_v3_11_210basic_jsonINS_3mapENS_6vectorENS_12basic_stringIcNS_11char_traitsIcEENS_9allocatorIcEEEEbxydSB_NS4_14adl_serializerENS7_IhNSB_IhEEEEEEEESJ_NS_20back_insert_iteratorINS7_ISH_NSB_ISH_EEEEEEEENS_4pairIT0_T2_EESP_T1_SQ_, symObjAddr: 0x22D54, symBinAddr: 0x10002BE7C, symSize: 0x5C }
  - { offsetInCU: 0x362FD, offset: 0x362FD, size: 0x8, addend: 0x0, symName: __ZNSt3__123__dispatch_copy_or_moveB7v160006INS_17_ClassicAlgPolicyENS_11__move_loopIS1_EENS_14__move_trivialENS_11__wrap_iterIPN8nlohmann16json_abi_v3_11_210basic_jsonINS_3mapENS_6vectorENS_12basic_stringIcNS_11char_traitsIcEENS_9allocatorIcEEEEbxydSE_NS7_14adl_serializerENSA_IhNSE_IhEEEEEEEESM_NS_20back_insert_iteratorINSA_ISK_NSE_ISK_EEEEEEEENS_4pairIT2_T4_EESS_T3_ST_, symObjAddr: 0x22DB0, symBinAddr: 0x10002BED8, symSize: 0x5C }
  - { offsetInCU: 0x3637B, offset: 0x3637B, size: 0x8, addend: 0x0, symName: __ZNSt3__121__unwrap_and_dispatchB7v160006INS_10__overloadINS_11__move_loopINS_17_ClassicAlgPolicyEEENS_14__move_trivialEEENS_11__wrap_iterIPN8nlohmann16json_abi_v3_11_210basic_jsonINS_3mapENS_6vectorENS_12basic_stringIcNS_11char_traitsIcEENS_9allocatorIcEEEEbxydSG_NS9_14adl_serializerENSC_IhNSG_IhEEEEEEEESO_NS_20back_insert_iteratorINSC_ISM_NSG_ISM_EEEEEELi0EEENS_4pairIT0_T2_EESU_T1_SV_, symObjAddr: 0x22E0C, symBinAddr: 0x10002BF34, symSize: 0xE8 }
  - { offsetInCU: 0x3640C, offset: 0x3640C, size: 0x8, addend: 0x0, symName: __ZNSt3__114__unwrap_rangeB7v160006INS_11__wrap_iterIPN8nlohmann16json_abi_v3_11_210basic_jsonINS_3mapENS_6vectorENS_12basic_stringIcNS_11char_traitsIcEENS_9allocatorIcEEEEbxydSA_NS3_14adl_serializerENS6_IhNSA_IhEEEEEEEESH_EENS_4pairIT0_SK_EET_SM_, symObjAddr: 0x22EF4, symBinAddr: 0x10002C01C, symSize: 0x70 }
  - { offsetInCU: 0x3652C, offset: 0x3652C, size: 0x8, addend: 0x0, symName: __ZNSt3__113__unwrap_iterB7v160006INS_20back_insert_iteratorINS_6vectorIN8nlohmann16json_abi_v3_11_210basic_jsonINS_3mapES2_NS_12basic_stringIcNS_11char_traitsIcEENS_9allocatorIcEEEEbxydSA_NS4_14adl_serializerENS2_IhNSA_IhEEEEEENSA_ISG_EEEEEENS_18__unwrap_iter_implISJ_Lb0EEELi0EEEDTclsrT0_8__unwrapclsr3stdE7declvalIT_EEEESN_, symObjAddr: 0x22FFC, symBinAddr: 0x10002C124, symSize: 0x34 }
  - { offsetInCU: 0x36570, offset: 0x36570, size: 0x8, addend: 0x0, symName: __ZNSt3__19make_pairB7v160006INS_11__wrap_iterIPN8nlohmann16json_abi_v3_11_210basic_jsonINS_3mapENS_6vectorENS_12basic_stringIcNS_11char_traitsIcEENS_9allocatorIcEEEEbxydSA_NS3_14adl_serializerENS6_IhNSA_IhEEEEEEEENS_20back_insert_iteratorINS6_ISG_NSA_ISG_EEEEEEEENS_4pairINS_18__unwrap_ref_decayIT_E4typeENSO_IT0_E4typeEEEOSP_OSS_, symObjAddr: 0x23030, symBinAddr: 0x10002C158, symSize: 0x38 }
  - { offsetInCU: 0x365BF, offset: 0x365BF, size: 0x8, addend: 0x0, symName: __ZNSt3__114__rewrap_rangeB7v160006INS_11__wrap_iterIPN8nlohmann16json_abi_v3_11_210basic_jsonINS_3mapENS_6vectorENS_12basic_stringIcNS_11char_traitsIcEENS_9allocatorIcEEEEbxydSA_NS3_14adl_serializerENS6_IhNSA_IhEEEEEEEESH_EET_SJ_T0_, symObjAddr: 0x23068, symBinAddr: 0x10002C190, symSize: 0x3C }
  - { offsetInCU: 0x3660B, offset: 0x3660B, size: 0x8, addend: 0x0, symName: __ZNSt3__113__rewrap_iterB7v160006INS_20back_insert_iteratorINS_6vectorIN8nlohmann16json_abi_v3_11_210basic_jsonINS_3mapES2_NS_12basic_stringIcNS_11char_traitsIcEENS_9allocatorIcEEEEbxydSA_NS4_14adl_serializerENS2_IhNSA_IhEEEEEENSA_ISG_EEEEEESJ_NS_18__unwrap_iter_implISJ_Lb0EEEEET_SM_T0_, symObjAddr: 0x230A4, symBinAddr: 0x10002C1CC, symSize: 0x54 }
  - { offsetInCU: 0x36660, offset: 0x36660, size: 0x8, addend: 0x0, symName: __ZNSt3__113__unwrap_iterB7v160006INS_11__wrap_iterIPN8nlohmann16json_abi_v3_11_210basic_jsonINS_3mapENS_6vectorENS_12basic_stringIcNS_11char_traitsIcEENS_9allocatorIcEEEEbxydSA_NS3_14adl_serializerENS6_IhNSA_IhEEEEEEEENS_18__unwrap_iter_implISI_Lb1EEELi0EEEDTclsrT0_8__unwrapclsr3stdE7declvalIT_EEEESM_, symObjAddr: 0x230F8, symBinAddr: 0x10002C220, symSize: 0x2C }
  - { offsetInCU: 0x366F7, offset: 0x366F7, size: 0x8, addend: 0x0, symName: __ZNSt3__112__to_addressB7v160006INS_11__wrap_iterIPN8nlohmann16json_abi_v3_11_210basic_jsonINS_3mapENS_6vectorENS_12basic_stringIcNS_11char_traitsIcEENS_9allocatorIcEEEEbxydSA_NS3_14adl_serializerENS6_IhNSA_IhEEEEEEEEvEENS_5decayIDTclsr19__to_address_helperIT_EE6__callclsr3stdE7declvalIRKSK_EEEEE4typeESM_, symObjAddr: 0x2314C, symBinAddr: 0x10002C274, symSize: 0x24 }
  - { offsetInCU: 0x367D7, offset: 0x367D7, size: 0x8, addend: 0x0, symName: __ZNSt3__19make_pairB7v160006IPN8nlohmann16json_abi_v3_11_210basic_jsonINS_3mapENS_6vectorENS_12basic_stringIcNS_11char_traitsIcEENS_9allocatorIcEEEEbxydS9_NS2_14adl_serializerENS5_IhNS9_IhEEEEEENS_20back_insert_iteratorINS5_ISF_NS9_ISF_EEEEEEEENS_4pairINS_18__unwrap_ref_decayIT_E4typeENSM_IT0_E4typeEEEOSN_OSQ_, symObjAddr: 0x2322C, symBinAddr: 0x10002C354, symSize: 0x38 }
  - { offsetInCU: 0x36942, offset: 0x36942, size: 0x8, addend: 0x0, symName: __ZNSt3__113__rewrap_iterB7v160006INS_11__wrap_iterIPN8nlohmann16json_abi_v3_11_210basic_jsonINS_3mapENS_6vectorENS_12basic_stringIcNS_11char_traitsIcEENS_9allocatorIcEEEEbxydSA_NS3_14adl_serializerENS6_IhNSA_IhEEEEEEEESH_NS_18__unwrap_iter_implISI_Lb1EEEEET_SL_T0_, symObjAddr: 0x23360, symBinAddr: 0x10002C488, symSize: 0x4C }
  - { offsetInCU: 0x369CE, offset: 0x369CE, size: 0x8, addend: 0x0, symName: __ZNSt3__116forward_as_tupleB7v160006IJRKNS_12basic_stringIcNS_11char_traitsIcEENS_9allocatorIcEEEEEEENS_5tupleIJDpOT_EEESC_, symObjAddr: 0x237F0, symBinAddr: 0x10002C918, symSize: 0x2C }
  - { offsetInCU: 0x36A07, offset: 0x36A07, size: 0x8, addend: 0x0, symName: __ZNSt3__116forward_as_tupleB7v160006IJEEENS_5tupleIJDpOT_EEES4_, symObjAddr: 0x2381C, symBinAddr: 0x10002C944, symSize: 0x4 }
  - { offsetInCU: 0x36A37, offset: 0x36A37, size: 0x8, addend: 0x0, symName: __ZNSt3__13getB7v160006ILm0EJRKNS_12basic_stringIcNS_11char_traitsIcEENS_9allocatorIcEEEEEEERNS_13tuple_elementIXT_ENS_5tupleIJDpT0_EEEE4typeERSD_, symObjAddr: 0x23A94, symBinAddr: 0x10002CBBC, symSize: 0x24 }
  - { offsetInCU: 0x36A9E, offset: 0x36A9E, size: 0x8, addend: 0x0, symName: __ZNSt3__1neB7v160006IPKcEEbRKNS_11__wrap_iterIT_EES7_, symObjAddr: 0x26400, symBinAddr: 0x10002F528, symSize: 0x34 }
  - { offsetInCU: 0x36DA4, offset: 0x36DA4, size: 0x8, addend: 0x0, symName: __ZNSt3__1eqB7v160006IPKcEEbRKNS_11__wrap_iterIT_EES7_, symObjAddr: 0x26554, symBinAddr: 0x10002F67C, symSize: 0x48 }
  - { offsetInCU: 0x36DE8, offset: 0x36DE8, size: 0x8, addend: 0x0, symName: __ZNSt3__14swapB7v160006IN8nlohmann16json_abi_v3_11_26detail7value_tEEENS_9enable_ifIXaasr21is_move_constructibleIT_EE5valuesr18is_move_assignableIS6_EE5valueEvE4typeERS6_S9_, symObjAddr: 0x27388, symBinAddr: 0x1000304B0, symSize: 0x3C }
  - { offsetInCU: 0x36E3B, offset: 0x36E3B, size: 0x8, addend: 0x0, symName: __ZNSt3__14swapB7v160006IN8nlohmann16json_abi_v3_11_210basic_jsonINS_3mapENS_6vectorENS_12basic_stringIcNS_11char_traitsIcEENS_9allocatorIcEEEEbxydS9_NS2_14adl_serializerENS5_IhNS9_IhEEEEE10json_valueEEENS_9enable_ifIXaasr21is_move_constructibleIT_EE5valuesr18is_move_assignableISI_EE5valueEvE4typeERSI_SL_, symObjAddr: 0x273C4, symBinAddr: 0x1000304EC, symSize: 0x3C }
  - { offsetInCU: 0x36E8D, offset: 0x36E8D, size: 0x8, addend: 0x0, symName: __ZNSt3__1eqB7v160006IN8nlohmann16json_abi_v3_11_210basic_jsonINS_3mapENS_6vectorENS_12basic_stringIcNS_11char_traitsIcEENS_9allocatorIcEEEEbxydS9_NS2_14adl_serializerENS5_IhNS9_IhEEEEEENS9_ISF_EEEEbRKNS5_IT_T0_EESL_, symObjAddr: 0x2A258, symBinAddr: 0x100033380, symSize: 0x9C }
  - { offsetInCU: 0x36EEB, offset: 0x36EEB, size: 0x8, addend: 0x0, symName: __ZNSt3__1eqB7v160006INS_12basic_stringIcNS_11char_traitsIcEENS_9allocatorIcEEEEN8nlohmann16json_abi_v3_11_210basic_jsonINS_3mapENS_6vectorES6_bxydS4_NS8_14adl_serializerENSB_IhNS4_IhEEEEEENS_4lessIvEENS4_INS_4pairIKS6_SF_EEEEEEbRKNSA_IT_T0_T1_T2_EESS_, symObjAddr: 0x2A2F4, symBinAddr: 0x10003341C, symSize: 0x98 }
  - { offsetInCU: 0x36F4C, offset: 0x36F4C, size: 0x8, addend: 0x0, symName: __ZNSt3__1eqB7v160006INS_9allocatorIcEEEEbRKNS_12basic_stringIcNS_11char_traitsIcEET_EES9_, symObjAddr: 0x2A38C, symBinAddr: 0x1000334B4, symSize: 0x148 }
  - { offsetInCU: 0x36FBF, offset: 0x36FBF, size: 0x8, addend: 0x0, symName: __ZNSt3__15equalB7v160006INS_11__wrap_iterIPKN8nlohmann16json_abi_v3_11_210basic_jsonINS_3mapENS_6vectorENS_12basic_stringIcNS_11char_traitsIcEENS_9allocatorIcEEEEbxydSA_NS3_14adl_serializerENS6_IhNSA_IhEEEEEEEESJ_EEbT_SK_T0_, symObjAddr: 0x2A630, symBinAddr: 0x100033758, symSize: 0x50 }
  - { offsetInCU: 0x37019, offset: 0x37019, size: 0x8, addend: 0x0, symName: __ZNSt3__15equalB7v160006INS_11__wrap_iterIPKN8nlohmann16json_abi_v3_11_210basic_jsonINS_3mapENS_6vectorENS_12basic_stringIcNS_11char_traitsIcEENS_9allocatorIcEEEEbxydSA_NS3_14adl_serializerENS6_IhNSA_IhEEEEEEEESJ_NS_10__equal_toEEEbT_SL_T0_T1_, symObjAddr: 0x2A6B0, symBinAddr: 0x1000337D8, symSize: 0xB0 }
  - { offsetInCU: 0x3708A, offset: 0x3708A, size: 0x8, addend: 0x0, symName: __ZNSt3__1neB7v160006IPKN8nlohmann16json_abi_v3_11_210basic_jsonINS_3mapENS_6vectorENS_12basic_stringIcNS_11char_traitsIcEENS_9allocatorIcEEEEbxydS9_NS2_14adl_serializerENS5_IhNS9_IhEEEEEEEEbRKNS_11__wrap_iterIT_EESM_, symObjAddr: 0x2A760, symBinAddr: 0x100033888, symSize: 0x34 }
  - { offsetInCU: 0x3716A, offset: 0x3716A, size: 0x8, addend: 0x0, symName: __ZNSt3__1eqB7v160006IPKN8nlohmann16json_abi_v3_11_210basic_jsonINS_3mapENS_6vectorENS_12basic_stringIcNS_11char_traitsIcEENS_9allocatorIcEEEEbxydS9_NS2_14adl_serializerENS5_IhNS9_IhEEEEEEEEbRKNS_11__wrap_iterIT_EESM_, symObjAddr: 0x2A800, symBinAddr: 0x100033928, symSize: 0x48 }
  - { offsetInCU: 0x371AD, offset: 0x371AD, size: 0x8, addend: 0x0, symName: __ZNSt3__15equalB7v160006INS_20__map_const_iteratorINS_21__tree_const_iteratorINS_12__value_typeINS_12basic_stringIcNS_11char_traitsIcEENS_9allocatorIcEEEEN8nlohmann16json_abi_v3_11_210basic_jsonINS_3mapENS_6vectorES9_bxydS7_NSB_14adl_serializerENSE_IhNS7_IhEEEEEEEEPNS_11__tree_nodeISJ_PvEElEEEESP_EEbT_SQ_T0_, symObjAddr: 0x2A848, symBinAddr: 0x100033970, symSize: 0x50 }
  - { offsetInCU: 0x37207, offset: 0x37207, size: 0x8, addend: 0x0, symName: __ZNSt3__15equalB7v160006INS_20__map_const_iteratorINS_21__tree_const_iteratorINS_12__value_typeINS_12basic_stringIcNS_11char_traitsIcEENS_9allocatorIcEEEEN8nlohmann16json_abi_v3_11_210basic_jsonINS_3mapENS_6vectorES9_bxydS7_NSB_14adl_serializerENSE_IhNS7_IhEEEEEEEEPNS_11__tree_nodeISJ_PvEElEEEESP_NS_10__equal_toEEEbT_SR_T0_T1_, symObjAddr: 0x2A898, symBinAddr: 0x1000339C0, symSize: 0xB0 }
  - { offsetInCU: 0x37278, offset: 0x37278, size: 0x8, addend: 0x0, symName: __ZNSt3__1eqB7v160006IKNS_12basic_stringIcNS_11char_traitsIcEENS_9allocatorIcEEEEN8nlohmann16json_abi_v3_11_210basic_jsonINS_3mapENS_6vectorES6_bxydS4_NS9_14adl_serializerENSC_IhNS4_IhEEEEEEEEbRKNS_4pairIT_T0_EESM_, symObjAddr: 0x2A97C, symBinAddr: 0x100033AA4, symSize: 0x60 }
  - { offsetInCU: 0x372C7, offset: 0x372C7, size: 0x8, addend: 0x0, symName: __ZNSt3__1eqB7v160006IJRKNS_6vectorIhNS_9allocatorIhEEEERKyRKbEJS6_S8_SA_EEEbRKNS_5tupleIJDpT_EEERKNSB_IJDpT0_EEE, symObjAddr: 0x2A9DC, symBinAddr: 0x100033B04, symSize: 0x34 }
  - { offsetInCU: 0x3732E, offset: 0x3732E, size: 0x8, addend: 0x0, symName: __ZNSt3__13tieB7v160006IJKNS_6vectorIhNS_9allocatorIhEEEEKyKbEEENS_5tupleIJDpRT_EEESB_, symObjAddr: 0x2AA10, symBinAddr: 0x100033B38, symSize: 0x40 }
  - { offsetInCU: 0x3794D, offset: 0x3794D, size: 0x8, addend: 0x0, symName: __ZNSt3__13getB7v160006ILm2EJRKNS_6vectorIhNS_9allocatorIhEEEERKyRKbEEERKNS_13tuple_elementIXT_ENS_5tupleIJDpT0_EEEE4typeERKSF_, symObjAddr: 0x2AB50, symBinAddr: 0x100033C78, symSize: 0x28 }
  - { offsetInCU: 0x379E1, offset: 0x379E1, size: 0x8, addend: 0x0, symName: __ZNSt3__13getB7v160006ILm1EJRKNS_6vectorIhNS_9allocatorIhEEEERKyRKbEEERKNS_13tuple_elementIXT_ENS_5tupleIJDpT0_EEEE4typeERKSF_, symObjAddr: 0x2ABEC, symBinAddr: 0x100033D14, symSize: 0x28 }
  - { offsetInCU: 0x37A75, offset: 0x37A75, size: 0x8, addend: 0x0, symName: __ZNSt3__1eqB7v160006IhNS_9allocatorIhEEEEbRKNS_6vectorIT_T0_EES8_, symObjAddr: 0x2AC34, symBinAddr: 0x100033D5C, symSize: 0x9C }
  - { offsetInCU: 0x37AD3, offset: 0x37AD3, size: 0x8, addend: 0x0, symName: __ZNSt3__13getB7v160006ILm0EJRKNS_6vectorIhNS_9allocatorIhEEEERKyRKbEEERKNS_13tuple_elementIXT_ENS_5tupleIJDpT0_EEEE4typeERKSF_, symObjAddr: 0x2ACD0, symBinAddr: 0x100033DF8, symSize: 0x24 }
  - { offsetInCU: 0x37B20, offset: 0x37B20, size: 0x8, addend: 0x0, symName: __ZNSt3__15equalB7v160006INS_11__wrap_iterIPKhEES4_EEbT_S5_T0_, symObjAddr: 0x2ACF4, symBinAddr: 0x100033E1C, symSize: 0x50 }
  - { offsetInCU: 0x37B7A, offset: 0x37B7A, size: 0x8, addend: 0x0, symName: __ZNSt3__15equalB7v160006INS_11__wrap_iterIPKhEES4_NS_10__equal_toEEEbT_S6_T0_T1_, symObjAddr: 0x2ADA4, symBinAddr: 0x100033ECC, symSize: 0xB0 }
  - { offsetInCU: 0x37BEB, offset: 0x37BEB, size: 0x8, addend: 0x0, symName: __ZNSt3__1neB7v160006IPKhEEbRKNS_11__wrap_iterIT_EES7_, symObjAddr: 0x2AE54, symBinAddr: 0x100033F7C, symSize: 0x34 }
  - { offsetInCU: 0x37C2E, offset: 0x37C2E, size: 0x8, addend: 0x0, symName: __ZNSt3__1eqB7v160006IPKhEEbRKNS_11__wrap_iterIT_EES7_, symObjAddr: 0x2AEF4, symBinAddr: 0x10003401C, symSize: 0x48 }
  - { offsetInCU: 0x37FD5, offset: 0x37FD5, size: 0x8, addend: 0x0, symName: __ZNSt3__1neB7v160006INS_12basic_stringIcNS_11char_traitsIcEENS_9allocatorIcEEEEZN8nlohmann16json_abi_v3_11_210basic_jsonINS_3mapENS_6vectorES6_bxydS4_NS8_14adl_serializerENSB_IhNS4_IhEEEEE6createIS6_JRKPKcEEEPT_DpOT0_EUlPS6_E_EEbRKNS_10unique_ptrISL_T0_EEDn, symObjAddr: 0x2B570, symBinAddr: 0x100034698, symSize: 0x2C }
  - { offsetInCU: 0x38045, offset: 0x38045, size: 0x8, addend: 0x0, symName: __ZNSt3__115__debug_db_swapB7v160006INS_12basic_stringIcNS_11char_traitsIcEENS_9allocatorIcEEEEEEvPT_S8_, symObjAddr: 0x2BFF0, symBinAddr: 0x100035118, symSize: 0x14 }
  - { offsetInCU: 0x380A8, offset: 0x380A8, size: 0x8, addend: 0x0, symName: __ZNSt3__18distanceB7v160006INS_21__tree_const_iteratorINS_12__value_typeINS_12basic_stringIcNS_11char_traitsIcEENS_9allocatorIcEEEEN8nlohmann16json_abi_v3_11_210basic_jsonINS_3mapENS_6vectorES8_bxydS6_NSA_14adl_serializerENSD_IhNS6_IhEEEEEEEEPNS_11__tree_nodeISI_PvEElEEEENS_15iterator_traitsIT_E15difference_typeESP_SP_, symObjAddr: 0x2CC18, symBinAddr: 0x100035D40, symSize: 0x3C }
  - { offsetInCU: 0x380EB, offset: 0x380EB, size: 0x8, addend: 0x0, symName: __ZNSt3__1ltB7v160006IcNS_11char_traitsIcEENS_9allocatorIcEEEEbPKT_RKNS_12basic_stringIS5_T0_T1_EE, symObjAddr: 0x2CDD0, symBinAddr: 0x100035EF8, symSize: 0x38 }
  - { offsetInCU: 0x38143, offset: 0x38143, size: 0x8, addend: 0x0, symName: __ZNSt3__1ltB7v160006IcNS_11char_traitsIcEENS_9allocatorIcEEEEbRKNS_12basic_stringIT_T0_T1_EEPKS6_, symObjAddr: 0x2CE3C, symBinAddr: 0x100035F64, symSize: 0x38 }
  - { offsetInCU: 0x3819B, offset: 0x3819B, size: 0x8, addend: 0x0, symName: __ZNSt3__110__distanceB7v160006INS_21__tree_const_iteratorINS_12__value_typeINS_12basic_stringIcNS_11char_traitsIcEENS_9allocatorIcEEEEN8nlohmann16json_abi_v3_11_210basic_jsonINS_3mapENS_6vectorES8_bxydS6_NSA_14adl_serializerENSD_IhNS6_IhEEEEEEEEPNS_11__tree_nodeISI_PvEElEEEENS_15iterator_traitsIT_E15difference_typeESP_SP_NS_18input_iterator_tagE, symObjAddr: 0x2CE74, symBinAddr: 0x100035F9C, symSize: 0x5C }
  - { offsetInCU: 0x381F8, offset: 0x381F8, size: 0x8, addend: 0x0, symName: __ZNSt3__142__uninitialized_allocator_move_if_noexceptB7v160006INS_9allocatorIhEENS_16reverse_iteratorIPhEES5_hvEET1_RT_T0_S9_S6_, symObjAddr: 0x2DA24, symBinAddr: 0x100036B4C, symSize: 0x78 }
  - { offsetInCU: 0x38277, offset: 0x38277, size: 0x8, addend: 0x0, symName: __ZNSt3__14swapB7v160006IPhEENS_9enable_ifIXaasr21is_move_constructibleIT_EE5valuesr18is_move_assignableIS3_EE5valueEvE4typeERS3_S6_, symObjAddr: 0x2DA9C, symBinAddr: 0x100036BC4, symSize: 0x3C }
  - { offsetInCU: 0x382CA, offset: 0x382CA, size: 0x8, addend: 0x0, symName: __ZNSt3__125__debug_db_invalidate_allB7v160006INS_6vectorIhNS_9allocatorIhEEEEEEvPT_, symObjAddr: 0x2DAD8, symBinAddr: 0x100036C00, symSize: 0x10 }
  - { offsetInCU: 0x382FB, offset: 0x382FB, size: 0x8, addend: 0x0, symName: __ZNSt3__14moveB7v160006INS_16reverse_iteratorIPhEES3_EET0_T_S5_S4_, symObjAddr: 0x2DAE8, symBinAddr: 0x100036C10, symSize: 0x78 }
  - { offsetInCU: 0x38355, offset: 0x38355, size: 0x8, addend: 0x0, symName: __ZNSt3__16__moveB7v160006INS_17_ClassicAlgPolicyENS_16reverse_iteratorIPhEES4_S4_EENS_4pairIT0_T2_EES6_T1_S7_, symObjAddr: 0x2DB60, symBinAddr: 0x100036C88, symSize: 0x64 }
  - { offsetInCU: 0x383C1, offset: 0x383C1, size: 0x8, addend: 0x0, symName: __ZNSt3__123__dispatch_copy_or_moveB7v160006INS_17_ClassicAlgPolicyENS_11__move_loopIS1_EENS_14__move_trivialENS_16reverse_iteratorIPhEES7_S7_EENS_4pairIT2_T4_EES9_T3_SA_, symObjAddr: 0x2DBC4, symBinAddr: 0x100036CEC, symSize: 0x64 }
  - { offsetInCU: 0x3843F, offset: 0x3843F, size: 0x8, addend: 0x0, symName: __ZNSt3__121__unwrap_and_dispatchB7v160006INS_10__overloadINS_11__move_loopINS_17_ClassicAlgPolicyEEENS_14__move_trivialEEENS_16reverse_iteratorIPhEES9_S9_Li0EEENS_4pairIT0_T2_EESB_T1_SC_, symObjAddr: 0x2DC28, symBinAddr: 0x100036D50, symSize: 0x12C }
  - { offsetInCU: 0x384D1, offset: 0x384D1, size: 0x8, addend: 0x0, symName: __ZNSt3__114__unwrap_rangeB7v160006INS_16reverse_iteratorIPhEES3_EENS_4pairIT0_S5_EET_S7_, symObjAddr: 0x2DD54, symBinAddr: 0x100036E7C, symSize: 0x84 }
  - { offsetInCU: 0x385F1, offset: 0x385F1, size: 0x8, addend: 0x0, symName: __ZNSt3__113__unwrap_iterB7v160006INS_16reverse_iteratorIPhEENS_18__unwrap_iter_implIS3_Lb0EEELi0EEEDTclsrT0_8__unwrapclsr3stdE7declvalIT_EEEES7_, symObjAddr: 0x2DE78, symBinAddr: 0x100036FA0, symSize: 0x44 }
  - { offsetInCU: 0x38635, offset: 0x38635, size: 0x8, addend: 0x0, symName: __ZNSt3__19make_pairB7v160006INS_16reverse_iteratorIPhEES3_EENS_4pairINS_18__unwrap_ref_decayIT_E4typeENS5_IT0_E4typeEEEOS6_OS9_, symObjAddr: 0x2DEBC, symBinAddr: 0x100036FE4, symSize: 0x38 }
  - { offsetInCU: 0x38684, offset: 0x38684, size: 0x8, addend: 0x0, symName: __ZNSt3__114__rewrap_rangeB7v160006INS_16reverse_iteratorIPhEES3_EET_S4_T0_, symObjAddr: 0x2DEF4, symBinAddr: 0x10003701C, symSize: 0x5C }
  - { offsetInCU: 0x386D0, offset: 0x386D0, size: 0x8, addend: 0x0, symName: __ZNSt3__113__rewrap_iterB7v160006INS_16reverse_iteratorIPhEES3_NS_18__unwrap_iter_implIS3_Lb0EEEEET_S6_T0_, symObjAddr: 0x2DF50, symBinAddr: 0x100037078, symSize: 0x74 }
  - { offsetInCU: 0x38791, offset: 0x38791, size: 0x8, addend: 0x0, symName: __ZNSt3__118__constexpr_strlenB7v160006EPKc, symObjAddr: 0x2E79C, symBinAddr: 0x1000378C4, symSize: 0x24 }
  - { offsetInCU: 0x3892A, offset: 0x3892A, size: 0x8, addend: 0x0, symName: '__ZNSt3__116forward_as_tupleB7v160006IJZN8ICabbageC1ERKN5iplug12InstanceInfoEE3$_0EEENS_5tupleIJDpOT_EEESA_', symObjAddr: 0x2F160, symBinAddr: 0x100038288, symSize: 0x2C }
  - { offsetInCU: 0x38963, offset: 0x38963, size: 0x8, addend: 0x0, symName: '__ZNSt3__116forward_as_tupleB7v160006IJNS_9allocatorIZN8ICabbageC1ERKN5iplug12InstanceInfoEE3$_0EEEEENS_5tupleIJDpOT_EEESC_', symObjAddr: 0x2F18C, symBinAddr: 0x1000382B4, symSize: 0x2C }
  - { offsetInCU: 0x389C6, offset: 0x389C6, size: 0x8, addend: 0x0, symName: '__ZNSt3__13getB7v160006ILm0EJOZN8ICabbageC1ERKN5iplug12InstanceInfoEE3$_0EEERNS_13tuple_elementIXT_ENS_5tupleIJDpT0_EEEE4typeERSC_', symObjAddr: 0x2F4A4, symBinAddr: 0x1000385CC, symSize: 0x24 }
  - { offsetInCU: 0x38A08, offset: 0x38A08, size: 0x8, addend: 0x0, symName: '__ZNSt3__13getB7v160006ILm0EJONS_9allocatorIZN8ICabbageC1ERKN5iplug12InstanceInfoEE3$_0EEEEERNS_13tuple_elementIXT_ENS_5tupleIJDpT0_EEEE4typeERSE_', symObjAddr: 0x2F4E0, symBinAddr: 0x100038608, symSize: 0x24 }
  - { offsetInCU: 0x38F5B, offset: 0x38F5B, size: 0x8, addend: 0x0, symName: '__ZNSt3__116forward_as_tupleB7v160006IJRKZN8ICabbageC1ERKN5iplug12InstanceInfoEE3$_0EEENS_5tupleIJDpOT_EEESC_', symObjAddr: 0x2FA74, symBinAddr: 0x100038B9C, symSize: 0x2C }
  - { offsetInCU: 0x38FA9, offset: 0x38FA9, size: 0x8, addend: 0x0, symName: '__ZNSt3__13getB7v160006ILm0EJRKZN8ICabbageC1ERKN5iplug12InstanceInfoEE3$_0EEERNS_13tuple_elementIXT_ENS_5tupleIJDpT0_EEEE4typeERSD_', symObjAddr: 0x2FC64, symBinAddr: 0x100038D8C, symSize: 0x24 }
  - { offsetInCU: 0x38FEB, offset: 0x38FEB, size: 0x8, addend: 0x0, symName: '__ZNSt3__116forward_as_tupleB7v160006IJRKNS_9allocatorIZN8ICabbageC1ERKN5iplug12InstanceInfoEE3$_0EEEEENS_5tupleIJDpOT_EEESE_', symObjAddr: 0x2FFC0, symBinAddr: 0x1000390E8, symSize: 0x2C }
  - { offsetInCU: 0x39039, offset: 0x39039, size: 0x8, addend: 0x0, symName: '__ZNSt3__13getB7v160006ILm0EJRKNS_9allocatorIZN8ICabbageC1ERKN5iplug12InstanceInfoEE3$_0EEEEERNS_13tuple_elementIXT_ENS_5tupleIJDpT0_EEEE4typeERSF_', symObjAddr: 0x301A4, symBinAddr: 0x1000392CC, symSize: 0x24 }
  - { offsetInCU: 0x390ED, offset: 0x390ED, size: 0x8, addend: 0x0, symName: '__ZNSt3__18__invokeB7v160006IRZN8ICabbageC1ERKN5iplug12InstanceInfoEE3$_0JEEEDTclclsr3stdE7declvalIT_EEspclsr3stdE7declvalIT0_EEEEOS8_DpOS9_', symObjAddr: 0x30260, symBinAddr: 0x100039388, symSize: 0x24 }
  - { offsetInCU: 0x39126, offset: 0x39126, size: 0x8, addend: 0x0, symName: __ZNSt3__14swapB7v160006IPNS_10__function6__baseIFvvEEEEENS_9enable_ifIXaasr21is_move_constructibleIT_EE5valuesr18is_move_assignableIS7_EE5valueEvE4typeERS7_SA_, symObjAddr: 0x30788, symBinAddr: 0x1000398B0, symSize: 0x3C }
  - { offsetInCU: 0x392E5, offset: 0x392E5, size: 0x8, addend: 0x0, symName: '__ZNSt3__116forward_as_tupleB7v160006IJZN8ICabbageC1ERKN5iplug12InstanceInfoEE3$_1EEENS_5tupleIJDpOT_EEESA_', symObjAddr: 0x31000, symBinAddr: 0x10003A128, symSize: 0x2C }
  - { offsetInCU: 0x3931E, offset: 0x3931E, size: 0x8, addend: 0x0, symName: '__ZNSt3__116forward_as_tupleB7v160006IJNS_9allocatorIZN8ICabbageC1ERKN5iplug12InstanceInfoEE3$_1EEEEENS_5tupleIJDpOT_EEESC_', symObjAddr: 0x3102C, symBinAddr: 0x10003A154, symSize: 0x2C }
  - { offsetInCU: 0x39381, offset: 0x39381, size: 0x8, addend: 0x0, symName: '__ZNSt3__13getB7v160006ILm0EJOZN8ICabbageC1ERKN5iplug12InstanceInfoEE3$_1EEERNS_13tuple_elementIXT_ENS_5tupleIJDpT0_EEEE4typeERSC_', symObjAddr: 0x31344, symBinAddr: 0x10003A46C, symSize: 0x24 }
  - { offsetInCU: 0x393C3, offset: 0x393C3, size: 0x8, addend: 0x0, symName: '__ZNSt3__13getB7v160006ILm0EJONS_9allocatorIZN8ICabbageC1ERKN5iplug12InstanceInfoEE3$_1EEEEERNS_13tuple_elementIXT_ENS_5tupleIJDpT0_EEEE4typeERSE_', symObjAddr: 0x31380, symBinAddr: 0x10003A4A8, symSize: 0x24 }
  - { offsetInCU: 0x39916, offset: 0x39916, size: 0x8, addend: 0x0, symName: '__ZNSt3__116forward_as_tupleB7v160006IJRKZN8ICabbageC1ERKN5iplug12InstanceInfoEE3$_1EEENS_5tupleIJDpOT_EEESC_', symObjAddr: 0x31914, symBinAddr: 0x10003AA3C, symSize: 0x2C }
  - { offsetInCU: 0x39964, offset: 0x39964, size: 0x8, addend: 0x0, symName: '__ZNSt3__13getB7v160006ILm0EJRKZN8ICabbageC1ERKN5iplug12InstanceInfoEE3$_1EEERNS_13tuple_elementIXT_ENS_5tupleIJDpT0_EEEE4typeERSD_', symObjAddr: 0x31B04, symBinAddr: 0x10003AC2C, symSize: 0x24 }
  - { offsetInCU: 0x399A6, offset: 0x399A6, size: 0x8, addend: 0x0, symName: '__ZNSt3__116forward_as_tupleB7v160006IJRKNS_9allocatorIZN8ICabbageC1ERKN5iplug12InstanceInfoEE3$_1EEEEENS_5tupleIJDpOT_EEESE_', symObjAddr: 0x31E60, symBinAddr: 0x10003AF88, symSize: 0x2C }
  - { offsetInCU: 0x399F4, offset: 0x399F4, size: 0x8, addend: 0x0, symName: '__ZNSt3__13getB7v160006ILm0EJRKNS_9allocatorIZN8ICabbageC1ERKN5iplug12InstanceInfoEE3$_1EEEEERNS_13tuple_elementIXT_ENS_5tupleIJDpT0_EEEE4typeERSF_', symObjAddr: 0x32044, symBinAddr: 0x10003B16C, symSize: 0x24 }
  - { offsetInCU: 0x39A37, offset: 0x39A37, size: 0x8, addend: 0x0, symName: '__ZNSt3__18__invokeB7v160006IRZN8ICabbageC1ERKN5iplug12InstanceInfoEE3$_1JNS_10shared_ptrIN2ix15ConnectionStateEEERNS9_9WebSocketERKNS_10unique_ptrINS9_16WebSocketMessageENS_14default_deleteISF_EEEEEEEDTclclsr3stdE7declvalIT_EEspclsr3stdE7declvalIT0_EEEEOSL_DpOSM_', symObjAddr: 0x32130, symBinAddr: 0x10003B258, symSize: 0x80 }
  - { offsetInCU: 0x39AAC, offset: 0x39AAC, size: 0x8, addend: 0x0, symName: __ZNSt3__1lsB7v160006IcNS_11char_traitsIcEENS_9allocatorIcEEEERNS_13basic_ostreamIT_T0_EES9_RKNS_12basic_stringIS6_S7_T1_EE, symObjAddr: 0x32530, symBinAddr: 0x10003B658, symSize: 0x4C }
  - { offsetInCU: 0x39B04, offset: 0x39B04, size: 0x8, addend: 0x0, symName: __ZNSt3__1lsB7v160006INS_11char_traitsIcEEEERNS_13basic_ostreamIcT_EES6_PKc, symObjAddr: 0x3257C, symBinAddr: 0x10003B6A4, symSize: 0x48 }
  - { offsetInCU: 0x39B4A, offset: 0x39B4A, size: 0x8, addend: 0x0, symName: __ZNSt3__14endlB7v160006IcNS_11char_traitsIcEEEERNS_13basic_ostreamIT_T0_EES7_, symObjAddr: 0x32608, symBinAddr: 0x10003B730, symSize: 0x58 }
  - { offsetInCU: 0x39B8A, offset: 0x39B8A, size: 0x8, addend: 0x0, symName: __ZNSt3__1neB7v160006ERKNS_14__map_iteratorINS_15__tree_iteratorINS_12__value_typeINS_12basic_stringIcNS_11char_traitsIcEENS_9allocatorIcEEEES8_EEPNS_11__tree_nodeIS9_PvEElEEEESH_, symObjAddr: 0x326F8, symBinAddr: 0x10003B820, symSize: 0x30 }
  - { offsetInCU: 0x39BC7, offset: 0x39BC7, size: 0x8, addend: 0x0, symName: __ZNSt3__116__pad_and_outputB7v160006IcNS_11char_traitsIcEEEENS_19ostreambuf_iteratorIT_T0_EES6_PKS4_S8_S8_RNS_8ios_baseES4_, symObjAddr: 0x329FC, symBinAddr: 0x10003BB24, symSize: 0x240 }
  - { offsetInCU: 0x39C97, offset: 0x39C97, size: 0x8, addend: 0x0, symName: __ZNSt3__19use_facetB7v160006INS_5ctypeIcEEEERKT_RKNS_6localeE, symObjAddr: 0x32F88, symBinAddr: 0x10003C0B0, symSize: 0x2C }
  - { offsetInCU: 0x3A167, offset: 0x3A167, size: 0x8, addend: 0x0, symName: __ZNSt3__1neB7v160006ERKNS_15__tree_iteratorINS_12__value_typeINS_12basic_stringIcNS_11char_traitsIcEENS_9allocatorIcEEEES7_EEPNS_11__tree_nodeIS8_PvEElEESF_, symObjAddr: 0x331CC, symBinAddr: 0x10003C2F4, symSize: 0x34 }
  - { offsetInCU: 0x3A1A4, offset: 0x3A1A4, size: 0x8, addend: 0x0, symName: __ZNSt3__1eqB7v160006ERKNS_15__tree_iteratorINS_12__value_typeINS_12basic_stringIcNS_11char_traitsIcEENS_9allocatorIcEEEES7_EEPNS_11__tree_nodeIS8_PvEElEESF_, symObjAddr: 0x33200, symBinAddr: 0x10003C328, symSize: 0x30 }
  - { offsetInCU: 0x3A214, offset: 0x3A214, size: 0x8, addend: 0x0, symName: __ZNSt3__17launderB7v160006INS_4pairIKNS_12basic_stringIcNS_11char_traitsIcEENS_9allocatorIcEEEES7_EEEEPT_SB_, symObjAddr: 0x332AC, symBinAddr: 0x10003C3D4, symSize: 0x24 }
  - { offsetInCU: 0x3A24B, offset: 0x3A24B, size: 0x8, addend: 0x0, symName: __ZNSt3__19__launderB7v160006INS_4pairIKNS_12basic_stringIcNS_11char_traitsIcEENS_9allocatorIcEEEES7_EEEEPT_SB_, symObjAddr: 0x332D0, symBinAddr: 0x10003C3F8, symSize: 0x14 }
  - { offsetInCU: 0x3A283, offset: 0x3A283, size: 0x8, addend: 0x0, symName: __ZNSt3__134__libcpp_atomic_refcount_decrementB7v160006IlEET_RS1_, symObjAddr: 0x33510, symBinAddr: 0x10003C638, symSize: 0x30 }
  - { offsetInCU: 0x3A348, offset: 0x3A348, size: 0x8, addend: 0x0, symName: __ZNSt3__134__libcpp_atomic_refcount_incrementB7v160006IlEET_RS1_, symObjAddr: 0x33B80, symBinAddr: 0x10003CCA8, symSize: 0x30 }
  - { offsetInCU: 0x3AF04, offset: 0x3AF04, size: 0x8, addend: 0x0, symName: __ZSt28__throw_bad_array_new_lengthB7v160006v, symObjAddr: 0x5B48, symBinAddr: 0x10000EC70, symSize: 0x34 }
  - { offsetInCU: 0x3B069, offset: 0x3B069, size: 0x8, addend: 0x0, symName: __ZN8nlohmann16json_abi_v3_11_26detail12static_constINS1_12from_json_fnEE5valueE, symObjAddr: 0x37347, symBinAddr: 0x100143967, symSize: 0x0 }
  - { offsetInCU: 0x3B07C, offset: 0x3B07C, size: 0x8, addend: 0x0, symName: __ZL16wdl_base64decodePKcPhi, symObjAddr: 0x7B44, symBinAddr: 0x100010C6C, symSize: 0x120 }
  - { offsetInCU: 0x3B0A6, offset: 0x3B0A6, size: 0x8, addend: 0x0, symName: __ZZL16wdl_base64decodePKcPhiE3tab, symObjAddr: 0x38730, symBinAddr: 0x100169830, symSize: 0x0 }
  - { offsetInCU: 0x3B16D, offset: 0x3B16D, size: 0x8, addend: 0x0, symName: __ZN5iplug14LogParamSmoothIdLi1EE13SetSmoothTimeEdd, symObjAddr: 0xDDC, symBinAddr: 0x100009F04, symSize: 0x6C }
  - { offsetInCU: 0x3B190, offset: 0x3B190, size: 0x8, addend: 0x0, symName: __ZZN5iplug14LogParamSmoothIdLi1EE13SetSmoothTimeEddE6TWO_PI, symObjAddr: 0x386E8, symBinAddr: 0x100144CE8, symSize: 0x0 }
  - { offsetInCU: 0x3F8EA, offset: 0x3F8EA, size: 0x8, addend: 0x0, symName: __ZNSt3__16vectorIcNS_9allocatorIcEEE26__swap_out_circular_bufferERNS_14__split_bufferIcRS2_EE, symObjAddr: 0x522C, symBinAddr: 0x10000E354, symSize: 0x118 }
  - { offsetInCU: 0x3FCAF, offset: 0x3FCAF, size: 0x8, addend: 0x0, symName: __ZNSt3__16vectorIN8nlohmann16json_abi_v3_11_210basic_jsonINS_3mapES0_NS_12basic_stringIcNS_11char_traitsIcEENS_9allocatorIcEEEEbxydS8_NS2_14adl_serializerENS0_IhNS8_IhEEEEEENS8_ISE_EEE26__swap_out_circular_bufferERNS_14__split_bufferISE_RSF_EE, symObjAddr: 0x16B10, symBinAddr: 0x10001FC38, symSize: 0x118 }
  - { offsetInCU: 0x3FD42, offset: 0x3FD42, size: 0x8, addend: 0x0, symName: __ZNSt3__16vectorIPN8nlohmann16json_abi_v3_11_210basic_jsonINS_3mapES0_NS_12basic_stringIcNS_11char_traitsIcEENS_9allocatorIcEEEEbxydS8_NS2_14adl_serializerENS0_IhNS8_IhEEEEEENS8_ISF_EEE26__swap_out_circular_bufferERNS_14__split_bufferISF_RSG_EE, symObjAddr: 0x18120, symBinAddr: 0x100021248, symSize: 0x118 }
  - { offsetInCU: 0x3FECF, offset: 0x3FECF, size: 0x8, addend: 0x0, symName: __ZNSt3__16vectorIhNS_9allocatorIhEEE26__swap_out_circular_bufferERNS_14__split_bufferIhRS2_EE, symObjAddr: 0x2D5A0, symBinAddr: 0x1000366C8, symSize: 0x118 }
  - { offsetInCU: 0x42F97, offset: 0x42F97, size: 0x8, addend: 0x0, symName: __ZN8ICabbageC1ERKN5iplug12InstanceInfoE, symObjAddr: 0x1B8, symBinAddr: 0x1000092E0, symSize: 0x34 }
  - { offsetInCU: 0x45749, offset: 0x45749, size: 0x8, addend: 0x0, symName: __ZN9WDL_MutexC1Ev, symObjAddr: 0x12C, symBinAddr: 0x100009254, symSize: 0x2C }
  - { offsetInCU: 0x45772, offset: 0x45772, size: 0x8, addend: 0x0, symName: __ZN9WDL_MutexD1Ev, symObjAddr: 0x158, symBinAddr: 0x100009280, symSize: 0x2C }
  - { offsetInCU: 0x457DE, offset: 0x457DE, size: 0x8, addend: 0x0, symName: __ZN13WDL_MutexLockC1EP9WDL_Mutex, symObjAddr: 0x184, symBinAddr: 0x1000092AC, symSize: 0x34 }
  - { offsetInCU: 0x45815, offset: 0x45815, size: 0x8, addend: 0x0, symName: __ZN13WDL_MutexLockD1Ev, symObjAddr: 0x1EC, symBinAddr: 0x100009314, symSize: 0x2C }
  - { offsetInCU: 0x4583E, offset: 0x4583E, size: 0x8, addend: 0x0, symName: __ZN8ICabbageC2ERKN5iplug12InstanceInfoE, symObjAddr: 0x218, symBinAddr: 0x100009340, symSize: 0x364 }
  - { offsetInCU: 0x45895, offset: 0x45895, size: 0x8, addend: 0x0, symName: __ZNSt3__112basic_stringIcNS_11char_traitsIcEENS_9allocatorIcEEEC1B7v160006IDnEEPKc, symObjAddr: 0x650, symBinAddr: 0x100009778, symSize: 0x34 }
  - { offsetInCU: 0x458D2, offset: 0x458D2, size: 0x8, addend: 0x0, symName: __ZN5iplug17FastSinOscillatorIdEC1Edd, symObjAddr: 0x684, symBinAddr: 0x1000097AC, symSize: 0x3C }
  - { offsetInCU: 0x45917, offset: 0x45917, size: 0x8, addend: 0x0, symName: __ZN5iplug14LogParamSmoothIdLi1EEC1Edd, symObjAddr: 0x6C0, symBinAddr: 0x1000097E8, symSize: 0x3C }
  - { offsetInCU: 0x4595B, offset: 0x4595B, size: 0x8, addend: 0x0, symName: __ZN5iplug15IEditorDelegate8GetParamEi, symObjAddr: 0x6FC, symBinAddr: 0x100009824, symSize: 0x30 }
  - { offsetInCU: 0x4598E, offset: 0x4598E, size: 0x8, addend: 0x0, symName: __ZN21WebViewEditorDelegate17SetEnableDevToolsEb, symObjAddr: 0x72C, symBinAddr: 0x100009854, symSize: 0x2C }
  - { offsetInCU: 0x459C1, offset: 0x459C1, size: 0x8, addend: 0x0, symName: '__ZNSt3__18functionIFvvEEaSIZN8ICabbageC1ERKN5iplug12InstanceInfoEE3$_0vEERS2_OT_', symObjAddr: 0x758, symBinAddr: 0x100009880, symSize: 0x90 }
  - { offsetInCU: 0x45A02, offset: 0x45A02, size: 0x8, addend: 0x0, symName: '__ZNSt3__18functionIFvNS_10shared_ptrIN2ix15ConnectionStateEEERNS2_9WebSocketERKNS_10unique_ptrINS2_16WebSocketMessageENS_14default_deleteIS8_EEEEEEC1IZN8ICabbageC1ERKN5iplug12InstanceInfoEE3$_1vEET_', symObjAddr: 0x7E8, symBinAddr: 0x100009910, symSize: 0x34 }
  - { offsetInCU: 0x45A47, offset: 0x45A47, size: 0x8, addend: 0x0, symName: __ZNSt3__18functionIFvNS_10shared_ptrIN2ix15ConnectionStateEEERNS2_9WebSocketERKNS_10unique_ptrINS2_16WebSocketMessageENS_14default_deleteIS8_EEEEEED1Ev, symObjAddr: 0x81C, symBinAddr: 0x100009944, symSize: 0x2C }
  - { offsetInCU: 0x45A72, offset: 0x45A72, size: 0x8, addend: 0x0, symName: __ZNSt3__14pairIbNS_12basic_stringIcNS_11char_traitsIcEENS_9allocatorIcEEEEED1Ev, symObjAddr: 0x848, symBinAddr: 0x100009970, symSize: 0x2C }
  - { offsetInCU: 0x45A9D, offset: 0x45A9D, size: 0x8, addend: 0x0, symName: __ZN5iplug8IPlugAPPD2Ev, symObjAddr: 0x874, symBinAddr: 0x10000999C, symSize: 0x70 }
  - { offsetInCU: 0x45AC8, offset: 0x45AC8, size: 0x8, addend: 0x0, symName: __ZN8ICabbageD2Ev, symObjAddr: 0x8E4, symBinAddr: 0x100009A0C, symSize: 0x58 }
  - { offsetInCU: 0x45AF3, offset: 0x45AF3, size: 0x8, addend: 0x0, symName: __ZN8ICabbageD1Ev, symObjAddr: 0x948, symBinAddr: 0x100009A70, symSize: 0x2C }
  - { offsetInCU: 0x45B1E, offset: 0x45B1E, size: 0x8, addend: 0x0, symName: __ZThn56_N8ICabbageD1Ev, symObjAddr: 0x974, symBinAddr: 0x100009A9C, symSize: 0x1C }
  - { offsetInCU: 0x45B34, offset: 0x45B34, size: 0x8, addend: 0x0, symName: __ZThn1112_N8ICabbageD1Ev, symObjAddr: 0x990, symBinAddr: 0x100009AB8, symSize: 0x1C }
  - { offsetInCU: 0x45B4A, offset: 0x45B4A, size: 0x8, addend: 0x0, symName: __ZN8ICabbageD0Ev, symObjAddr: 0x9AC, symBinAddr: 0x100009AD4, symSize: 0x30 }
  - { offsetInCU: 0x45B75, offset: 0x45B75, size: 0x8, addend: 0x0, symName: __ZThn56_N8ICabbageD0Ev, symObjAddr: 0x9DC, symBinAddr: 0x100009B04, symSize: 0x18 }
  - { offsetInCU: 0x45B8B, offset: 0x45B8B, size: 0x8, addend: 0x0, symName: __ZThn1112_N8ICabbageD0Ev, symObjAddr: 0x9F4, symBinAddr: 0x100009B1C, symSize: 0x18 }
  - { offsetInCU: 0x45BA1, offset: 0x45BA1, size: 0x8, addend: 0x0, symName: __ZN8ICabbage12ProcessBlockEPPdS1_i, symObjAddr: 0xA0C, symBinAddr: 0x100009B34, symSize: 0x138 }
  - { offsetInCU: 0x45C2D, offset: 0x45C2D, size: 0x8, addend: 0x0, symName: __ZNK5iplug6IParam7DBToAmpEv, symObjAddr: 0xB44, symBinAddr: 0x100009C6C, symSize: 0x30 }
  - { offsetInCU: 0x45C52, offset: 0x45C52, size: 0x8, addend: 0x0, symName: __ZN5iplug17FastSinOscillatorIdE12ProcessBlockEPdi, symObjAddr: 0xB74, symBinAddr: 0x100009C9C, symSize: 0x158 }
  - { offsetInCU: 0x45D4C, offset: 0x45D4C, size: 0x8, addend: 0x0, symName: __ZN5iplug14LogParamSmoothIdLi1EE7ProcessEd, symObjAddr: 0xCCC, symBinAddr: 0x100009DF4, symSize: 0x54 }
  - { offsetInCU: 0x45D7F, offset: 0x45D7F, size: 0x8, addend: 0x0, symName: __ZThn1112_N8ICabbage12ProcessBlockEPPdS1_i, symObjAddr: 0xD20, symBinAddr: 0x100009E48, symSize: 0x30 }
  - { offsetInCU: 0x45D95, offset: 0x45D95, size: 0x8, addend: 0x0, symName: __ZN8ICabbage7OnResetEv, symObjAddr: 0xD50, symBinAddr: 0x100009E78, symSize: 0x54 }
  - { offsetInCU: 0x45DCB, offset: 0x45DCB, size: 0x8, addend: 0x0, symName: __ZNK5iplug14IPlugProcessor13GetSampleRateEv, symObjAddr: 0xDA4, symBinAddr: 0x100009ECC, symSize: 0x18 }
  - { offsetInCU: 0x45DF0, offset: 0x45DF0, size: 0x8, addend: 0x0, symName: __ZN5iplug11IOscillatorIdE13SetSampleRateEd, symObjAddr: 0xDBC, symBinAddr: 0x100009EE4, symSize: 0x20 }
  - { offsetInCU: 0x45E23, offset: 0x45E23, size: 0x8, addend: 0x0, symName: __ZThn1112_N8ICabbage7OnResetEv, symObjAddr: 0xE48, symBinAddr: 0x100009F70, symSize: 0x18 }
  - { offsetInCU: 0x45E39, offset: 0x45E39, size: 0x8, addend: 0x0, symName: __ZN8ICabbage9OnMessageEiiiPKv, symObjAddr: 0xE60, symBinAddr: 0x100009F88, symSize: 0x14C }
  - { offsetInCU: 0x45EB6, offset: 0x45EB6, size: 0x8, addend: 0x0, symName: __ZN8ICabbage6OnIdleEv, symObjAddr: 0xFAC, symBinAddr: 0x10000A0D4, symSize: 0x5C }
  - { offsetInCU: 0x45EDC, offset: 0x45EDC, size: 0x8, addend: 0x0, symName: __ZN21WebViewEditorDelegate28SendControlValueFromDelegateEid, symObjAddr: 0x1008, symBinAddr: 0x10000A130, symSize: 0x134 }
  - { offsetInCU: 0x45F2D, offset: 0x45F2D, size: 0x8, addend: 0x0, symName: __ZN8ICabbage13OnParamChangeEi, symObjAddr: 0x113C, symBinAddr: 0x10000A264, symSize: 0x1D0 }
  - { offsetInCU: 0x45F89, offset: 0x45F89, size: 0x8, addend: 0x0, symName: __ZNK5iplug6IParam5ValueEv, symObjAddr: 0x130C, symBinAddr: 0x10000A434, symSize: 0x2C }
  - { offsetInCU: 0x45FAD, offset: 0x45FAD, size: 0x8, addend: 0x0, symName: __ZNKSt3__13setINS_10shared_ptrIN2ix9WebSocketEEENS_4lessIS4_EENS_9allocatorIS4_EEE4sizeB7v160006Ev, symObjAddr: 0x1338, symBinAddr: 0x10000A460, symSize: 0x28 }
  - { offsetInCU: 0x45FD1, offset: 0x45FD1, size: 0x8, addend: 0x0, symName: __ZNSt3__13setINS_10shared_ptrIN2ix9WebSocketEEENS_4lessIS4_EENS_9allocatorIS4_EEE5beginB7v160006Ev, symObjAddr: 0x1360, symBinAddr: 0x10000A488, symSize: 0x38 }
  - { offsetInCU: 0x45FF5, offset: 0x45FF5, size: 0x8, addend: 0x0, symName: __ZNKSt3__121__tree_const_iteratorINS_10shared_ptrIN2ix9WebSocketEEEPNS_11__tree_nodeIS4_PvEElEdeB7v160006Ev, symObjAddr: 0x1398, symBinAddr: 0x10000A4C0, symSize: 0x28 }
  - { offsetInCU: 0x4601A, offset: 0x4601A, size: 0x8, addend: 0x0, symName: __ZNSt3__110shared_ptrIN2ix9WebSocketEEC1B7v160006ERKS3_, symObjAddr: 0x13C0, symBinAddr: 0x10000A4E8, symSize: 0x34 }
  - { offsetInCU: 0x46052, offset: 0x46052, size: 0x8, addend: 0x0, symName: __ZNKSt3__110shared_ptrIN2ix9WebSocketEEptB7v160006Ev, symObjAddr: 0x13F4, symBinAddr: 0x10000A51C, symSize: 0x18 }
  - { offsetInCU: 0x46077, offset: 0x46077, size: 0x8, addend: 0x0, symName: __ZNSt3__18functionIFbiiEEC1B7v160006EDn, symObjAddr: 0x140C, symBinAddr: 0x10000A534, symSize: 0x34 }
  - { offsetInCU: 0x460AB, offset: 0x460AB, size: 0x8, addend: 0x0, symName: __ZNSt3__18functionIFbiiEED1Ev, symObjAddr: 0x1440, symBinAddr: 0x10000A568, symSize: 0x2C }
  - { offsetInCU: 0x460D6, offset: 0x460D6, size: 0x8, addend: 0x0, symName: __ZNSt3__110shared_ptrIN2ix9WebSocketEED1B7v160006Ev, symObjAddr: 0x146C, symBinAddr: 0x10000A594, symSize: 0x2C }
  - { offsetInCU: 0x460FF, offset: 0x460FF, size: 0x8, addend: 0x0, symName: __ZNSt3__13setINS_10shared_ptrIN2ix9WebSocketEEENS_4lessIS4_EENS_9allocatorIS4_EEED1B7v160006Ev, symObjAddr: 0x1498, symBinAddr: 0x10000A5C0, symSize: 0x2C }
  - { offsetInCU: 0x46128, offset: 0x46128, size: 0x8, addend: 0x0, symName: __ZN8ICabbage14ProcessMidiMsgERKN5iplug8IMidiMsgE, symObjAddr: 0x14C4, symBinAddr: 0x10000A5EC, symSize: 0x3C }
  - { offsetInCU: 0x4615C, offset: 0x4615C, size: 0x8, addend: 0x0, symName: __ZNK5iplug8IMidiMsg8PrintMsgEv, symObjAddr: 0x1500, symBinAddr: 0x10000A628, symSize: 0x8C }
  - { offsetInCU: 0x46181, offset: 0x46181, size: 0x8, addend: 0x0, symName: __ZThn1112_N8ICabbage14ProcessMidiMsgERKN5iplug8IMidiMsgE, symObjAddr: 0x158C, symBinAddr: 0x10000A6B4, symSize: 0x20 }
  - { offsetInCU: 0x46196, offset: 0x46196, size: 0x8, addend: 0x0, symName: __ZN21WebViewEditorDelegate11CloseWindowEv, symObjAddr: 0x15AC, symBinAddr: 0x10000A6D4, symSize: 0x28 }
  - { offsetInCU: 0x461BB, offset: 0x461BB, size: 0x8, addend: 0x0, symName: __ZN5iplug15IEditorDelegate20OnParentWindowResizeEii, symObjAddr: 0x15D4, symBinAddr: 0x10000A6FC, symSize: 0x18 }
  - { offsetInCU: 0x461FB, offset: 0x461FB, size: 0x8, addend: 0x0, symName: __ZN5iplug15IEditorDelegate8OnUIOpenEv, symObjAddr: 0x15EC, symBinAddr: 0x10000A714, symSize: 0x24 }
  - { offsetInCU: 0x46220, offset: 0x46220, size: 0x8, addend: 0x0, symName: __ZN5iplug15IEditorDelegate9OnUICloseEv, symObjAddr: 0x1610, symBinAddr: 0x10000A738, symSize: 0x10 }
  - { offsetInCU: 0x46244, offset: 0x46244, size: 0x8, addend: 0x0, symName: __ZN5iplug15IEditorDelegate13OnParamChangeEiNS_12EParamSourceEi, symObjAddr: 0x1620, symBinAddr: 0x10000A748, symSize: 0x84 }
  - { offsetInCU: 0x46293, offset: 0x46293, size: 0x8, addend: 0x0, symName: __ZN5iplug15IEditorDelegate15OnParamChangeUIEiNS_12EParamSourceE, symObjAddr: 0x16A4, symBinAddr: 0x10000A7CC, symSize: 0x18 }
  - { offsetInCU: 0x462D3, offset: 0x462D3, size: 0x8, addend: 0x0, symName: __ZN5iplug15IEditorDelegate12OnParamResetENS_12EParamSourceE, symObjAddr: 0x16BC, symBinAddr: 0x10000A7E4, symSize: 0x9C }
  - { offsetInCU: 0x46324, offset: 0x46324, size: 0x8, addend: 0x0, symName: __ZN5iplug15IEditorDelegate11OnMidiMsgUIERKNS_8IMidiMsgE, symObjAddr: 0x1758, symBinAddr: 0x10000A880, symSize: 0x14 }
  - { offsetInCU: 0x46357, offset: 0x46357, size: 0x8, addend: 0x0, symName: __ZN5iplug15IEditorDelegate12OnSysexMsgUIERKNS_6ISysExE, symObjAddr: 0x176C, symBinAddr: 0x10000A894, symSize: 0x14 }
  - { offsetInCU: 0x46389, offset: 0x46389, size: 0x8, addend: 0x0, symName: __ZN5iplug15IEditorDelegate14OnRestoreStateEv, symObjAddr: 0x1780, symBinAddr: 0x10000A8A8, symSize: 0x24 }
  - { offsetInCU: 0x463AE, offset: 0x463AE, size: 0x8, addend: 0x0, symName: __ZN5iplug15IEditorDelegate9OnKeyDownERKNS_9IKeyPressE, symObjAddr: 0x17A4, symBinAddr: 0x10000A8CC, symSize: 0x1C }
  - { offsetInCU: 0x463E1, offset: 0x463E1, size: 0x8, addend: 0x0, symName: __ZN5iplug15IEditorDelegate7OnKeyUpERKNS_9IKeyPressE, symObjAddr: 0x17C0, symBinAddr: 0x10000A8E8, symSize: 0x1C }
  - { offsetInCU: 0x46413, offset: 0x46413, size: 0x8, addend: 0x0, symName: __ZN21WebViewEditorDelegate26SendControlMsgFromDelegateEiiiPKv, symObjAddr: 0x17DC, symBinAddr: 0x10000A904, symSize: 0x1E4 }
  - { offsetInCU: 0x46493, offset: 0x46493, size: 0x8, addend: 0x0, symName: __ZN21WebViewEditorDelegate28SendArbitraryMsgFromDelegateEiiPKv, symObjAddr: 0x19C0, symBinAddr: 0x10000AAE8, symSize: 0x1D4 }
  - { offsetInCU: 0x46501, offset: 0x46501, size: 0x8, addend: 0x0, symName: __ZN21WebViewEditorDelegate23SendMidiMsgFromDelegateERKN5iplug8IMidiMsgE, symObjAddr: 0x1B94, symBinAddr: 0x10000ACBC, symSize: 0x148 }
  - { offsetInCU: 0x46543, offset: 0x46543, size: 0x8, addend: 0x0, symName: __ZN5iplug15IEditorDelegate24SendSysexMsgFromDelegateERKNS_6ISysExE, symObjAddr: 0x1CDC, symBinAddr: 0x10000AE04, symSize: 0x34 }
  - { offsetInCU: 0x46575, offset: 0x46575, size: 0x8, addend: 0x0, symName: __ZN21WebViewEditorDelegate30SendParameterValueFromDelegateEidb, symObjAddr: 0x1D10, symBinAddr: 0x10000AE38, symSize: 0x138 }
  - { offsetInCU: 0x465D4, offset: 0x465D4, size: 0x8, addend: 0x0, symName: __ZN5iplug12IPlugAPIBase34BeginInformHostOfParamChangeFromUIEi, symObjAddr: 0x1E48, symBinAddr: 0x10000AF70, symSize: 0x34 }
  - { offsetInCU: 0x46606, offset: 0x46606, size: 0x8, addend: 0x0, symName: __ZN5iplug12IPlugAPIBase24SendParameterValueFromUIEid, symObjAddr: 0x1E7C, symBinAddr: 0x10000AFA4, symSize: 0x48 }
  - { offsetInCU: 0x46646, offset: 0x46646, size: 0x8, addend: 0x0, symName: __ZN5iplug12IPlugAPIBase32EndInformHostOfParamChangeFromUIEi, symObjAddr: 0x1EC4, symBinAddr: 0x10000AFEC, symSize: 0x34 }
  - { offsetInCU: 0x46678, offset: 0x46678, size: 0x8, addend: 0x0, symName: __ZN5iplug12IPlugAPIBase12DeferMidiMsgERKNS_8IMidiMsgE, symObjAddr: 0x1EF8, symBinAddr: 0x10000B020, symSize: 0x30 }
  - { offsetInCU: 0x466AA, offset: 0x466AA, size: 0x8, addend: 0x0, symName: __ZN5iplug12IPlugAPIBase13DeferSysexMsgERKNS_6ISysExE, symObjAddr: 0x1F28, symBinAddr: 0x10000B050, symSize: 0x98 }
  - { offsetInCU: 0x466EB, offset: 0x466EB, size: 0x8, addend: 0x0, symName: __ZNK5iplug15IEditorDelegate21ConstrainEditorResizeERiS1_, symObjAddr: 0x1FC0, symBinAddr: 0x10000B0E8, symSize: 0x118 }
  - { offsetInCU: 0x4672E, offset: 0x4672E, size: 0x8, addend: 0x0, symName: __ZNK5iplug15IEditorDelegate20SerializeEditorStateERNS_10IByteChunkE, symObjAddr: 0x20D8, symBinAddr: 0x10000B200, symSize: 0x1C }
  - { offsetInCU: 0x46762, offset: 0x46762, size: 0x8, addend: 0x0, symName: __ZN5iplug15IEditorDelegate22UnserializeEditorStateERKNS_10IByteChunkEi, symObjAddr: 0x20F4, symBinAddr: 0x10000B21C, symSize: 0x1C }
  - { offsetInCU: 0x467A5, offset: 0x467A5, size: 0x8, addend: 0x0, symName: __ZN5iplug15IEditorDelegate14SetScreenScaleEf, symObjAddr: 0x2110, symBinAddr: 0x10000B238, symSize: 0x14 }
  - { offsetInCU: 0x467D8, offset: 0x467D8, size: 0x8, addend: 0x0, symName: __ZN21WebViewEditorDelegate20OnMessageFromWebViewEPKc, symObjAddr: 0x2124, symBinAddr: 0x10000B24C, symSize: 0x61C }
  - { offsetInCU: 0x46888, offset: 0x46888, size: 0x8, addend: 0x0, symName: __ZN21WebViewEditorDelegate14OnWebViewReadyEv, symObjAddr: 0x2740, symBinAddr: 0x10000B868, symSize: 0x44 }
  - { offsetInCU: 0x468AC, offset: 0x468AC, size: 0x8, addend: 0x0, symName: __ZN21WebViewEditorDelegate18OnWebContentLoadedEv, symObjAddr: 0x2784, symBinAddr: 0x10000B8AC, symSize: 0x2C }
  - { offsetInCU: 0x468D1, offset: 0x468D1, size: 0x8, addend: 0x0, symName: __ZN5iplug11IPluginBase34InformHostOfParameterDetailsChangeEv, symObjAddr: 0x27B0, symBinAddr: 0x10000B8D8, symSize: 0x10 }
  - { offsetInCU: 0x468F5, offset: 0x468F5, size: 0x8, addend: 0x0, symName: __ZNK5iplug11IPluginBase14SerializeStateERNS_10IByteChunkE, symObjAddr: 0x27C0, symBinAddr: 0x10000B8E8, symSize: 0x30 }
  - { offsetInCU: 0x46927, offset: 0x46927, size: 0x8, addend: 0x0, symName: __ZN5iplug11IPluginBase16UnserializeStateERKNS_10IByteChunkEi, symObjAddr: 0x27F0, symBinAddr: 0x10000B918, symSize: 0x34 }
  - { offsetInCU: 0x46968, offset: 0x46968, size: 0x8, addend: 0x0, symName: __ZNK5iplug11IPluginBase23SerializeVST3CtrlrStateERNS_10IByteChunkE, symObjAddr: 0x2824, symBinAddr: 0x10000B94C, symSize: 0x1C }
  - { offsetInCU: 0x4699B, offset: 0x4699B, size: 0x8, addend: 0x0, symName: __ZN5iplug11IPluginBase25UnserializeVST3CtrlrStateERKNS_10IByteChunkEi, symObjAddr: 0x2840, symBinAddr: 0x10000B968, symSize: 0x1C }
  - { offsetInCU: 0x469DC, offset: 0x469DC, size: 0x8, addend: 0x0, symName: __ZN5iplug8IPlugAPP24InformHostOfPresetChangeEv, symObjAddr: 0x285C, symBinAddr: 0x10000B984, symSize: 0x10 }
  - { offsetInCU: 0x46A01, offset: 0x46A01, size: 0x8, addend: 0x0, symName: __ZN5iplug11IPluginBase17OnPresetsModifiedEv, symObjAddr: 0x286C, symBinAddr: 0x10000B994, symSize: 0x10 }
  - { offsetInCU: 0x46A26, offset: 0x46A26, size: 0x8, addend: 0x0, symName: __ZN5iplug12IPlugAPIBase24OnHostRequestingAboutBoxEv, symObjAddr: 0x287C, symBinAddr: 0x10000B9A4, symSize: 0x18 }
  - { offsetInCU: 0x46A4B, offset: 0x46A4B, size: 0x8, addend: 0x0, symName: __ZN5iplug12IPlugAPIBase27OnHostRequestingProductHelpEv, symObjAddr: 0x2894, symBinAddr: 0x10000B9BC, symSize: 0x18 }
  - { offsetInCU: 0x46A70, offset: 0x46A70, size: 0x8, addend: 0x0, symName: __ZN5iplug12IPlugAPIBase16OnHostIdentifiedEv, symObjAddr: 0x28AC, symBinAddr: 0x10000B9D4, symSize: 0x10 }
  - { offsetInCU: 0x46A95, offset: 0x46A95, size: 0x8, addend: 0x0, symName: __ZN5iplug12IPlugAPIBase42OnHostRequestingSupportedViewConfigurationEii, symObjAddr: 0x28BC, symBinAddr: 0x10000B9E4, symSize: 0x30 }
  - { offsetInCU: 0x46AD6, offset: 0x46AD6, size: 0x8, addend: 0x0, symName: __ZN5iplug12IPlugAPIBase31OnHostSelectedViewConfigurationEii, symObjAddr: 0x28EC, symBinAddr: 0x10000BA14, symSize: 0x18 }
  - { offsetInCU: 0x46B17, offset: 0x46B17, size: 0x8, addend: 0x0, symName: __ZNK5iplug12IPlugAPIBase15GetMidiNoteTextEiPc, symObjAddr: 0x2904, symBinAddr: 0x10000BA2C, symSize: 0x28 }
  - { offsetInCU: 0x46B58, offset: 0x46B58, size: 0x8, addend: 0x0, symName: __ZN5iplug12IPlugAPIBase19GetAAXViewInterfaceEv, symObjAddr: 0x292C, symBinAddr: 0x10000BA54, symSize: 0x14 }
  - { offsetInCU: 0x46B7D, offset: 0x46B7D, size: 0x8, addend: 0x0, symName: __ZN5iplug12IPlugAPIBase13GetTrackColorERiS1_S1_, symObjAddr: 0x2940, symBinAddr: 0x10000BA68, symSize: 0x34 }
  - { offsetInCU: 0x46BCC, offset: 0x46BCC, size: 0x8, addend: 0x0, symName: __ZN5iplug12IPlugAPIBase12GetTrackNameER10WDL_String, symObjAddr: 0x2974, symBinAddr: 0x10000BA9C, symSize: 0x14 }
  - { offsetInCU: 0x46BFF, offset: 0x46BFF, size: 0x8, addend: 0x0, symName: __ZN5iplug12IPlugAPIBase13GetTrackIndexEv, symObjAddr: 0x2988, symBinAddr: 0x10000BAB0, symSize: 0x14 }
  - { offsetInCU: 0x46C24, offset: 0x46C24, size: 0x8, addend: 0x0, symName: __ZN5iplug12IPlugAPIBase17GetTrackNamespaceER10WDL_String, symObjAddr: 0x299C, symBinAddr: 0x10000BAC4, symSize: 0x14 }
  - { offsetInCU: 0x46C57, offset: 0x46C57, size: 0x8, addend: 0x0, symName: __ZN5iplug12IPlugAPIBase22GetTrackNamespaceIndexEv, symObjAddr: 0x29B0, symBinAddr: 0x10000BAD8, symSize: 0x14 }
  - { offsetInCU: 0x46C7C, offset: 0x46C7C, size: 0x8, addend: 0x0, symName: __ZN5iplug12IPlugAPIBase16HostSpecificInitEv, symObjAddr: 0x29C4, symBinAddr: 0x10000BAEC, symSize: 0x10 }
  - { offsetInCU: 0x46CA1, offset: 0x46CA1, size: 0x8, addend: 0x0, symName: __ZN5iplug8IPlugAPP28BeginInformHostOfParamChangeEi, symObjAddr: 0x29D4, symBinAddr: 0x10000BAFC, symSize: 0x14 }
  - { offsetInCU: 0x46CD4, offset: 0x46CD4, size: 0x8, addend: 0x0, symName: __ZN5iplug8IPlugAPP26EndInformHostOfParamChangeEi, symObjAddr: 0x29E8, symBinAddr: 0x10000BB10, symSize: 0x14 }
  - { offsetInCU: 0x46D07, offset: 0x46D07, size: 0x8, addend: 0x0, symName: __ZN5iplug8IPlugAPP23InformHostOfParamChangeEid, symObjAddr: 0x29FC, symBinAddr: 0x10000BB24, symSize: 0x18 }
  - { offsetInCU: 0x46D48, offset: 0x46D48, size: 0x8, addend: 0x0, symName: __ZN5iplug12IPlugAPIBase28TransmitMidiMsgFromProcessorERKNS_8IMidiMsgE, symObjAddr: 0x2A14, symBinAddr: 0x10000BB3C, symSize: 0x14 }
  - { offsetInCU: 0x46D7B, offset: 0x46D7B, size: 0x8, addend: 0x0, symName: __ZN5iplug12IPlugAPIBase30TransmitSysExDataFromProcessorERKNS_9SysExDataE, symObjAddr: 0x2A28, symBinAddr: 0x10000BB50, symSize: 0x14 }
  - { offsetInCU: 0x46DAE, offset: 0x46DAE, size: 0x8, addend: 0x0, symName: __ZThn56_N21WebViewEditorDelegate14OnWebViewReadyEv, symObjAddr: 0x2A3C, symBinAddr: 0x10000BB64, symSize: 0x18 }
  - { offsetInCU: 0x46DC4, offset: 0x46DC4, size: 0x8, addend: 0x0, symName: __ZThn56_N21WebViewEditorDelegate18OnWebContentLoadedEv, symObjAddr: 0x2A54, symBinAddr: 0x10000BB7C, symSize: 0x18 }
  - { offsetInCU: 0x46DDA, offset: 0x46DDA, size: 0x8, addend: 0x0, symName: __ZThn56_N21WebViewEditorDelegate20OnMessageFromWebViewEPKc, symObjAddr: 0x2A6C, symBinAddr: 0x10000BB94, symSize: 0x20 }
  - { offsetInCU: 0x46DF0, offset: 0x46DF0, size: 0x8, addend: 0x0, symName: __ZN5iplug14IPlugProcessor12ProcessSysExERNS_6ISysExE, symObjAddr: 0x2A8C, symBinAddr: 0x10000BBB4, symSize: 0x14 }
  - { offsetInCU: 0x46E23, offset: 0x46E23, size: 0x8, addend: 0x0, symName: __ZN5iplug14IPlugProcessor10OnActivateEb, symObjAddr: 0x2AA0, symBinAddr: 0x10000BBC8, symSize: 0x18 }
  - { offsetInCU: 0x46E56, offset: 0x46E56, size: 0x8, addend: 0x0, symName: __ZN9WDL_MutexC2Ev, symObjAddr: 0x2AB8, symBinAddr: 0x10000BBE0, symSize: 0x90 }
  - { offsetInCU: 0x46E9D, offset: 0x46E9D, size: 0x8, addend: 0x0, symName: __ZN9WDL_MutexD2Ev, symObjAddr: 0x2B48, symBinAddr: 0x10000BC70, symSize: 0x34 }
  - { offsetInCU: 0x46EC6, offset: 0x46EC6, size: 0x8, addend: 0x0, symName: __ZN13WDL_MutexLockC2EP9WDL_Mutex, symObjAddr: 0x2B7C, symBinAddr: 0x10000BCA4, symSize: 0x58 }
  - { offsetInCU: 0x46EFC, offset: 0x46EFC, size: 0x8, addend: 0x0, symName: __ZN9WDL_Mutex5EnterEv, symObjAddr: 0x2BD4, symBinAddr: 0x10000BCFC, symSize: 0x24 }
  - { offsetInCU: 0x46F21, offset: 0x46F21, size: 0x8, addend: 0x0, symName: __ZN13WDL_MutexLockD2Ev, symObjAddr: 0x2BF8, symBinAddr: 0x10000BD20, symSize: 0x5C }
  - { offsetInCU: 0x46F49, offset: 0x46F49, size: 0x8, addend: 0x0, symName: __ZN9WDL_Mutex5LeaveEv, symObjAddr: 0x2C54, symBinAddr: 0x10000BD7C, symSize: 0x24 }
  - { offsetInCU: 0x46F6E, offset: 0x46F6E, size: 0x8, addend: 0x0, symName: __ZN5iplug6ConfigC1EiiPKcS2_S2_S2_iiiibbbbibiibiiiiS2_S2_, symObjAddr: 0x2C78, symBinAddr: 0x10000BDA0, symSize: 0x204 }
  - { offsetInCU: 0x47128, offset: 0x47128, size: 0x8, addend: 0x0, symName: __ZN5iplug6ConfigC2EiiPKcS2_S2_S2_iiiibbbbibiibiiiiS2_S2_, symObjAddr: 0x2E7C, symBinAddr: 0x10000BFA4, symSize: 0x204 }
  - { offsetInCU: 0x472D2, offset: 0x472D2, size: 0x8, addend: 0x0, symName: __ZNK11WDL_PtrListIN5iplug6IParamEE3GetEl, symObjAddr: 0x3080, symBinAddr: 0x10000C1A8, symSize: 0x98 }
  - { offsetInCU: 0x47314, offset: 0x47314, size: 0x8, addend: 0x0, symName: __ZNK11WDL_HeapBuf3GetEv, symObjAddr: 0x3118, symBinAddr: 0x10000C240, symSize: 0x4C }
  - { offsetInCU: 0x47339, offset: 0x47339, size: 0x8, addend: 0x0, symName: __ZNK11WDL_HeapBuf7GetSizeEv, symObjAddr: 0x3164, symBinAddr: 0x10000C28C, symSize: 0x18 }
  - { offsetInCU: 0x4735E, offset: 0x4735E, size: 0x8, addend: 0x0, symName: __ZNSt3__14pairIbNS_12basic_stringIcNS_11char_traitsIcEENS_9allocatorIcEEEEED2Ev, symObjAddr: 0x317C, symBinAddr: 0x10000C2A4, symSize: 0x30 }
  - { offsetInCU: 0x47389, offset: 0x47389, size: 0x8, addend: 0x0, symName: __ZN5iplug10IPlugQueueINS_9SysExDataEED1Ev, symObjAddr: 0x31AC, symBinAddr: 0x10000C2D4, symSize: 0x2C }
  - { offsetInCU: 0x473B2, offset: 0x473B2, size: 0x8, addend: 0x0, symName: __ZN5iplug10IPlugQueueINS_8IMidiMsgEED1Ev, symObjAddr: 0x31D8, symBinAddr: 0x10000C300, symSize: 0x2C }
  - { offsetInCU: 0x473DB, offset: 0x473DB, size: 0x8, addend: 0x0, symName: __ZN5iplug10IPlugQueueINS_9SysExDataEED2Ev, symObjAddr: 0x3204, symBinAddr: 0x10000C32C, symSize: 0x2C }
  - { offsetInCU: 0x47404, offset: 0x47404, size: 0x8, addend: 0x0, symName: __ZN12WDL_TypedBufIN5iplug9SysExDataEED1Ev, symObjAddr: 0x3230, symBinAddr: 0x10000C358, symSize: 0x2C }
  - { offsetInCU: 0x4742D, offset: 0x4742D, size: 0x8, addend: 0x0, symName: __ZN12WDL_TypedBufIN5iplug9SysExDataEED2Ev, symObjAddr: 0x325C, symBinAddr: 0x10000C384, symSize: 0x2C }
  - { offsetInCU: 0x47456, offset: 0x47456, size: 0x8, addend: 0x0, symName: __ZN11WDL_HeapBufD1Ev, symObjAddr: 0x3288, symBinAddr: 0x10000C3B0, symSize: 0x2C }
  - { offsetInCU: 0x4747F, offset: 0x4747F, size: 0x8, addend: 0x0, symName: __ZN11WDL_HeapBufD2Ev, symObjAddr: 0x32B4, symBinAddr: 0x10000C3DC, symSize: 0x38 }
  - { offsetInCU: 0x474A8, offset: 0x474A8, size: 0x8, addend: 0x0, symName: __ZN5iplug10IPlugQueueINS_8IMidiMsgEED2Ev, symObjAddr: 0x32EC, symBinAddr: 0x10000C414, symSize: 0x2C }
  - { offsetInCU: 0x474D1, offset: 0x474D1, size: 0x8, addend: 0x0, symName: __ZN12WDL_TypedBufIN5iplug8IMidiMsgEED1Ev, symObjAddr: 0x3318, symBinAddr: 0x10000C440, symSize: 0x2C }
  - { offsetInCU: 0x474FA, offset: 0x474FA, size: 0x8, addend: 0x0, symName: __ZN12WDL_TypedBufIN5iplug8IMidiMsgEED2Ev, symObjAddr: 0x3344, symBinAddr: 0x10000C46C, symSize: 0x2C }
  - { offsetInCU: 0x47522, offset: 0x47522, size: 0x8, addend: 0x0, symName: __ZNKSt3__113__atomic_baseIdLb0EE4loadB7v160006ENS_12memory_orderE, symObjAddr: 0x33A0, symBinAddr: 0x10000C4C8, symSize: 0x2C }
  - { offsetInCU: 0x47556, offset: 0x47556, size: 0x8, addend: 0x0, symName: __ZN10WDL_StringC1EPKci, symObjAddr: 0x344C, symBinAddr: 0x10000C574, symSize: 0x3C }
  - { offsetInCU: 0x4759A, offset: 0x4759A, size: 0x8, addend: 0x0, symName: __ZN10WDL_String12SetFormattedEiPKcz, symObjAddr: 0x3488, symBinAddr: 0x10000C5B0, symSize: 0x4C }
  - { offsetInCU: 0x475EB, offset: 0x475EB, size: 0x8, addend: 0x0, symName: __ZNSt3__18functionIFvPKcEEC1B7v160006EDn, symObjAddr: 0x3534, symBinAddr: 0x10000C65C, symSize: 0x34 }
  - { offsetInCU: 0x4761F, offset: 0x4761F, size: 0x8, addend: 0x0, symName: __ZNSt3__18functionIFvPKcEED1Ev, symObjAddr: 0x3568, symBinAddr: 0x10000C690, symSize: 0x2C }
  - { offsetInCU: 0x4764A, offset: 0x4764A, size: 0x8, addend: 0x0, symName: __ZN10WDL_StringD1Ev, symObjAddr: 0x3594, symBinAddr: 0x10000C6BC, symSize: 0x2C }
  - { offsetInCU: 0x47673, offset: 0x47673, size: 0x8, addend: 0x0, symName: __ZN10WDL_StringC2EPKci, symObjAddr: 0x35C0, symBinAddr: 0x10000C6E8, symSize: 0x8C }
  - { offsetInCU: 0x476B8, offset: 0x476B8, size: 0x8, addend: 0x0, symName: __ZN11WDL_HeapBufC1Ei, symObjAddr: 0x364C, symBinAddr: 0x10000C774, symSize: 0x34 }
  - { offsetInCU: 0x476EE, offset: 0x476EE, size: 0x8, addend: 0x0, symName: __ZN10WDL_String3SetEPKci, symObjAddr: 0x3680, symBinAddr: 0x10000C7A8, symSize: 0xEC }
  - { offsetInCU: 0x4773E, offset: 0x4773E, size: 0x8, addend: 0x0, symName: __ZN11WDL_HeapBufC2Ei, symObjAddr: 0x376C, symBinAddr: 0x10000C894, symSize: 0x2C }
  - { offsetInCU: 0x47774, offset: 0x47774, size: 0x8, addend: 0x0, symName: __ZN10WDL_String7__doSetEiPKcii, symObjAddr: 0x3798, symBinAddr: 0x10000C8C0, symSize: 0x2B0 }
  - { offsetInCU: 0x47879, offset: 0x47879, size: 0x8, addend: 0x0, symName: __ZN11WDL_HeapBuf6ResizeEib, symObjAddr: 0x3A48, symBinAddr: 0x10000CB70, symSize: 0x448 }
  - { offsetInCU: 0x47940, offset: 0x47940, size: 0x8, addend: 0x0, symName: __ZN10WDL_String22SetAppendFormattedArgsEbiPKcPc, symObjAddr: 0x3E90, symBinAddr: 0x10000CFB8, symSize: 0x124 }
  - { offsetInCU: 0x479C9, offset: 0x479C9, size: 0x8, addend: 0x0, symName: __ZNK10WDL_String9GetLengthEv, symObjAddr: 0x3FB4, symBinAddr: 0x10000D0DC, symSize: 0x60 }
  - { offsetInCU: 0x479ED, offset: 0x479ED, size: 0x8, addend: 0x0, symName: __ZN11WDL_HeapBuf8ResizeOKEib, symObjAddr: 0x4014, symBinAddr: 0x10000D13C, symSize: 0x84 }
  - { offsetInCU: 0x47A3D, offset: 0x47A3D, size: 0x8, addend: 0x0, symName: __ZNSt3__18functionIFvPKcEEC2B7v160006EDn, symObjAddr: 0x4098, symBinAddr: 0x10000D1C0, symSize: 0x30 }
  - { offsetInCU: 0x47A71, offset: 0x47A71, size: 0x8, addend: 0x0, symName: __ZNSt3__110__function12__value_funcIFvPKcEEC1B7v160006Ev, symObjAddr: 0x40C8, symBinAddr: 0x10000D1F0, symSize: 0x2C }
  - { offsetInCU: 0x47A9A, offset: 0x47A9A, size: 0x8, addend: 0x0, symName: __ZNSt3__110__function12__value_funcIFvPKcEEC2B7v160006Ev, symObjAddr: 0x40F4, symBinAddr: 0x10000D21C, symSize: 0x18 }
  - { offsetInCU: 0x47AC3, offset: 0x47AC3, size: 0x8, addend: 0x0, symName: __ZNSt3__18functionIFvPKcEED2Ev, symObjAddr: 0x410C, symBinAddr: 0x10000D234, symSize: 0x2C }
  - { offsetInCU: 0x47AEE, offset: 0x47AEE, size: 0x8, addend: 0x0, symName: __ZNSt3__110__function12__value_funcIFvPKcEED1B7v160006Ev, symObjAddr: 0x4138, symBinAddr: 0x10000D260, symSize: 0x2C }
  - { offsetInCU: 0x47B17, offset: 0x47B17, size: 0x8, addend: 0x0, symName: __ZNSt3__110__function12__value_funcIFvPKcEED2B7v160006Ev, symObjAddr: 0x4164, symBinAddr: 0x10000D28C, symSize: 0x90 }
  - { offsetInCU: 0x47B40, offset: 0x47B40, size: 0x8, addend: 0x0, symName: __ZN10WDL_StringD2Ev, symObjAddr: 0x41F4, symBinAddr: 0x10000D31C, symSize: 0x2C }
  - { offsetInCU: 0x47B69, offset: 0x47B69, size: 0x8, addend: 0x0, symName: __ZN5iplug8IMidiMsg12StatusMsgStrENS0_10EStatusMsgE, symObjAddr: 0x4220, symBinAddr: 0x10000D348, symSize: 0xD8 }
  - { offsetInCU: 0x47B8D, offset: 0x47B8D, size: 0x8, addend: 0x0, symName: __ZNK5iplug8IMidiMsg9StatusMsgEv, symObjAddr: 0x4334, symBinAddr: 0x10000D45C, symSize: 0x60 }
  - { offsetInCU: 0x47BC1, offset: 0x47BC1, size: 0x8, addend: 0x0, symName: __ZNK5iplug8IMidiMsg7ChannelEv, symObjAddr: 0x4394, symBinAddr: 0x10000D4BC, symSize: 0x1C }
  - { offsetInCU: 0x47BE5, offset: 0x47BE5, size: 0x8, addend: 0x0, symName: __ZN5iplug15IEditorDelegate34SendCurrentParamValuesFromDelegateEv, symObjAddr: 0x43B0, symBinAddr: 0x10000D4D8, symSize: 0x98 }
  - { offsetInCU: 0x47C27, offset: 0x47C27, size: 0x8, addend: 0x0, symName: __ZNK5iplug15IEditorDelegate7NParamsEv, symObjAddr: 0x4448, symBinAddr: 0x10000D570, symSize: 0x28 }
  - { offsetInCU: 0x47C4B, offset: 0x47C4B, size: 0x8, addend: 0x0, symName: __ZNK5iplug6IParam13GetNormalizedEv, symObjAddr: 0x4470, symBinAddr: 0x10000D598, symSize: 0x38 }
  - { offsetInCU: 0x47C6F, offset: 0x47C6F, size: 0x8, addend: 0x0, symName: __ZNK11WDL_PtrListIN5iplug6IParamEE7GetSizeEv, symObjAddr: 0x44A8, symBinAddr: 0x10000D5D0, symSize: 0x2C }
  - { offsetInCU: 0x47C93, offset: 0x47C93, size: 0x8, addend: 0x0, symName: __ZNK5iplug6IParam12ToNormalizedEd, symObjAddr: 0x44D4, symBinAddr: 0x10000D5FC, symSize: 0x64 }
  - { offsetInCU: 0x47CC6, offset: 0x47CC6, size: 0x8, addend: 0x0, symName: __ZNKSt3__110unique_ptrIN5iplug6IParam5ShapeENS_14default_deleteIS3_EEEptB7v160006Ev, symObjAddr: 0x457C, symBinAddr: 0x10000D6A4, symSize: 0x28 }
  - { offsetInCU: 0x47CEA, offset: 0x47CEA, size: 0x8, addend: 0x0, symName: __ZNK5iplug6IParam9ConstrainEd, symObjAddr: 0x45A4, symBinAddr: 0x10000D6CC, symSize: 0x80 }
  - { offsetInCU: 0x47D2D, offset: 0x47D2D, size: 0x8, addend: 0x0, symName: __ZNKSt3__16__lessIddEclB7v160006ERKdS3_, symObjAddr: 0x46D0, symBinAddr: 0x10000D7F8, symSize: 0x34 }
  - { offsetInCU: 0x47D6D, offset: 0x47D6D, size: 0x8, addend: 0x0, symName: __ZNKSt3__117__compressed_pairIPN5iplug6IParam5ShapeENS_14default_deleteIS3_EEE5firstB7v160006Ev, symObjAddr: 0x4758, symBinAddr: 0x10000D880, symSize: 0x24 }
  - { offsetInCU: 0x47D92, offset: 0x47D92, size: 0x8, addend: 0x0, symName: __ZNKSt3__122__compressed_pair_elemIPN5iplug6IParam5ShapeELi0ELb0EE5__getB7v160006Ev, symObjAddr: 0x477C, symBinAddr: 0x10000D8A4, symSize: 0x14 }
  - { offsetInCU: 0x47DB7, offset: 0x47DB7, size: 0x8, addend: 0x0, symName: __ZNSt3__16vectorIcNS_9allocatorIcEEEC1B7v160006Ev, symObjAddr: 0x47A8, symBinAddr: 0x10000D8D0, symSize: 0x2C }
  - { offsetInCU: 0x47DE0, offset: 0x47DE0, size: 0x8, addend: 0x0, symName: __ZNSt3__16vectorIcNS_9allocatorIcEEE6resizeEm, symObjAddr: 0x47D4, symBinAddr: 0x10000D8FC, symSize: 0x94 }
  - { offsetInCU: 0x47E25, offset: 0x47E25, size: 0x8, addend: 0x0, symName: __ZN21WebViewEditorDelegate15GetBase64LengthEi, symObjAddr: 0x4868, symBinAddr: 0x10000D990, symSize: 0x3C }
  - { offsetInCU: 0x47E58, offset: 0x47E58, size: 0x8, addend: 0x0, symName: __ZL16wdl_base64encodePKhPci, symObjAddr: 0x48A4, symBinAddr: 0x10000D9CC, symSize: 0x384 }
  - { offsetInCU: 0x47F23, offset: 0x47F23, size: 0x8, addend: 0x0, symName: __ZNSt3__16vectorIcNS_9allocatorIcEEE4dataB7v160006Ev, symObjAddr: 0x4C28, symBinAddr: 0x10000DD50, symSize: 0x28 }
  - { offsetInCU: 0x47F48, offset: 0x47F48, size: 0x8, addend: 0x0, symName: __ZNSt3__16vectorIcNS_9allocatorIcEEED1B7v160006Ev, symObjAddr: 0x4C50, symBinAddr: 0x10000DD78, symSize: 0x2C }
  - { offsetInCU: 0x47F71, offset: 0x47F71, size: 0x8, addend: 0x0, symName: __ZNSt3__16vectorIcNS_9allocatorIcEEEC2B7v160006Ev, symObjAddr: 0x4C7C, symBinAddr: 0x10000DDA4, symSize: 0x58 }
  - { offsetInCU: 0x47FA6, offset: 0x47FA6, size: 0x8, addend: 0x0, symName: __ZNSt3__117__compressed_pairIPcNS_9allocatorIcEEEC1B7v160006IDnNS_18__default_init_tagEEEOT_OT0_, symObjAddr: 0x4CD4, symBinAddr: 0x10000DDFC, symSize: 0x3C }
  - { offsetInCU: 0x47FFD, offset: 0x47FFD, size: 0x8, addend: 0x0, symName: __ZNSt3__117__compressed_pairIPcNS_9allocatorIcEEEC2B7v160006IDnNS_18__default_init_tagEEEOT_OT0_, symObjAddr: 0x4D20, symBinAddr: 0x10000DE48, symSize: 0x40 }
  - { offsetInCU: 0x48054, offset: 0x48054, size: 0x8, addend: 0x0, symName: __ZNSt3__122__compressed_pair_elemIPcLi0ELb0EEC2B7v160006IDnvEEOT_, symObjAddr: 0x4D60, symBinAddr: 0x10000DE88, symSize: 0x1C }
  - { offsetInCU: 0x48096, offset: 0x48096, size: 0x8, addend: 0x0, symName: __ZNSt3__122__compressed_pair_elemINS_9allocatorIcEELi1ELb1EEC2B7v160006ENS_18__default_init_tagE, symObjAddr: 0x4D7C, symBinAddr: 0x10000DEA4, symSize: 0x2C }
  - { offsetInCU: 0x480CA, offset: 0x480CA, size: 0x8, addend: 0x0, symName: __ZNSt3__19allocatorIcEC2B7v160006Ev, symObjAddr: 0x4DA8, symBinAddr: 0x10000DED0, symSize: 0x2C }
  - { offsetInCU: 0x480F3, offset: 0x480F3, size: 0x8, addend: 0x0, symName: __ZNSt3__116__non_trivial_ifILb1ENS_9allocatorIcEEEC2B7v160006Ev, symObjAddr: 0x4DD4, symBinAddr: 0x10000DEFC, symSize: 0x14 }
  - { offsetInCU: 0x4811C, offset: 0x4811C, size: 0x8, addend: 0x0, symName: __ZNKSt3__16vectorIcNS_9allocatorIcEEE4sizeB7v160006Ev, symObjAddr: 0x4DE8, symBinAddr: 0x10000DF10, symSize: 0x20 }
  - { offsetInCU: 0x48141, offset: 0x48141, size: 0x8, addend: 0x0, symName: __ZNSt3__16vectorIcNS_9allocatorIcEEE8__appendEm, symObjAddr: 0x4E08, symBinAddr: 0x10000DF30, symSize: 0x100 }
  - { offsetInCU: 0x4819B, offset: 0x4819B, size: 0x8, addend: 0x0, symName: __ZNSt3__16vectorIcNS_9allocatorIcEEE17__destruct_at_endB7v160006EPc, symObjAddr: 0x4F08, symBinAddr: 0x10000E030, symSize: 0x60 }
  - { offsetInCU: 0x481DD, offset: 0x481DD, size: 0x8, addend: 0x0, symName: __ZNSt3__16vectorIcNS_9allocatorIcEEE9__end_capB7v160006Ev, symObjAddr: 0x4F68, symBinAddr: 0x10000E090, symSize: 0x28 }
  - { offsetInCU: 0x48202, offset: 0x48202, size: 0x8, addend: 0x0, symName: __ZNSt3__16vectorIcNS_9allocatorIcEEE18__construct_at_endEm, symObjAddr: 0x4F90, symBinAddr: 0x10000E0B8, symSize: 0xC8 }
  - { offsetInCU: 0x48273, offset: 0x48273, size: 0x8, addend: 0x0, symName: __ZNSt3__16vectorIcNS_9allocatorIcEEE7__allocB7v160006Ev, symObjAddr: 0x5058, symBinAddr: 0x10000E180, symSize: 0x28 }
  - { offsetInCU: 0x48298, offset: 0x48298, size: 0x8, addend: 0x0, symName: __ZNKSt3__16vectorIcNS_9allocatorIcEEE11__recommendB7v160006Em, symObjAddr: 0x5080, symBinAddr: 0x10000E1A8, symSize: 0xB4 }
  - { offsetInCU: 0x482EC, offset: 0x482EC, size: 0x8, addend: 0x0, symName: __ZNSt3__114__split_bufferIcRNS_9allocatorIcEEEC1EmmS3_, symObjAddr: 0x5134, symBinAddr: 0x10000E25C, symSize: 0x44 }
  - { offsetInCU: 0x48341, offset: 0x48341, size: 0x8, addend: 0x0, symName: __ZNSt3__114__split_bufferIcRNS_9allocatorIcEEE18__construct_at_endEm, symObjAddr: 0x5178, symBinAddr: 0x10000E2A0, symSize: 0xB4 }
  - { offsetInCU: 0x48384, offset: 0x48384, size: 0x8, addend: 0x0, symName: __ZNSt3__114__split_bufferIcRNS_9allocatorIcEEED1Ev, symObjAddr: 0x5344, symBinAddr: 0x10000E46C, symSize: 0x2C }
  - { offsetInCU: 0x483AE, offset: 0x483AE, size: 0x8, addend: 0x0, symName: __ZNSt3__117__compressed_pairIPcNS_9allocatorIcEEE5firstB7v160006Ev, symObjAddr: 0x5370, symBinAddr: 0x10000E498, symSize: 0x24 }
  - { offsetInCU: 0x483D3, offset: 0x483D3, size: 0x8, addend: 0x0, symName: __ZNSt3__122__compressed_pair_elemIPcLi0ELb0EE5__getB7v160006Ev, symObjAddr: 0x5394, symBinAddr: 0x10000E4BC, symSize: 0x14 }
  - { offsetInCU: 0x48411, offset: 0x48411, size: 0x8, addend: 0x0, symName: __ZNSt3__16vectorIcNS_9allocatorIcEEE21_ConstructTransactionC1B7v160006ERS3_m, symObjAddr: 0x53A8, symBinAddr: 0x10000E4D0, symSize: 0x3C }
  - { offsetInCU: 0x48458, offset: 0x48458, size: 0x8, addend: 0x0, symName: __ZNSt3__116allocator_traitsINS_9allocatorIcEEE9constructB7v160006IcJEvEEvRS2_PT_DpOT0_, symObjAddr: 0x53E4, symBinAddr: 0x10000E50C, symSize: 0x2C }
  - { offsetInCU: 0x4849B, offset: 0x4849B, size: 0x8, addend: 0x0, symName: __ZNSt3__16vectorIcNS_9allocatorIcEEE21_ConstructTransactionD1B7v160006Ev, symObjAddr: 0x5424, symBinAddr: 0x10000E54C, symSize: 0x2C }
  - { offsetInCU: 0x484C4, offset: 0x484C4, size: 0x8, addend: 0x0, symName: __ZNSt3__16vectorIcNS_9allocatorIcEEE21_ConstructTransactionC2B7v160006ERS3_m, symObjAddr: 0x5450, symBinAddr: 0x10000E578, symSize: 0x44 }
  - { offsetInCU: 0x4850B, offset: 0x4850B, size: 0x8, addend: 0x0, symName: __ZNSt3__19allocatorIcE9constructB7v160006IcJEEEvPT_DpOT0_, symObjAddr: 0x5494, symBinAddr: 0x10000E5BC, symSize: 0x1C }
  - { offsetInCU: 0x4854C, offset: 0x4854C, size: 0x8, addend: 0x0, symName: __ZNSt3__16vectorIcNS_9allocatorIcEEE21_ConstructTransactionD2B7v160006Ev, symObjAddr: 0x54B0, symBinAddr: 0x10000E5D8, symSize: 0x20 }
  - { offsetInCU: 0x48574, offset: 0x48574, size: 0x8, addend: 0x0, symName: __ZNSt3__117__compressed_pairIPcNS_9allocatorIcEEE6secondB7v160006Ev, symObjAddr: 0x54D0, symBinAddr: 0x10000E5F8, symSize: 0x24 }
  - { offsetInCU: 0x48599, offset: 0x48599, size: 0x8, addend: 0x0, symName: __ZNSt3__122__compressed_pair_elemINS_9allocatorIcEELi1ELb1EE5__getB7v160006Ev, symObjAddr: 0x54F4, symBinAddr: 0x10000E61C, symSize: 0x14 }
  - { offsetInCU: 0x485BE, offset: 0x485BE, size: 0x8, addend: 0x0, symName: __ZNKSt3__16vectorIcNS_9allocatorIcEEE8max_sizeEv, symObjAddr: 0x5508, symBinAddr: 0x10000E630, symSize: 0x60 }
  - { offsetInCU: 0x485E4, offset: 0x485E4, size: 0x8, addend: 0x0, symName: __ZNKSt3__16vectorIcNS_9allocatorIcEEE20__throw_length_errorB7v160006Ev, symObjAddr: 0x5568, symBinAddr: 0x10000E690, symSize: 0x1C }
  - { offsetInCU: 0x48608, offset: 0x48608, size: 0x8, addend: 0x0, symName: __ZNKSt3__16vectorIcNS_9allocatorIcEEE8capacityB7v160006Ev, symObjAddr: 0x5584, symBinAddr: 0x10000E6AC, symSize: 0x38 }
  - { offsetInCU: 0x48637, offset: 0x48637, size: 0x8, addend: 0x0, symName: __ZNSt3__116allocator_traitsINS_9allocatorIcEEE8max_sizeB7v160006IS2_vEEmRKS2_, symObjAddr: 0x5614, symBinAddr: 0x10000E73C, symSize: 0x24 }
  - { offsetInCU: 0x48665, offset: 0x48665, size: 0x8, addend: 0x0, symName: __ZNKSt3__16vectorIcNS_9allocatorIcEEE7__allocB7v160006Ev, symObjAddr: 0x5638, symBinAddr: 0x10000E760, symSize: 0x28 }
  - { offsetInCU: 0x4868A, offset: 0x4868A, size: 0x8, addend: 0x0, symName: __ZNSt3__114numeric_limitsIlE3maxB7v160006Ev, symObjAddr: 0x5660, symBinAddr: 0x10000E788, symSize: 0x14 }
  - { offsetInCU: 0x486A8, offset: 0x486A8, size: 0x8, addend: 0x0, symName: __ZNKSt3__16__lessImmEclB7v160006ERKmS3_, symObjAddr: 0x56C8, symBinAddr: 0x10000E7F0, symSize: 0x34 }
  - { offsetInCU: 0x486E9, offset: 0x486E9, size: 0x8, addend: 0x0, symName: __ZNKSt3__19allocatorIcE8max_sizeB7v160006Ev, symObjAddr: 0x56FC, symBinAddr: 0x10000E824, symSize: 0x14 }
  - { offsetInCU: 0x4870D, offset: 0x4870D, size: 0x8, addend: 0x0, symName: __ZNKSt3__117__compressed_pairIPcNS_9allocatorIcEEE6secondB7v160006Ev, symObjAddr: 0x5710, symBinAddr: 0x10000E838, symSize: 0x24 }
  - { offsetInCU: 0x48732, offset: 0x48732, size: 0x8, addend: 0x0, symName: __ZNKSt3__122__compressed_pair_elemINS_9allocatorIcEELi1ELb1EE5__getB7v160006Ev, symObjAddr: 0x5734, symBinAddr: 0x10000E85C, symSize: 0x14 }
  - { offsetInCU: 0x48757, offset: 0x48757, size: 0x8, addend: 0x0, symName: __ZNSt3__123__libcpp_numeric_limitsIlLb1EE3maxB7v160006Ev, symObjAddr: 0x5748, symBinAddr: 0x10000E870, symSize: 0x8 }
  - { offsetInCU: 0x4876B, offset: 0x4876B, size: 0x8, addend: 0x0, symName: __ZNSt12length_errorC1B7v160006EPKc, symObjAddr: 0x57B4, symBinAddr: 0x10000E8DC, symSize: 0x34 }
  - { offsetInCU: 0x487A2, offset: 0x487A2, size: 0x8, addend: 0x0, symName: __ZNSt12length_errorC2B7v160006EPKc, symObjAddr: 0x57E8, symBinAddr: 0x10000E910, symSize: 0x4C }
  - { offsetInCU: 0x487D8, offset: 0x487D8, size: 0x8, addend: 0x0, symName: __ZNKSt3__16vectorIcNS_9allocatorIcEEE9__end_capB7v160006Ev, symObjAddr: 0x5834, symBinAddr: 0x10000E95C, symSize: 0x28 }
  - { offsetInCU: 0x487FC, offset: 0x487FC, size: 0x8, addend: 0x0, symName: __ZNKSt3__117__compressed_pairIPcNS_9allocatorIcEEE5firstB7v160006Ev, symObjAddr: 0x585C, symBinAddr: 0x10000E984, symSize: 0x24 }
  - { offsetInCU: 0x48821, offset: 0x48821, size: 0x8, addend: 0x0, symName: __ZNKSt3__122__compressed_pair_elemIPcLi0ELb0EE5__getB7v160006Ev, symObjAddr: 0x5880, symBinAddr: 0x10000E9A8, symSize: 0x14 }
  - { offsetInCU: 0x48846, offset: 0x48846, size: 0x8, addend: 0x0, symName: __ZNSt3__114__split_bufferIcRNS_9allocatorIcEEEC2EmmS3_, symObjAddr: 0x58E8, symBinAddr: 0x10000EA10, symSize: 0xD4 }
  - { offsetInCU: 0x488B9, offset: 0x488B9, size: 0x8, addend: 0x0, symName: __ZNSt3__117__compressed_pairIPcRNS_9allocatorIcEEEC1B7v160006IDnS4_EEOT_OT0_, symObjAddr: 0x59BC, symBinAddr: 0x10000EAE4, symSize: 0x3C }
  - { offsetInCU: 0x4890F, offset: 0x4890F, size: 0x8, addend: 0x0, symName: __ZNSt3__114__split_bufferIcRNS_9allocatorIcEEE7__allocB7v160006Ev, symObjAddr: 0x5A38, symBinAddr: 0x10000EB60, symSize: 0x28 }
  - { offsetInCU: 0x48933, offset: 0x48933, size: 0x8, addend: 0x0, symName: __ZNSt3__114__split_bufferIcRNS_9allocatorIcEEE9__end_capB7v160006Ev, symObjAddr: 0x5A60, symBinAddr: 0x10000EB88, symSize: 0x28 }
  - { offsetInCU: 0x48958, offset: 0x48958, size: 0x8, addend: 0x0, symName: __ZNSt3__117__compressed_pairIPcRNS_9allocatorIcEEEC2B7v160006IDnS4_EEOT_OT0_, symObjAddr: 0x5A88, symBinAddr: 0x10000EBB0, symSize: 0x48 }
  - { offsetInCU: 0x489AF, offset: 0x489AF, size: 0x8, addend: 0x0, symName: __ZNSt3__122__compressed_pair_elemIRNS_9allocatorIcEELi1ELb0EEC2B7v160006IS3_vEEOT_, symObjAddr: 0x5AD0, symBinAddr: 0x10000EBF8, symSize: 0x20 }
  - { offsetInCU: 0x489F0, offset: 0x489F0, size: 0x8, addend: 0x0, symName: __ZNSt3__19allocatorIcE8allocateB7v160006Em, symObjAddr: 0x5AF0, symBinAddr: 0x10000EC18, symSize: 0x58 }
  - { offsetInCU: 0x48A22, offset: 0x48A22, size: 0x8, addend: 0x0, symName: __ZNSt3__117__compressed_pairIPcRNS_9allocatorIcEEE6secondB7v160006Ev, symObjAddr: 0x5C4C, symBinAddr: 0x10000ED74, symSize: 0x28 }
  - { offsetInCU: 0x48A47, offset: 0x48A47, size: 0x8, addend: 0x0, symName: __ZNSt3__122__compressed_pair_elemIRNS_9allocatorIcEELi1ELb0EE5__getB7v160006Ev, symObjAddr: 0x5C74, symBinAddr: 0x10000ED9C, symSize: 0x18 }
  - { offsetInCU: 0x48A6B, offset: 0x48A6B, size: 0x8, addend: 0x0, symName: __ZNSt3__117__compressed_pairIPcRNS_9allocatorIcEEE5firstB7v160006Ev, symObjAddr: 0x5C8C, symBinAddr: 0x10000EDB4, symSize: 0x24 }
  - { offsetInCU: 0x48A9A, offset: 0x48A9A, size: 0x8, addend: 0x0, symName: __ZNSt3__114__split_bufferIcRNS_9allocatorIcEEE21_ConstructTransactionC1B7v160006EPPcm, symObjAddr: 0x5CB0, symBinAddr: 0x10000EDD8, symSize: 0x3C }
  - { offsetInCU: 0x48ADF, offset: 0x48ADF, size: 0x8, addend: 0x0, symName: __ZNSt3__114__split_bufferIcRNS_9allocatorIcEEE21_ConstructTransactionD1B7v160006Ev, symObjAddr: 0x5CEC, symBinAddr: 0x10000EE14, symSize: 0x2C }
  - { offsetInCU: 0x48B08, offset: 0x48B08, size: 0x8, addend: 0x0, symName: __ZNSt3__114__split_bufferIcRNS_9allocatorIcEEE21_ConstructTransactionC2B7v160006EPPcm, symObjAddr: 0x5D18, symBinAddr: 0x10000EE40, symSize: 0x44 }
  - { offsetInCU: 0x48B4D, offset: 0x48B4D, size: 0x8, addend: 0x0, symName: __ZNSt3__114__split_bufferIcRNS_9allocatorIcEEE21_ConstructTransactionD2B7v160006Ev, symObjAddr: 0x5D5C, symBinAddr: 0x10000EE84, symSize: 0x20 }
  - { offsetInCU: 0x48B75, offset: 0x48B75, size: 0x8, addend: 0x0, symName: __ZNKSt3__16vectorIcNS_9allocatorIcEEE17__annotate_deleteB7v160006Ev, symObjAddr: 0x5D7C, symBinAddr: 0x10000EEA4, symSize: 0xB8 }
  - { offsetInCU: 0x48B9A, offset: 0x48B9A, size: 0x8, addend: 0x0, symName: __ZNSt3__116reverse_iteratorIPcEC1B7v160006ES1_, symObjAddr: 0x5EAC, symBinAddr: 0x10000EFD4, symSize: 0x34 }
  - { offsetInCU: 0x48BD1, offset: 0x48BD1, size: 0x8, addend: 0x0, symName: __ZNKSt3__116reverse_iteratorIPcE4baseB7v160006Ev, symObjAddr: 0x5EE0, symBinAddr: 0x10000F008, symSize: 0x18 }
  - { offsetInCU: 0x48BF5, offset: 0x48BF5, size: 0x8, addend: 0x0, symName: __ZNKSt3__16vectorIcNS_9allocatorIcEEE14__annotate_newB7v160006Em, symObjAddr: 0x5F34, symBinAddr: 0x10000F05C, symSize: 0xAC }
  - { offsetInCU: 0x48C29, offset: 0x48C29, size: 0x8, addend: 0x0, symName: __ZNKSt3__16vectorIcNS_9allocatorIcEEE31__annotate_contiguous_containerB7v160006EPKvS5_S5_S5_, symObjAddr: 0x5FF0, symBinAddr: 0x10000F118, symSize: 0x20 }
  - { offsetInCU: 0x48C79, offset: 0x48C79, size: 0x8, addend: 0x0, symName: __ZNKSt3__16vectorIcNS_9allocatorIcEEE4dataB7v160006Ev, symObjAddr: 0x6010, symBinAddr: 0x10000F138, symSize: 0x28 }
  - { offsetInCU: 0x48CC1, offset: 0x48CC1, size: 0x8, addend: 0x0, symName: __ZNKSt3__111__move_loopINS_17_ClassicAlgPolicyEEclB7v160006INS_16reverse_iteratorIPcEES6_S6_EENS_4pairIT_T1_EES8_T0_S9_, symObjAddr: 0x6328, symBinAddr: 0x10000F450, symSize: 0xA0 }
  - { offsetInCU: 0x48D31, offset: 0x48D31, size: 0x8, addend: 0x0, symName: __ZNSt3__18_IterOpsINS_17_ClassicAlgPolicyEE11__iter_moveB7v160006IRNS_16reverse_iteratorIPcEEEENS_9enable_ifIXsr12is_referenceIDTdeclsr3stdE7declvalIRT_EEEEE5valueEDTclsr3stdE4movedeclsr3stdE7declvalISA_EEEEE4typeEOS9_, symObjAddr: 0x655C, symBinAddr: 0x10000F684, symSize: 0x28 }
  - { offsetInCU: 0x48D5D, offset: 0x48D5D, size: 0x8, addend: 0x0, symName: __ZNKSt3__116reverse_iteratorIPcEdeB7v160006Ev, symObjAddr: 0x6584, symBinAddr: 0x10000F6AC, symSize: 0x28 }
  - { offsetInCU: 0x48D91, offset: 0x48D91, size: 0x8, addend: 0x0, symName: __ZNSt3__116reverse_iteratorIPcEppB7v160006Ev, symObjAddr: 0x65AC, symBinAddr: 0x10000F6D4, symSize: 0x20 }
  - { offsetInCU: 0x48DB6, offset: 0x48DB6, size: 0x8, addend: 0x0, symName: __ZNSt3__18_IterOpsINS_17_ClassicAlgPolicyEE25__validate_iter_referenceB7v160006IRNS_16reverse_iteratorIPcEEEEvv, symObjAddr: 0x65CC, symBinAddr: 0x10000F6F4, symSize: 0x4 }
  - { offsetInCU: 0x48DD4, offset: 0x48DD4, size: 0x8, addend: 0x0, symName: __ZNSt3__118__unwrap_iter_implINS_16reverse_iteratorIPcEELb0EE8__unwrapB7v160006ES3_, symObjAddr: 0x65D0, symBinAddr: 0x10000F6F8, symSize: 0x24 }
  - { offsetInCU: 0x48DFD, offset: 0x48DFD, size: 0x8, addend: 0x0, symName: __ZNSt3__14pairINS_16reverse_iteratorIPcEES3_EC1B7v160006IS3_S3_LPv0EEEOT_OT0_, symObjAddr: 0x65F4, symBinAddr: 0x10000F71C, symSize: 0x3C }
  - { offsetInCU: 0x48E5A, offset: 0x48E5A, size: 0x8, addend: 0x0, symName: __ZNSt3__14pairINS_16reverse_iteratorIPcEES3_EC2B7v160006IS3_S3_LPv0EEEOT_OT0_, symObjAddr: 0x6630, symBinAddr: 0x10000F758, symSize: 0x34 }
  - { offsetInCU: 0x48EB7, offset: 0x48EB7, size: 0x8, addend: 0x0, symName: __ZNSt3__118__unwrap_iter_implINS_16reverse_iteratorIPcEELb0EE8__rewrapB7v160006ES3_S3_, symObjAddr: 0x6664, symBinAddr: 0x10000F78C, symSize: 0x2C }
  - { offsetInCU: 0x48EE5, offset: 0x48EE5, size: 0x8, addend: 0x0, symName: __ZNSt3__116reverse_iteratorIPcEC2B7v160006ES1_, symObjAddr: 0x6690, symBinAddr: 0x10000F7B8, symSize: 0x28 }
  - { offsetInCU: 0x48F1C, offset: 0x48F1C, size: 0x8, addend: 0x0, symName: __ZNSt3__114__split_bufferIcRNS_9allocatorIcEEED2Ev, symObjAddr: 0x66B8, symBinAddr: 0x10000F7E0, symSize: 0x8C }
  - { offsetInCU: 0x48F46, offset: 0x48F46, size: 0x8, addend: 0x0, symName: __ZNSt3__114__split_bufferIcRNS_9allocatorIcEEE5clearB7v160006Ev, symObjAddr: 0x6744, symBinAddr: 0x10000F86C, symSize: 0x28 }
  - { offsetInCU: 0x48F6B, offset: 0x48F6B, size: 0x8, addend: 0x0, symName: __ZNSt3__116allocator_traitsINS_9allocatorIcEEE10deallocateB7v160006ERS2_Pcm, symObjAddr: 0x676C, symBinAddr: 0x10000F894, symSize: 0x34 }
  - { offsetInCU: 0x48FAC, offset: 0x48FAC, size: 0x8, addend: 0x0, symName: __ZNKSt3__114__split_bufferIcRNS_9allocatorIcEEE8capacityB7v160006Ev, symObjAddr: 0x67A0, symBinAddr: 0x10000F8C8, symSize: 0x38 }
  - { offsetInCU: 0x48FD0, offset: 0x48FD0, size: 0x8, addend: 0x0, symName: __ZNSt3__114__split_bufferIcRNS_9allocatorIcEEE17__destruct_at_endB7v160006EPc, symObjAddr: 0x67D8, symBinAddr: 0x10000F900, symSize: 0x2C }
  - { offsetInCU: 0x49003, offset: 0x49003, size: 0x8, addend: 0x0, symName: __ZNSt3__114__split_bufferIcRNS_9allocatorIcEEE17__destruct_at_endB7v160006EPcNS_17integral_constantIbLb0EEE, symObjAddr: 0x6804, symBinAddr: 0x10000F92C, symSize: 0x80 }
  - { offsetInCU: 0x49043, offset: 0x49043, size: 0x8, addend: 0x0, symName: __ZNSt3__116allocator_traitsINS_9allocatorIcEEE7destroyB7v160006IcvEEvRS2_PT_, symObjAddr: 0x6884, symBinAddr: 0x10000F9AC, symSize: 0x2C }
  - { offsetInCU: 0x49081, offset: 0x49081, size: 0x8, addend: 0x0, symName: __ZNSt3__19allocatorIcE7destroyB7v160006EPc, symObjAddr: 0x68B0, symBinAddr: 0x10000F9D8, symSize: 0x14 }
  - { offsetInCU: 0x490B3, offset: 0x490B3, size: 0x8, addend: 0x0, symName: __ZNSt3__19allocatorIcE10deallocateB7v160006EPcm, symObjAddr: 0x68C4, symBinAddr: 0x10000F9EC, symSize: 0x40 }
  - { offsetInCU: 0x490F3, offset: 0x490F3, size: 0x8, addend: 0x0, symName: __ZNKSt3__114__split_bufferIcRNS_9allocatorIcEEE9__end_capB7v160006Ev, symObjAddr: 0x6A0C, symBinAddr: 0x10000FB34, symSize: 0x28 }
  - { offsetInCU: 0x49117, offset: 0x49117, size: 0x8, addend: 0x0, symName: __ZNKSt3__117__compressed_pairIPcRNS_9allocatorIcEEE5firstB7v160006Ev, symObjAddr: 0x6A34, symBinAddr: 0x10000FB5C, symSize: 0x24 }
  - { offsetInCU: 0x4913C, offset: 0x4913C, size: 0x8, addend: 0x0, symName: __ZNSt3__16vectorIcNS_9allocatorIcEEE27__invalidate_iterators_pastB7v160006EPc, symObjAddr: 0x6A58, symBinAddr: 0x10000FB80, symSize: 0x14 }
  - { offsetInCU: 0x49171, offset: 0x49171, size: 0x8, addend: 0x0, symName: __ZNSt3__16vectorIcNS_9allocatorIcEEE22__base_destruct_at_endB7v160006EPc, symObjAddr: 0x6A6C, symBinAddr: 0x10000FB94, symSize: 0x8C }
  - { offsetInCU: 0x491B3, offset: 0x491B3, size: 0x8, addend: 0x0, symName: __ZNKSt3__16vectorIcNS_9allocatorIcEEE17__annotate_shrinkB7v160006Em, symObjAddr: 0x6AF8, symBinAddr: 0x10000FC20, symSize: 0xB4 }
  - { offsetInCU: 0x491E7, offset: 0x491E7, size: 0x8, addend: 0x0, symName: __ZNSt3__16vectorIcNS_9allocatorIcEEED2B7v160006Ev, symObjAddr: 0x6BAC, symBinAddr: 0x10000FCD4, symSize: 0x44 }
  - { offsetInCU: 0x49210, offset: 0x49210, size: 0x8, addend: 0x0, symName: __ZNSt3__16vectorIcNS_9allocatorIcEEE16__destroy_vectorC1ERS3_, symObjAddr: 0x6BF0, symBinAddr: 0x10000FD18, symSize: 0x34 }
  - { offsetInCU: 0x49247, offset: 0x49247, size: 0x8, addend: 0x0, symName: __ZNSt3__16vectorIcNS_9allocatorIcEEE16__destroy_vectorclB7v160006Ev, symObjAddr: 0x6C24, symBinAddr: 0x10000FD4C, symSize: 0x9C }
  - { offsetInCU: 0x4926C, offset: 0x4926C, size: 0x8, addend: 0x0, symName: __ZNSt3__16vectorIcNS_9allocatorIcEEE16__destroy_vectorC2ERS3_, symObjAddr: 0x6CC0, symBinAddr: 0x10000FDE8, symSize: 0x20 }
  - { offsetInCU: 0x492A3, offset: 0x492A3, size: 0x8, addend: 0x0, symName: __ZNSt3__16vectorIcNS_9allocatorIcEEE7__clearB7v160006Ev, symObjAddr: 0x6CF0, symBinAddr: 0x10000FE18, symSize: 0x28 }
  - { offsetInCU: 0x492C7, offset: 0x492C7, size: 0x8, addend: 0x0, symName: __ZN5iplug15IEditorDelegate24SendParameterValueFromUIEid, symObjAddr: 0x6D18, symBinAddr: 0x10000FE40, symSize: 0x9C }
  - { offsetInCU: 0x49307, offset: 0x49307, size: 0x8, addend: 0x0, symName: __ZN5iplug6IParam13SetNormalizedEd, symObjAddr: 0x6DB4, symBinAddr: 0x10000FEDC, symSize: 0x38 }
  - { offsetInCU: 0x4933A, offset: 0x4933A, size: 0x8, addend: 0x0, symName: __ZN5iplug6IParam3SetEd, symObjAddr: 0x6DEC, symBinAddr: 0x10000FF14, symSize: 0x40 }
  - { offsetInCU: 0x4936D, offset: 0x4936D, size: 0x8, addend: 0x0, symName: __ZNK5iplug6IParam14FromNormalizedEd, symObjAddr: 0x6E2C, symBinAddr: 0x10000FF54, symSize: 0x4C }
  - { offsetInCU: 0x493A0, offset: 0x493A0, size: 0x8, addend: 0x0, symName: __ZNSt3__113__atomic_baseIdLb0EE5storeB7v160006EdNS_12memory_orderE, symObjAddr: 0x6E78, symBinAddr: 0x10000FFA0, symSize: 0x34 }
  - { offsetInCU: 0x493E2, offset: 0x493E2, size: 0x8, addend: 0x0, symName: __ZN5iplug10IPlugQueueINS_8IMidiMsgEE4PushERKS1_, symObjAddr: 0x6F30, symBinAddr: 0x100010058, symSize: 0xE8 }
  - { offsetInCU: 0x49432, offset: 0x49432, size: 0x8, addend: 0x0, symName: __ZNKSt3__113__atomic_baseImLb0EE4loadB7v160006ENS_12memory_orderE, symObjAddr: 0x7018, symBinAddr: 0x100010140, symSize: 0x2C }
  - { offsetInCU: 0x49465, offset: 0x49465, size: 0x8, addend: 0x0, symName: __ZNK5iplug10IPlugQueueINS_8IMidiMsgEE9IncrementEm, symObjAddr: 0x7044, symBinAddr: 0x10001016C, symSize: 0x4C }
  - { offsetInCU: 0x49497, offset: 0x49497, size: 0x8, addend: 0x0, symName: __ZNK12WDL_TypedBufIN5iplug8IMidiMsgEE3GetEv, symObjAddr: 0x7090, symBinAddr: 0x1000101B8, symSize: 0x24 }
  - { offsetInCU: 0x494BB, offset: 0x494BB, size: 0x8, addend: 0x0, symName: __ZNSt3__113__atomic_baseImLb0EE5storeB7v160006EmNS_12memory_orderE, symObjAddr: 0x70B4, symBinAddr: 0x1000101DC, symSize: 0x34 }
  - { offsetInCU: 0x494FD, offset: 0x494FD, size: 0x8, addend: 0x0, symName: __ZNK12WDL_TypedBufIN5iplug8IMidiMsgEE7GetSizeEv, symObjAddr: 0x7168, symBinAddr: 0x100010290, symSize: 0x2C }
  - { offsetInCU: 0x49522, offset: 0x49522, size: 0x8, addend: 0x0, symName: __ZN5iplug9SysExDataC1EiiPKv, symObjAddr: 0x7218, symBinAddr: 0x100010340, symSize: 0x44 }
  - { offsetInCU: 0x49574, offset: 0x49574, size: 0x8, addend: 0x0, symName: __ZN5iplug10IPlugQueueINS_9SysExDataEE4PushERKS1_, symObjAddr: 0x725C, symBinAddr: 0x100010384, symSize: 0xE8 }
  - { offsetInCU: 0x495C5, offset: 0x495C5, size: 0x8, addend: 0x0, symName: __ZN5iplug9SysExDataC2EiiPKv, symObjAddr: 0x7344, symBinAddr: 0x10001046C, symSize: 0xC4 }
  - { offsetInCU: 0x49617, offset: 0x49617, size: 0x8, addend: 0x0, symName: __ZNK5iplug10IPlugQueueINS_9SysExDataEE9IncrementEm, symObjAddr: 0x7408, symBinAddr: 0x100010530, symSize: 0x4C }
  - { offsetInCU: 0x49649, offset: 0x49649, size: 0x8, addend: 0x0, symName: __ZNK12WDL_TypedBufIN5iplug9SysExDataEE3GetEv, symObjAddr: 0x7454, symBinAddr: 0x10001057C, symSize: 0x24 }
  - { offsetInCU: 0x4966D, offset: 0x4966D, size: 0x8, addend: 0x0, symName: __ZNK12WDL_TypedBufIN5iplug9SysExDataEE7GetSizeEv, symObjAddr: 0x7478, symBinAddr: 0x1000105A0, symSize: 0x2C }
  - { offsetInCU: 0x496A1, offset: 0x496A1, size: 0x8, addend: 0x0, symName: __ZNKSt3__16__lessIiiEclB7v160006ERKiS3_, symObjAddr: 0x759C, symBinAddr: 0x1000106C4, symSize: 0x34 }
  - { offsetInCU: 0x496E7, offset: 0x496E7, size: 0x8, addend: 0x0, symName: __ZN8nlohmann16json_abi_v3_11_210basic_jsonINSt3__13mapENS2_6vectorENS2_12basic_stringIcNS2_11char_traitsIcEENS2_9allocatorIcEEEEbxydS8_NS0_14adl_serializerENS4_IhNS8_IhEEEEE5parseIRPKcEESE_OT_NS2_8functionIFbiNS0_6detail13parse_event_tERSE_EEEbb, symObjAddr: 0x7624, symBinAddr: 0x10001074C, symSize: 0x1A8 }
  - { offsetInCU: 0x49757, offset: 0x49757, size: 0x8, addend: 0x0, symName: __ZNSt3__18functionIFbiN8nlohmann16json_abi_v3_11_26detail13parse_event_tERNS2_10basic_jsonINS_3mapENS_6vectorENS_12basic_stringIcNS_11char_traitsIcEENS_9allocatorIcEEEEbxydSB_NS2_14adl_serializerENS7_IhNSB_IhEEEEEEEEC1B7v160006EDn, symObjAddr: 0x77CC, symBinAddr: 0x1000108F4, symSize: 0x34 }
  - { offsetInCU: 0x4978B, offset: 0x4978B, size: 0x8, addend: 0x0, symName: __ZNSt3__18functionIFbiN8nlohmann16json_abi_v3_11_26detail13parse_event_tERNS2_10basic_jsonINS_3mapENS_6vectorENS_12basic_stringIcNS_11char_traitsIcEENS_9allocatorIcEEEEbxydSB_NS2_14adl_serializerENS7_IhNSB_IhEEEEEEEED1Ev, symObjAddr: 0x7800, symBinAddr: 0x100010928, symSize: 0x2C }
  - { offsetInCU: 0x497B5, offset: 0x497B5, size: 0x8, addend: 0x0, symName: __ZN8nlohmann16json_abi_v3_11_210basic_jsonINSt3__13mapENS2_6vectorENS2_12basic_stringIcNS2_11char_traitsIcEENS2_9allocatorIcEEEEbxydS8_NS0_14adl_serializerENS4_IhNS8_IhEEEEEixIKcEERSE_PT_, symObjAddr: 0x7894, symBinAddr: 0x1000109BC, symSize: 0x78 }
  - { offsetInCU: 0x497F1, offset: 0x497F1, size: 0x8, addend: 0x0, symName: __ZNK8nlohmann16json_abi_v3_11_210basic_jsonINSt3__13mapENS2_6vectorENS2_12basic_stringIcNS2_11char_traitsIcEENS2_9allocatorIcEEEEbxydS8_NS0_14adl_serializerENS4_IhNS8_IhEEEEEcvT_IiLi0EEEv, symObjAddr: 0x790C, symBinAddr: 0x100010A34, symSize: 0x24 }
  - { offsetInCU: 0x49824, offset: 0x49824, size: 0x8, addend: 0x0, symName: __ZNK8nlohmann16json_abi_v3_11_210basic_jsonINSt3__13mapENS2_6vectorENS2_12basic_stringIcNS2_11char_traitsIcEENS2_9allocatorIcEEEEbxydS8_NS0_14adl_serializerENS4_IhNS8_IhEEEEEcvT_IdLi0EEEv, symObjAddr: 0x7930, symBinAddr: 0x100010A58, symSize: 0x24 }
  - { offsetInCU: 0x49858, offset: 0x49858, size: 0x8, addend: 0x0, symName: __ZNSt3__16vectorIhNS_9allocatorIhEEEC1B7v160006Ev, symObjAddr: 0x7954, symBinAddr: 0x100010A7C, symSize: 0x2C }
  - { offsetInCU: 0x4988A, offset: 0x4988A, size: 0x8, addend: 0x0, symName: __ZNK8nlohmann16json_abi_v3_11_210basic_jsonINSt3__13mapENS2_6vectorENS2_12basic_stringIcNS2_11char_traitsIcEENS2_9allocatorIcEEEEbxydS8_NS0_14adl_serializerENS4_IhNS8_IhEEEEE5countIRA5_KcLi0EEEmOT_, symObjAddr: 0x7980, symBinAddr: 0x100010AA8, symSize: 0x5C }
  - { offsetInCU: 0x498CD, offset: 0x498CD, size: 0x8, addend: 0x0, symName: __ZNK8nlohmann16json_abi_v3_11_210basic_jsonINSt3__13mapENS2_6vectorENS2_12basic_stringIcNS2_11char_traitsIcEENS2_9allocatorIcEEEEbxydS8_NS0_14adl_serializerENS4_IhNS8_IhEEEEE9is_stringEv, symObjAddr: 0x79DC, symBinAddr: 0x100010B04, symSize: 0x24 }
  - { offsetInCU: 0x498F1, offset: 0x498F1, size: 0x8, addend: 0x0, symName: __ZNK8nlohmann16json_abi_v3_11_210basic_jsonINSt3__13mapENS2_6vectorENS2_12basic_stringIcNS2_11char_traitsIcEENS2_9allocatorIcEEEEbxydS8_NS0_14adl_serializerENS4_IhNS8_IhEEEEE3getISA_SA_EEDTcldtclL_ZNS2_7declvalIRKSE_EEDTclsr3stdE9__declvalIT_ELi0EEEvEE8get_implIT0_EtlNS0_6detail12priority_tagILj4EEEEEEv, symObjAddr: 0x7A00, symBinAddr: 0x100010B28, symSize: 0x2C }
  - { offsetInCU: 0x49927, offset: 0x49927, size: 0x8, addend: 0x0, symName: __ZNKSt3__112basic_stringIcNS_11char_traitsIcEENS_9allocatorIcEEE4sizeB7v160006Ev, symObjAddr: 0x7A2C, symBinAddr: 0x100010B54, symSize: 0x54 }
  - { offsetInCU: 0x4994B, offset: 0x4994B, size: 0x8, addend: 0x0, symName: __ZNSt3__112basic_stringIcNS_11char_traitsIcEENS_9allocatorIcEEEixB7v160006Em, symObjAddr: 0x7A80, symBinAddr: 0x100010BA8, symSize: 0x30 }
  - { offsetInCU: 0x4997F, offset: 0x4997F, size: 0x8, addend: 0x0, symName: __ZNSt3__16vectorIhNS_9allocatorIhEEE6resizeEm, symObjAddr: 0x7AB0, symBinAddr: 0x100010BD8, symSize: 0x94 }
  - { offsetInCU: 0x499C3, offset: 0x499C3, size: 0x8, addend: 0x0, symName: __ZNKSt3__112basic_stringIcNS_11char_traitsIcEENS_9allocatorIcEEE5c_strB7v160006Ev, symObjAddr: 0x7C64, symBinAddr: 0x100010D8C, symSize: 0x24 }
  - { offsetInCU: 0x499E7, offset: 0x499E7, size: 0x8, addend: 0x0, symName: __ZNSt3__16vectorIhNS_9allocatorIhEEE4dataB7v160006Ev, symObjAddr: 0x7C88, symBinAddr: 0x100010DB0, symSize: 0x28 }
  - { offsetInCU: 0x49A0C, offset: 0x49A0C, size: 0x8, addend: 0x0, symName: __ZNKSt3__16vectorIhNS_9allocatorIhEEE4sizeB7v160006Ev, symObjAddr: 0x7CB0, symBinAddr: 0x100010DD8, symSize: 0x20 }
  - { offsetInCU: 0x49A31, offset: 0x49A31, size: 0x8, addend: 0x0, symName: __ZNSt3__16vectorIhNS_9allocatorIhEEED1B7v160006Ev, symObjAddr: 0x7CD0, symBinAddr: 0x100010DF8, symSize: 0x2C }
  - { offsetInCU: 0x49A59, offset: 0x49A59, size: 0x8, addend: 0x0, symName: __ZNK8nlohmann16json_abi_v3_11_210basic_jsonINSt3__13mapENS2_6vectorENS2_12basic_stringIcNS2_11char_traitsIcEENS2_9allocatorIcEEEEbxydS8_NS0_14adl_serializerENS4_IhNS8_IhEEEEE3getIhhEEDTcldtclL_ZNS2_7declvalIRKSE_EEDTclsr3stdE9__declvalIT_ELi0EEEvEE8get_implIT0_EtlNS0_6detail12priority_tagILj4EEEEEEv, symObjAddr: 0x7CFC, symBinAddr: 0x100010E24, symSize: 0x28 }
  - { offsetInCU: 0x49A90, offset: 0x49A90, size: 0x8, addend: 0x0, symName: __ZN5iplug8IMidiMsgC1Eihhh, symObjAddr: 0x7D24, symBinAddr: 0x100010E4C, symSize: 0x4C }
  - { offsetInCU: 0x49AF1, offset: 0x49AF1, size: 0x8, addend: 0x0, symName: __ZN8nlohmann16json_abi_v3_11_210basic_jsonINSt3__13mapENS2_6vectorENS2_12basic_stringIcNS2_11char_traitsIcEENS2_9allocatorIcEEEEbxydS8_NS0_14adl_serializerENS4_IhNS8_IhEEEEED1Ev, symObjAddr: 0x7D70, symBinAddr: 0x100010E98, symSize: 0x2C }
  - { offsetInCU: 0x49B1A, offset: 0x49B1A, size: 0x8, addend: 0x0, symName: __ZN8nlohmann16json_abi_v3_11_210basic_jsonINSt3__13mapENS2_6vectorENS2_12basic_stringIcNS2_11char_traitsIcEENS2_9allocatorIcEEEEbxydS8_NS0_14adl_serializerENS4_IhNS8_IhEEEEEC1EDn, symObjAddr: 0x7D9C, symBinAddr: 0x100010EC4, symSize: 0x4C }
  - { offsetInCU: 0x49B5D, offset: 0x49B5D, size: 0x8, addend: 0x0, symName: __ZN8nlohmann16json_abi_v3_11_210basic_jsonINSt3__13mapENS2_6vectorENS2_12basic_stringIcNS2_11char_traitsIcEENS2_9allocatorIcEEEEbxydS8_NS0_14adl_serializerENS4_IhNS8_IhEEEEE6parserINS0_6detail22iterator_input_adapterIPKcEEEENSG_6parserISE_T_EESM_NS2_8functionIFbiNSG_13parse_event_tERSE_EEEbb, symObjAddr: 0x7DE8, symBinAddr: 0x100010F10, symSize: 0xE4 }
  - { offsetInCU: 0x49BB9, offset: 0x49BB9, size: 0x8, addend: 0x0, symName: __ZNSt3__18functionIFbiN8nlohmann16json_abi_v3_11_26detail13parse_event_tERNS2_10basic_jsonINS_3mapENS_6vectorENS_12basic_stringIcNS_11char_traitsIcEENS_9allocatorIcEEEEbxydSB_NS2_14adl_serializerENS7_IhNSB_IhEEEEEEEEC1ERKSK_, symObjAddr: 0x7F20, symBinAddr: 0x100011048, symSize: 0x34 }
  - { offsetInCU: 0x49BF2, offset: 0x49BF2, size: 0x8, addend: 0x0, symName: __ZN8nlohmann16json_abi_v3_11_26detail6parserINS0_10basic_jsonINSt3__13mapENS4_6vectorENS4_12basic_stringIcNS4_11char_traitsIcEENS4_9allocatorIcEEEEbxydSA_NS0_14adl_serializerENS6_IhNSA_IhEEEEEENS1_22iterator_input_adapterIPKcEEE5parseEbRSG_, symObjAddr: 0x7F54, symBinAddr: 0x10001107C, symSize: 0x564 }
  - { offsetInCU: 0x49C6E, offset: 0x49C6E, size: 0x8, addend: 0x0, symName: __ZN8nlohmann16json_abi_v3_11_26detail6parserINS0_10basic_jsonINSt3__13mapENS4_6vectorENS4_12basic_stringIcNS4_11char_traitsIcEENS4_9allocatorIcEEEEbxydSA_NS0_14adl_serializerENS6_IhNSA_IhEEEEEENS1_22iterator_input_adapterIPKcEEED1Ev, symObjAddr: 0x84B8, symBinAddr: 0x1000115E0, symSize: 0x2C }
  - { offsetInCU: 0x49C9A, offset: 0x49C9A, size: 0x8, addend: 0x0, symName: __ZN8nlohmann16json_abi_v3_11_210basic_jsonINSt3__13mapENS2_6vectorENS2_12basic_stringIcNS2_11char_traitsIcEENS2_9allocatorIcEEEEbxydS8_NS0_14adl_serializerENS4_IhNS8_IhEEEEEC1ENS0_6detail7value_tE, symObjAddr: 0x84E4, symBinAddr: 0x10001160C, symSize: 0x34 }
  - { offsetInCU: 0x49CD1, offset: 0x49CD1, size: 0x8, addend: 0x0, symName: __ZNK8nlohmann16json_abi_v3_11_210basic_jsonINSt3__13mapENS2_6vectorENS2_12basic_stringIcNS2_11char_traitsIcEENS2_9allocatorIcEEEEbxydS8_NS0_14adl_serializerENS4_IhNS8_IhEEEEE16assert_invariantEb, symObjAddr: 0x8518, symBinAddr: 0x100011640, symSize: 0x1F0 }
  - { offsetInCU: 0x49D05, offset: 0x49D05, size: 0x8, addend: 0x0, symName: __ZN8nlohmann16json_abi_v3_11_210basic_jsonINSt3__13mapENS2_6vectorENS2_12basic_stringIcNS2_11char_traitsIcEENS2_9allocatorIcEEEEbxydS8_NS0_14adl_serializerENS4_IhNS8_IhEEEEEC2ENS0_6detail7value_tE, symObjAddr: 0x8708, symBinAddr: 0x100011830, symSize: 0x50 }
  - { offsetInCU: 0x49D3D, offset: 0x49D3D, size: 0x8, addend: 0x0, symName: __ZN8nlohmann16json_abi_v3_11_210basic_jsonINSt3__13mapENS2_6vectorENS2_12basic_stringIcNS2_11char_traitsIcEENS2_9allocatorIcEEEEbxydS8_NS0_14adl_serializerENS4_IhNS8_IhEEEEE10json_valueC1ENS0_6detail7value_tE, symObjAddr: 0x8758, symBinAddr: 0x100011880, symSize: 0x34 }
  - { offsetInCU: 0x49D75, offset: 0x49D75, size: 0x8, addend: 0x0, symName: __ZN8nlohmann16json_abi_v3_11_210basic_jsonINSt3__13mapENS2_6vectorENS2_12basic_stringIcNS2_11char_traitsIcEENS2_9allocatorIcEEEEbxydS8_NS0_14adl_serializerENS4_IhNS8_IhEEEEE10json_valueC2ENS0_6detail7value_tE, symObjAddr: 0x878C, symBinAddr: 0x1000118B4, symSize: 0x1DC }
  - { offsetInCU: 0x49DAD, offset: 0x49DAD, size: 0x8, addend: 0x0, symName: __ZN8nlohmann16json_abi_v3_11_210basic_jsonINSt3__13mapENS2_6vectorENS2_12basic_stringIcNS2_11char_traitsIcEENS2_9allocatorIcEEEEbxydS8_NS0_14adl_serializerENS4_IhNS8_IhEEEEE6createINS3_ISA_SE_NS2_4lessIvEENS8_INS2_4pairIKSA_SE_EEEEEEJEEEPT_DpOT0_, symObjAddr: 0x8990, symBinAddr: 0x100011AB8, symSize: 0xEC }
  - { offsetInCU: 0x49E26, offset: 0x49E26, size: 0x8, addend: 0x0, symName: __ZN8nlohmann16json_abi_v3_11_210basic_jsonINSt3__13mapENS2_6vectorENS2_12basic_stringIcNS2_11char_traitsIcEENS2_9allocatorIcEEEEbxydS8_NS0_14adl_serializerENS4_IhNS8_IhEEEEE6createINS4_ISE_NS8_ISE_EEEEJEEEPT_DpOT0_, symObjAddr: 0x8A7C, symBinAddr: 0x100011BA4, symSize: 0xEC }
  - { offsetInCU: 0x49EB5, offset: 0x49EB5, size: 0x8, addend: 0x0, symName: __ZN8nlohmann16json_abi_v3_11_210basic_jsonINSt3__13mapENS2_6vectorENS2_12basic_stringIcNS2_11char_traitsIcEENS2_9allocatorIcEEEEbxydS8_NS0_14adl_serializerENS4_IhNS8_IhEEEEE6createISA_JRA1_KcEEEPT_DpOT0_, symObjAddr: 0x8B68, symBinAddr: 0x100011C90, symSize: 0xF4 }
  - { offsetInCU: 0x49F43, offset: 0x49F43, size: 0x8, addend: 0x0, symName: __ZN8nlohmann16json_abi_v3_11_210basic_jsonINSt3__13mapENS2_6vectorENS2_12basic_stringIcNS2_11char_traitsIcEENS2_9allocatorIcEEEEbxydS8_NS0_14adl_serializerENS4_IhNS8_IhEEEEE6createINS0_27byte_container_with_subtypeISD_EEJEEEPT_DpOT0_, symObjAddr: 0x8C5C, symBinAddr: 0x100011D84, symSize: 0xEC }
  - { offsetInCU: 0x49FE9, offset: 0x49FE9, size: 0x8, addend: 0x0, symName: __ZN8nlohmann16json_abi_v3_11_26detail11other_error6createIDnLi0EEES2_iRKNSt3__112basic_stringIcNS4_11char_traitsIcEENS4_9allocatorIcEEEET_, symObjAddr: 0x8D48, symBinAddr: 0x100011E70, symSize: 0x130 }
  - { offsetInCU: 0x4A049, offset: 0x4A049, size: 0x8, addend: 0x0, symName: __ZN8nlohmann16json_abi_v3_11_26detail11other_errorD1Ev, symObjAddr: 0x8E78, symBinAddr: 0x100011FA0, symSize: 0x2C }
  - { offsetInCU: 0x4A08E, offset: 0x4A08E, size: 0x8, addend: 0x0, symName: __ZNSt3__19allocatorINS_3mapINS_12basic_stringIcNS_11char_traitsIcEENS0_IcEEEEN8nlohmann16json_abi_v3_11_210basic_jsonIS1_NS_6vectorES6_bxydS0_NS8_14adl_serializerENSA_IhNS0_IhEEEEEENS_4lessIvEENS0_INS_4pairIKS6_SE_EEEEEEEC1B7v160006Ev, symObjAddr: 0x8EA4, symBinAddr: 0x100011FCC, symSize: 0x2C }
  - { offsetInCU: 0x4A0BC, offset: 0x4A0BC, size: 0x8, addend: 0x0, symName: __ZNSt3__116allocator_traitsINS_9allocatorINS_3mapINS_12basic_stringIcNS_11char_traitsIcEENS1_IcEEEEN8nlohmann16json_abi_v3_11_210basic_jsonIS2_NS_6vectorES7_bxydS1_NS9_14adl_serializerENSB_IhNS1_IhEEEEEENS_4lessIvEENS1_INS_4pairIKS7_SF_EEEEEEEEE8allocateB7v160006ERSN_m, symObjAddr: 0x8ED0, symBinAddr: 0x100011FF8, symSize: 0x2C }
  - { offsetInCU: 0x4A17C, offset: 0x4A17C, size: 0x8, addend: 0x0, symName: __ZNSt3__110unique_ptrINS_3mapINS_12basic_stringIcNS_11char_traitsIcEENS_9allocatorIcEEEEN8nlohmann16json_abi_v3_11_210basic_jsonIS1_NS_6vectorES7_bxydS5_NS9_14adl_serializerENSB_IhNS5_IhEEEEEENS_4lessIvEENS5_INS_4pairIKS7_SF_EEEEEEZNSF_6createISM_JEEEPT_DpOT0_EUlPSM_E_EC1B7v160006ILb1EvEEST_NS_16__dependent_typeINS_27__unique_ptr_deleter_sfinaeISU_EEXT_EE15__lval_ref_typeE, symObjAddr: 0x8EFC, symBinAddr: 0x100012024, symSize: 0x3C }
  - { offsetInCU: 0x4A1CD, offset: 0x4A1CD, size: 0x8, addend: 0x0, symName: __ZNSt3__116allocator_traitsINS_9allocatorINS_3mapINS_12basic_stringIcNS_11char_traitsIcEENS1_IcEEEEN8nlohmann16json_abi_v3_11_210basic_jsonIS2_NS_6vectorES7_bxydS1_NS9_14adl_serializerENSB_IhNS1_IhEEEEEENS_4lessIvEENS1_INS_4pairIKS7_SF_EEEEEEEEE9constructB7v160006ISM_JEvEEvRSN_PT_DpOT0_, symObjAddr: 0x8F38, symBinAddr: 0x100012060, symSize: 0x2C }
  - { offsetInCU: 0x4A20F, offset: 0x4A20F, size: 0x8, addend: 0x0, symName: __ZNKSt3__110unique_ptrINS_3mapINS_12basic_stringIcNS_11char_traitsIcEENS_9allocatorIcEEEEN8nlohmann16json_abi_v3_11_210basic_jsonIS1_NS_6vectorES7_bxydS5_NS9_14adl_serializerENSB_IhNS5_IhEEEEEENS_4lessIvEENS5_INS_4pairIKS7_SF_EEEEEEZNSF_6createISM_JEEEPT_DpOT0_EUlPSM_E_E3getB7v160006Ev, symObjAddr: 0x8F64, symBinAddr: 0x10001208C, symSize: 0x28 }
  - { offsetInCU: 0x4A233, offset: 0x4A233, size: 0x8, addend: 0x0, symName: __ZNSt3__110unique_ptrINS_3mapINS_12basic_stringIcNS_11char_traitsIcEENS_9allocatorIcEEEEN8nlohmann16json_abi_v3_11_210basic_jsonIS1_NS_6vectorES7_bxydS5_NS9_14adl_serializerENSB_IhNS5_IhEEEEEENS_4lessIvEENS5_INS_4pairIKS7_SF_EEEEEEZNSF_6createISM_JEEEPT_DpOT0_EUlPSM_E_E7releaseB7v160006Ev, symObjAddr: 0x8FB8, symBinAddr: 0x1000120E0, symSize: 0x44 }
  - { offsetInCU: 0x4A267, offset: 0x4A267, size: 0x8, addend: 0x0, symName: __ZNSt3__110unique_ptrINS_3mapINS_12basic_stringIcNS_11char_traitsIcEENS_9allocatorIcEEEEN8nlohmann16json_abi_v3_11_210basic_jsonIS1_NS_6vectorES7_bxydS5_NS9_14adl_serializerENSB_IhNS5_IhEEEEEENS_4lessIvEENS5_INS_4pairIKS7_SF_EEEEEEZNSF_6createISM_JEEEPT_DpOT0_EUlPSM_E_ED1B7v160006Ev, symObjAddr: 0x8FFC, symBinAddr: 0x100012124, symSize: 0x2C }
  - { offsetInCU: 0x4A290, offset: 0x4A290, size: 0x8, addend: 0x0, symName: __ZNSt3__19allocatorINS_3mapINS_12basic_stringIcNS_11char_traitsIcEENS0_IcEEEEN8nlohmann16json_abi_v3_11_210basic_jsonIS1_NS_6vectorES6_bxydS0_NS8_14adl_serializerENSA_IhNS0_IhEEEEEENS_4lessIvEENS0_INS_4pairIKS6_SE_EEEEEEEC2B7v160006Ev, symObjAddr: 0x9028, symBinAddr: 0x100012150, symSize: 0x2C }
  - { offsetInCU: 0x4A2B9, offset: 0x4A2B9, size: 0x8, addend: 0x0, symName: __ZNSt3__116__non_trivial_ifILb1ENS_9allocatorINS_3mapINS_12basic_stringIcNS_11char_traitsIcEENS1_IcEEEEN8nlohmann16json_abi_v3_11_210basic_jsonIS2_NS_6vectorES7_bxydS1_NS9_14adl_serializerENSB_IhNS1_IhEEEEEENS_4lessIvEENS1_INS_4pairIKS7_SF_EEEEEEEEEC2B7v160006Ev, symObjAddr: 0x9054, symBinAddr: 0x10001217C, symSize: 0x14 }
  - { offsetInCU: 0x4A2E1, offset: 0x4A2E1, size: 0x8, addend: 0x0, symName: __ZNSt3__19allocatorINS_3mapINS_12basic_stringIcNS_11char_traitsIcEENS0_IcEEEEN8nlohmann16json_abi_v3_11_210basic_jsonIS1_NS_6vectorES6_bxydS0_NS8_14adl_serializerENSA_IhNS0_IhEEEEEENS_4lessIvEENS0_INS_4pairIKS6_SE_EEEEEEE8allocateB7v160006Em, symObjAddr: 0x9068, symBinAddr: 0x100012190, symSize: 0x5C }
  - { offsetInCU: 0x4A31E, offset: 0x4A31E, size: 0x8, addend: 0x0, symName: __ZNSt3__116allocator_traitsINS_9allocatorINS_3mapINS_12basic_stringIcNS_11char_traitsIcEENS1_IcEEEEN8nlohmann16json_abi_v3_11_210basic_jsonIS2_NS_6vectorES7_bxydS1_NS9_14adl_serializerENSB_IhNS1_IhEEEEEENS_4lessIvEENS1_INS_4pairIKS7_SF_EEEEEEEEE8max_sizeB7v160006ISN_vEEmRKSN_, symObjAddr: 0x90C4, symBinAddr: 0x1000121EC, symSize: 0x24 }
  - { offsetInCU: 0x4A34D, offset: 0x4A34D, size: 0x8, addend: 0x0, symName: __ZNKSt3__19allocatorINS_3mapINS_12basic_stringIcNS_11char_traitsIcEENS0_IcEEEEN8nlohmann16json_abi_v3_11_210basic_jsonIS1_NS_6vectorES6_bxydS0_NS8_14adl_serializerENSA_IhNS0_IhEEEEEENS_4lessIvEENS0_INS_4pairIKS6_SE_EEEEEEE8max_sizeB7v160006Ev, symObjAddr: 0x90E8, symBinAddr: 0x100012210, symSize: 0x18 }
  - { offsetInCU: 0x4A372, offset: 0x4A372, size: 0x8, addend: 0x0, symName: __ZNSt3__110unique_ptrINS_3mapINS_12basic_stringIcNS_11char_traitsIcEENS_9allocatorIcEEEEN8nlohmann16json_abi_v3_11_210basic_jsonIS1_NS_6vectorES7_bxydS5_NS9_14adl_serializerENSB_IhNS5_IhEEEEEENS_4lessIvEENS5_INS_4pairIKS7_SF_EEEEEEZNSF_6createISM_JEEEPT_DpOT0_EUlPSM_E_EC2B7v160006ILb1EvEEST_NS_16__dependent_typeINS_27__unique_ptr_deleter_sfinaeISU_EEXT_EE15__lval_ref_typeE, symObjAddr: 0x9100, symBinAddr: 0x100012228, symSize: 0x48 }
  - { offsetInCU: 0x4A3C3, offset: 0x4A3C3, size: 0x8, addend: 0x0, symName: __ZNSt3__117__compressed_pairIPNS_3mapINS_12basic_stringIcNS_11char_traitsIcEENS_9allocatorIcEEEEN8nlohmann16json_abi_v3_11_210basic_jsonIS1_NS_6vectorES7_bxydS5_NS9_14adl_serializerENSB_IhNS5_IhEEEEEENS_4lessIvEENS5_INS_4pairIKS7_SF_EEEEEEZNSF_6createISM_JEEEPT_DpOT0_EUlSN_E_EC1B7v160006IRSN_RKSU_EEOSP_OT0_, symObjAddr: 0x9148, symBinAddr: 0x100012270, symSize: 0x3C }
  - { offsetInCU: 0x4A41A, offset: 0x4A41A, size: 0x8, addend: 0x0, symName: __ZNSt3__117__compressed_pairIPNS_3mapINS_12basic_stringIcNS_11char_traitsIcEENS_9allocatorIcEEEEN8nlohmann16json_abi_v3_11_210basic_jsonIS1_NS_6vectorES7_bxydS5_NS9_14adl_serializerENSB_IhNS5_IhEEEEEENS_4lessIvEENS5_INS_4pairIKS7_SF_EEEEEEZNSF_6createISM_JEEEPT_DpOT0_EUlSN_E_EC2B7v160006IRSN_RKSU_EEOSP_OT0_, symObjAddr: 0x9184, symBinAddr: 0x1000122AC, symSize: 0x48 }
  - { offsetInCU: 0x4A471, offset: 0x4A471, size: 0x8, addend: 0x0, symName: __ZNSt3__122__compressed_pair_elemIPNS_3mapINS_12basic_stringIcNS_11char_traitsIcEENS_9allocatorIcEEEEN8nlohmann16json_abi_v3_11_210basic_jsonIS1_NS_6vectorES7_bxydS5_NS9_14adl_serializerENSB_IhNS5_IhEEEEEENS_4lessIvEENS5_INS_4pairIKS7_SF_EEEEEELi0ELb0EEC2B7v160006IRSN_vEEOT_, symObjAddr: 0x91CC, symBinAddr: 0x1000122F4, symSize: 0x24 }
  - { offsetInCU: 0x4A4B3, offset: 0x4A4B3, size: 0x8, addend: 0x0, symName: __ZNSt3__122__compressed_pair_elemIZN8nlohmann16json_abi_v3_11_210basic_jsonINS_3mapENS_6vectorENS_12basic_stringIcNS_11char_traitsIcEENS_9allocatorIcEEEEbxydS9_NS2_14adl_serializerENS5_IhNS9_IhEEEEE6createINS4_ISB_SF_NS_4lessIvEENS9_INS_4pairIKSB_SF_EEEEEEJEEEPT_DpOT0_EUlPSN_E_Li1ELb0EEC2B7v160006IRKSU_vEEOSO_, symObjAddr: 0x91F0, symBinAddr: 0x100012318, symSize: 0x24 }
  - { offsetInCU: 0x4A4F4, offset: 0x4A4F4, size: 0x8, addend: 0x0, symName: __ZNSt3__19allocatorINS_3mapINS_12basic_stringIcNS_11char_traitsIcEENS0_IcEEEEN8nlohmann16json_abi_v3_11_210basic_jsonIS1_NS_6vectorES6_bxydS0_NS8_14adl_serializerENSA_IhNS0_IhEEEEEENS_4lessIvEENS0_INS_4pairIKS6_SE_EEEEEEE9constructB7v160006ISL_JEEEvPT_DpOT0_, symObjAddr: 0x9214, symBinAddr: 0x10001233C, symSize: 0x28 }
  - { offsetInCU: 0x4A535, offset: 0x4A535, size: 0x8, addend: 0x0, symName: __ZNSt3__13mapINS_12basic_stringIcNS_11char_traitsIcEENS_9allocatorIcEEEEN8nlohmann16json_abi_v3_11_210basic_jsonIS0_NS_6vectorES6_bxydS4_NS8_14adl_serializerENSA_IhNS4_IhEEEEEENS_4lessIvEENS4_INS_4pairIKS6_SE_EEEEEC1B7v160006Ev, symObjAddr: 0x923C, symBinAddr: 0x100012364, symSize: 0x2C }
  - { offsetInCU: 0x4A55E, offset: 0x4A55E, size: 0x8, addend: 0x0, symName: __ZNSt3__13mapINS_12basic_stringIcNS_11char_traitsIcEENS_9allocatorIcEEEEN8nlohmann16json_abi_v3_11_210basic_jsonIS0_NS_6vectorES6_bxydS4_NS8_14adl_serializerENSA_IhNS4_IhEEEEEENS_4lessIvEENS4_INS_4pairIKS6_SE_EEEEEC2B7v160006Ev, symObjAddr: 0x9268, symBinAddr: 0x100012390, symSize: 0x40 }
  - { offsetInCU: 0x4A587, offset: 0x4A587, size: 0x8, addend: 0x0, symName: __ZNSt3__119__map_value_compareINS_12basic_stringIcNS_11char_traitsIcEENS_9allocatorIcEEEENS_12__value_typeIS6_N8nlohmann16json_abi_v3_11_210basic_jsonINS_3mapENS_6vectorES6_bxydS4_NS9_14adl_serializerENSC_IhNS4_IhEEEEEEEENS_4lessIvEELb1EEC1B7v160006ESJ_, symObjAddr: 0x92A8, symBinAddr: 0x1000123D0, symSize: 0x2C }
  - { offsetInCU: 0x4A5BF, offset: 0x4A5BF, size: 0x8, addend: 0x0, symName: __ZNSt3__16__treeINS_12__value_typeINS_12basic_stringIcNS_11char_traitsIcEENS_9allocatorIcEEEEN8nlohmann16json_abi_v3_11_210basic_jsonINS_3mapENS_6vectorES7_bxydS5_NS9_14adl_serializerENSC_IhNS5_IhEEEEEEEENS_19__map_value_compareIS7_SH_NS_4lessIvEELb1EEENS5_ISH_EEEC1ERKSL_, symObjAddr: 0x92D4, symBinAddr: 0x1000123FC, symSize: 0x34 }
  - { offsetInCU: 0x4A5F9, offset: 0x4A5F9, size: 0x8, addend: 0x0, symName: __ZNSt3__119__map_value_compareINS_12basic_stringIcNS_11char_traitsIcEENS_9allocatorIcEEEENS_12__value_typeIS6_N8nlohmann16json_abi_v3_11_210basic_jsonINS_3mapENS_6vectorES6_bxydS4_NS9_14adl_serializerENSC_IhNS4_IhEEEEEEEENS_4lessIvEELb1EEC2B7v160006ESJ_, symObjAddr: 0x9308, symBinAddr: 0x100012430, symSize: 0x14 }
  - { offsetInCU: 0x4A631, offset: 0x4A631, size: 0x8, addend: 0x0, symName: __ZNSt3__16__treeINS_12__value_typeINS_12basic_stringIcNS_11char_traitsIcEENS_9allocatorIcEEEEN8nlohmann16json_abi_v3_11_210basic_jsonINS_3mapENS_6vectorES7_bxydS5_NS9_14adl_serializerENSC_IhNS5_IhEEEEEEEENS_19__map_value_compareIS7_SH_NS_4lessIvEELb1EEENS5_ISH_EEEC2ERKSL_, symObjAddr: 0x931C, symBinAddr: 0x100012444, symSize: 0x7C }
  - { offsetInCU: 0x4A66B, offset: 0x4A66B, size: 0x8, addend: 0x0, symName: __ZNSt3__117__compressed_pairINS_15__tree_end_nodeIPNS_16__tree_node_baseIPvEEEENS_9allocatorINS_11__tree_nodeINS_12__value_typeINS_12basic_stringIcNS_11char_traitsIcEENS7_IcEEEEN8nlohmann16json_abi_v3_11_210basic_jsonINS_3mapENS_6vectorESE_bxydS7_NSG_14adl_serializerENSJ_IhNS7_IhEEEEEEEES3_EEEEEC1B7v160006ILb1EvEEv, symObjAddr: 0x9398, symBinAddr: 0x1000124C0, symSize: 0x2C }
  - { offsetInCU: 0x4A6A0, offset: 0x4A6A0, size: 0x8, addend: 0x0, symName: __ZNSt3__117__compressed_pairImNS_19__map_value_compareINS_12basic_stringIcNS_11char_traitsIcEENS_9allocatorIcEEEENS_12__value_typeIS7_N8nlohmann16json_abi_v3_11_210basic_jsonINS_3mapENS_6vectorES7_bxydS5_NSA_14adl_serializerENSD_IhNS5_IhEEEEEEEENS_4lessIvEELb1EEEEC1B7v160006IiRKSL_EEOT_OT0_, symObjAddr: 0x93C4, symBinAddr: 0x1000124EC, symSize: 0x3C }
  - { offsetInCU: 0x4A6F6, offset: 0x4A6F6, size: 0x8, addend: 0x0, symName: __ZNSt3__16__treeINS_12__value_typeINS_12basic_stringIcNS_11char_traitsIcEENS_9allocatorIcEEEEN8nlohmann16json_abi_v3_11_210basic_jsonINS_3mapENS_6vectorES7_bxydS5_NS9_14adl_serializerENSC_IhNS5_IhEEEEEEEENS_19__map_value_compareIS7_SH_NS_4lessIvEELb1EEENS5_ISH_EEE10__end_nodeB7v160006Ev, symObjAddr: 0x9400, symBinAddr: 0x100012528, symSize: 0x2C }
  - { offsetInCU: 0x4A71B, offset: 0x4A71B, size: 0x8, addend: 0x0, symName: __ZNSt3__16__treeINS_12__value_typeINS_12basic_stringIcNS_11char_traitsIcEENS_9allocatorIcEEEEN8nlohmann16json_abi_v3_11_210basic_jsonINS_3mapENS_6vectorES7_bxydS5_NS9_14adl_serializerENSC_IhNS5_IhEEEEEEEENS_19__map_value_compareIS7_SH_NS_4lessIvEELb1EEENS5_ISH_EEE12__begin_nodeB7v160006Ev, symObjAddr: 0x942C, symBinAddr: 0x100012554, symSize: 0x14 }
  - { offsetInCU: 0x4A740, offset: 0x4A740, size: 0x8, addend: 0x0, symName: __ZNSt3__117__compressed_pairINS_15__tree_end_nodeIPNS_16__tree_node_baseIPvEEEENS_9allocatorINS_11__tree_nodeINS_12__value_typeINS_12basic_stringIcNS_11char_traitsIcEENS7_IcEEEEN8nlohmann16json_abi_v3_11_210basic_jsonINS_3mapENS_6vectorESE_bxydS7_NSG_14adl_serializerENSJ_IhNS7_IhEEEEEEEES3_EEEEEC2B7v160006ILb1EvEEv, symObjAddr: 0x9440, symBinAddr: 0x100012568, symSize: 0x34 }
  - { offsetInCU: 0x4A775, offset: 0x4A775, size: 0x8, addend: 0x0, symName: __ZNSt3__122__compressed_pair_elemINS_15__tree_end_nodeIPNS_16__tree_node_baseIPvEEEELi0ELb0EEC2B7v160006ENS_16__value_init_tagE, symObjAddr: 0x9474, symBinAddr: 0x10001259C, symSize: 0x2C }
  - { offsetInCU: 0x4A7A9, offset: 0x4A7A9, size: 0x8, addend: 0x0, symName: __ZNSt3__122__compressed_pair_elemINS_9allocatorINS_11__tree_nodeINS_12__value_typeINS_12basic_stringIcNS_11char_traitsIcEENS1_IcEEEEN8nlohmann16json_abi_v3_11_210basic_jsonINS_3mapENS_6vectorES8_bxydS1_NSA_14adl_serializerENSD_IhNS1_IhEEEEEEEEPvEEEELi1ELb1EEC2B7v160006ENS_16__value_init_tagE, symObjAddr: 0x94A0, symBinAddr: 0x1000125C8, symSize: 0x2C }
  - { offsetInCU: 0x4A7DD, offset: 0x4A7DD, size: 0x8, addend: 0x0, symName: __ZNSt3__115__tree_end_nodeIPNS_16__tree_node_baseIPvEEEC1B7v160006Ev, symObjAddr: 0x94CC, symBinAddr: 0x1000125F4, symSize: 0x2C }
  - { offsetInCU: 0x4A806, offset: 0x4A806, size: 0x8, addend: 0x0, symName: __ZNSt3__115__tree_end_nodeIPNS_16__tree_node_baseIPvEEEC2B7v160006Ev, symObjAddr: 0x94F8, symBinAddr: 0x100012620, symSize: 0x18 }
  - { offsetInCU: 0x4A82F, offset: 0x4A82F, size: 0x8, addend: 0x0, symName: __ZNSt3__19allocatorINS_11__tree_nodeINS_12__value_typeINS_12basic_stringIcNS_11char_traitsIcEENS0_IcEEEEN8nlohmann16json_abi_v3_11_210basic_jsonINS_3mapENS_6vectorES7_bxydS0_NS9_14adl_serializerENSC_IhNS0_IhEEEEEEEEPvEEEC2B7v160006Ev, symObjAddr: 0x9510, symBinAddr: 0x100012638, symSize: 0x2C }
  - { offsetInCU: 0x4A858, offset: 0x4A858, size: 0x8, addend: 0x0, symName: __ZNSt3__116__non_trivial_ifILb1ENS_9allocatorINS_11__tree_nodeINS_12__value_typeINS_12basic_stringIcNS_11char_traitsIcEENS1_IcEEEEN8nlohmann16json_abi_v3_11_210basic_jsonINS_3mapENS_6vectorES8_bxydS1_NSA_14adl_serializerENSD_IhNS1_IhEEEEEEEEPvEEEEEC2B7v160006Ev, symObjAddr: 0x953C, symBinAddr: 0x100012664, symSize: 0x14 }
  - { offsetInCU: 0x4A881, offset: 0x4A881, size: 0x8, addend: 0x0, symName: __ZNSt3__117__compressed_pairImNS_19__map_value_compareINS_12basic_stringIcNS_11char_traitsIcEENS_9allocatorIcEEEENS_12__value_typeIS7_N8nlohmann16json_abi_v3_11_210basic_jsonINS_3mapENS_6vectorES7_bxydS5_NSA_14adl_serializerENSD_IhNS5_IhEEEEEEEENS_4lessIvEELb1EEEEC2B7v160006IiRKSL_EEOT_OT0_, symObjAddr: 0x9550, symBinAddr: 0x100012678, symSize: 0x44 }
  - { offsetInCU: 0x4A8D8, offset: 0x4A8D8, size: 0x8, addend: 0x0, symName: __ZNSt3__122__compressed_pair_elemImLi0ELb0EEC2B7v160006IivEEOT_, symObjAddr: 0x9594, symBinAddr: 0x1000126BC, symSize: 0x24 }
  - { offsetInCU: 0x4A91A, offset: 0x4A91A, size: 0x8, addend: 0x0, symName: __ZNSt3__122__compressed_pair_elemINS_19__map_value_compareINS_12basic_stringIcNS_11char_traitsIcEENS_9allocatorIcEEEENS_12__value_typeIS7_N8nlohmann16json_abi_v3_11_210basic_jsonINS_3mapENS_6vectorES7_bxydS5_NSA_14adl_serializerENSD_IhNS5_IhEEEEEEEENS_4lessIvEELb1EEELi1ELb1EEC2B7v160006IRKSL_vEEOT_, symObjAddr: 0x95B8, symBinAddr: 0x1000126E0, symSize: 0x18 }
  - { offsetInCU: 0x4A95C, offset: 0x4A95C, size: 0x8, addend: 0x0, symName: __ZNSt3__114pointer_traitsIPNS_15__tree_end_nodeIPNS_16__tree_node_baseIPvEEEEE10pointer_toB7v160006ERS6_, symObjAddr: 0x95D0, symBinAddr: 0x1000126F8, symSize: 0x14 }
  - { offsetInCU: 0x4A97E, offset: 0x4A97E, size: 0x8, addend: 0x0, symName: __ZNSt3__117__compressed_pairINS_15__tree_end_nodeIPNS_16__tree_node_baseIPvEEEENS_9allocatorINS_11__tree_nodeINS_12__value_typeINS_12basic_stringIcNS_11char_traitsIcEENS7_IcEEEEN8nlohmann16json_abi_v3_11_210basic_jsonINS_3mapENS_6vectorESE_bxydS7_NSG_14adl_serializerENSJ_IhNS7_IhEEEEEEEES3_EEEEE5firstB7v160006Ev, symObjAddr: 0x95E4, symBinAddr: 0x10001270C, symSize: 0x24 }
  - { offsetInCU: 0x4A9A3, offset: 0x4A9A3, size: 0x8, addend: 0x0, symName: __ZNSt3__122__compressed_pair_elemINS_15__tree_end_nodeIPNS_16__tree_node_baseIPvEEEELi0ELb0EE5__getB7v160006Ev, symObjAddr: 0x9608, symBinAddr: 0x100012730, symSize: 0x14 }
  - { offsetInCU: 0x4A9C7, offset: 0x4A9C7, size: 0x8, addend: 0x0, symName: __ZNKSt3__117__compressed_pairIPNS_3mapINS_12basic_stringIcNS_11char_traitsIcEENS_9allocatorIcEEEEN8nlohmann16json_abi_v3_11_210basic_jsonIS1_NS_6vectorES7_bxydS5_NS9_14adl_serializerENSB_IhNS5_IhEEEEEENS_4lessIvEENS5_INS_4pairIKS7_SF_EEEEEEZNSF_6createISM_JEEEPT_DpOT0_EUlSN_E_E5firstB7v160006Ev, symObjAddr: 0x961C, symBinAddr: 0x100012744, symSize: 0x24 }
  - { offsetInCU: 0x4A9EC, offset: 0x4A9EC, size: 0x8, addend: 0x0, symName: __ZNKSt3__122__compressed_pair_elemIPNS_3mapINS_12basic_stringIcNS_11char_traitsIcEENS_9allocatorIcEEEEN8nlohmann16json_abi_v3_11_210basic_jsonIS1_NS_6vectorES7_bxydS5_NS9_14adl_serializerENSB_IhNS5_IhEEEEEENS_4lessIvEENS5_INS_4pairIKS7_SF_EEEEEELi0ELb0EE5__getB7v160006Ev, symObjAddr: 0x9640, symBinAddr: 0x100012768, symSize: 0x14 }
  - { offsetInCU: 0x4AA10, offset: 0x4AA10, size: 0x8, addend: 0x0, symName: __ZNKSt3__110unique_ptrINS_3mapINS_12basic_stringIcNS_11char_traitsIcEENS_9allocatorIcEEEEN8nlohmann16json_abi_v3_11_210basic_jsonIS1_NS_6vectorES7_bxydS5_NS9_14adl_serializerENSB_IhNS5_IhEEEEEENS_4lessIvEENS5_INS_4pairIKS7_SF_EEEEEEZNSF_6createISM_JEEEPT_DpOT0_EUlPSM_E_EcvbB7v160006Ev, symObjAddr: 0x9654, symBinAddr: 0x10001277C, symSize: 0x34 }
  - { offsetInCU: 0x4AA34, offset: 0x4AA34, size: 0x8, addend: 0x0, symName: __ZNSt3__117__compressed_pairIPNS_3mapINS_12basic_stringIcNS_11char_traitsIcEENS_9allocatorIcEEEEN8nlohmann16json_abi_v3_11_210basic_jsonIS1_NS_6vectorES7_bxydS5_NS9_14adl_serializerENSB_IhNS5_IhEEEEEENS_4lessIvEENS5_INS_4pairIKS7_SF_EEEEEEZNSF_6createISM_JEEEPT_DpOT0_EUlSN_E_E5firstB7v160006Ev, symObjAddr: 0x9688, symBinAddr: 0x1000127B0, symSize: 0x24 }
  - { offsetInCU: 0x4AA59, offset: 0x4AA59, size: 0x8, addend: 0x0, symName: __ZNSt3__122__compressed_pair_elemIPNS_3mapINS_12basic_stringIcNS_11char_traitsIcEENS_9allocatorIcEEEEN8nlohmann16json_abi_v3_11_210basic_jsonIS1_NS_6vectorES7_bxydS5_NS9_14adl_serializerENSB_IhNS5_IhEEEEEENS_4lessIvEENS5_INS_4pairIKS7_SF_EEEEEELi0ELb0EE5__getB7v160006Ev, symObjAddr: 0x96AC, symBinAddr: 0x1000127D4, symSize: 0x14 }
  - { offsetInCU: 0x4AA7E, offset: 0x4AA7E, size: 0x8, addend: 0x0, symName: __ZNSt3__110unique_ptrINS_3mapINS_12basic_stringIcNS_11char_traitsIcEENS_9allocatorIcEEEEN8nlohmann16json_abi_v3_11_210basic_jsonIS1_NS_6vectorES7_bxydS5_NS9_14adl_serializerENSB_IhNS5_IhEEEEEENS_4lessIvEENS5_INS_4pairIKS7_SF_EEEEEEZNSF_6createISM_JEEEPT_DpOT0_EUlPSM_E_ED2B7v160006Ev, symObjAddr: 0x96C0, symBinAddr: 0x1000127E8, symSize: 0x30 }
  - { offsetInCU: 0x4AAA6, offset: 0x4AAA6, size: 0x8, addend: 0x0, symName: __ZNSt3__110unique_ptrINS_3mapINS_12basic_stringIcNS_11char_traitsIcEENS_9allocatorIcEEEEN8nlohmann16json_abi_v3_11_210basic_jsonIS1_NS_6vectorES7_bxydS5_NS9_14adl_serializerENSB_IhNS5_IhEEEEEENS_4lessIvEENS5_INS_4pairIKS7_SF_EEEEEEZNSF_6createISM_JEEEPT_DpOT0_EUlPSM_E_E5resetB7v160006EST_, symObjAddr: 0x96F0, symBinAddr: 0x100012818, symSize: 0x80 }
  - { offsetInCU: 0x4AAE8, offset: 0x4AAE8, size: 0x8, addend: 0x0, symName: __ZNSt3__117__compressed_pairIPNS_3mapINS_12basic_stringIcNS_11char_traitsIcEENS_9allocatorIcEEEEN8nlohmann16json_abi_v3_11_210basic_jsonIS1_NS_6vectorES7_bxydS5_NS9_14adl_serializerENSB_IhNS5_IhEEEEEENS_4lessIvEENS5_INS_4pairIKS7_SF_EEEEEEZNSF_6createISM_JEEEPT_DpOT0_EUlSN_E_E6secondB7v160006Ev, symObjAddr: 0x9770, symBinAddr: 0x100012898, symSize: 0x28 }
  - { offsetInCU: 0x4AB12, offset: 0x4AB12, size: 0x8, addend: 0x0, symName: __ZZN8nlohmann16json_abi_v3_11_210basic_jsonINSt3__13mapENS2_6vectorENS2_12basic_stringIcNS2_11char_traitsIcEENS2_9allocatorIcEEEEbxydS8_NS0_14adl_serializerENS4_IhNS8_IhEEEEE6createINS3_ISA_SE_NS2_4lessIvEENS8_INS2_4pairIKSA_SE_EEEEEEJEEEPT_DpOT0_ENKUlPSM_E_clESS_, symObjAddr: 0x9798, symBinAddr: 0x1000128C0, symSize: 0x34 }
  - { offsetInCU: 0x4AB4A, offset: 0x4AB4A, size: 0x8, addend: 0x0, symName: __ZNSt3__122__compressed_pair_elemIZN8nlohmann16json_abi_v3_11_210basic_jsonINS_3mapENS_6vectorENS_12basic_stringIcNS_11char_traitsIcEENS_9allocatorIcEEEEbxydS9_NS2_14adl_serializerENS5_IhNS9_IhEEEEE6createINS4_ISB_SF_NS_4lessIvEENS9_INS_4pairIKSB_SF_EEEEEEJEEEPT_DpOT0_EUlPSN_E_Li1ELb0EE5__getB7v160006Ev, symObjAddr: 0x97CC, symBinAddr: 0x1000128F4, symSize: 0x14 }
  - { offsetInCU: 0x4AB6F, offset: 0x4AB6F, size: 0x8, addend: 0x0, symName: __ZNSt3__116allocator_traitsINS_9allocatorINS_3mapINS_12basic_stringIcNS_11char_traitsIcEENS1_IcEEEEN8nlohmann16json_abi_v3_11_210basic_jsonIS2_NS_6vectorES7_bxydS1_NS9_14adl_serializerENSB_IhNS1_IhEEEEEENS_4lessIvEENS1_INS_4pairIKS7_SF_EEEEEEEEE10deallocateB7v160006ERSN_PSM_m, symObjAddr: 0x97E0, symBinAddr: 0x100012908, symSize: 0x34 }
  - { offsetInCU: 0x4ABB0, offset: 0x4ABB0, size: 0x8, addend: 0x0, symName: __ZNSt3__19allocatorINS_3mapINS_12basic_stringIcNS_11char_traitsIcEENS0_IcEEEEN8nlohmann16json_abi_v3_11_210basic_jsonIS1_NS_6vectorES6_bxydS0_NS8_14adl_serializerENSA_IhNS0_IhEEEEEENS_4lessIvEENS0_INS_4pairIKS6_SE_EEEEEEE10deallocateB7v160006EPSL_m, symObjAddr: 0x9814, symBinAddr: 0x10001293C, symSize: 0x44 }
  - { offsetInCU: 0x4AC0A, offset: 0x4AC0A, size: 0x8, addend: 0x0, symName: __ZNSt3__19allocatorINS_6vectorIN8nlohmann16json_abi_v3_11_210basic_jsonINS_3mapES1_NS_12basic_stringIcNS_11char_traitsIcEENS0_IcEEEEbxydS0_NS3_14adl_serializerENS1_IhNS0_IhEEEEEENS0_ISE_EEEEEC1B7v160006Ev, symObjAddr: 0x9858, symBinAddr: 0x100012980, symSize: 0x2C }
  - { offsetInCU: 0x4AC38, offset: 0x4AC38, size: 0x8, addend: 0x0, symName: __ZNSt3__116allocator_traitsINS_9allocatorINS_6vectorIN8nlohmann16json_abi_v3_11_210basic_jsonINS_3mapES2_NS_12basic_stringIcNS_11char_traitsIcEENS1_IcEEEEbxydS1_NS4_14adl_serializerENS2_IhNS1_IhEEEEEENS1_ISF_EEEEEEE8allocateB7v160006ERSI_m, symObjAddr: 0x9884, symBinAddr: 0x1000129AC, symSize: 0x2C }
  - { offsetInCU: 0x4ACF8, offset: 0x4ACF8, size: 0x8, addend: 0x0, symName: __ZNSt3__110unique_ptrINS_6vectorIN8nlohmann16json_abi_v3_11_210basic_jsonINS_3mapES1_NS_12basic_stringIcNS_11char_traitsIcEENS_9allocatorIcEEEEbxydS9_NS3_14adl_serializerENS1_IhNS9_IhEEEEEENS9_ISF_EEEEZNSF_6createISH_JEEEPT_DpOT0_EUlPSH_E_EC1B7v160006ILb1EvEESO_NS_16__dependent_typeINS_27__unique_ptr_deleter_sfinaeISP_EEXT_EE15__lval_ref_typeE, symObjAddr: 0x98B0, symBinAddr: 0x1000129D8, symSize: 0x3C }
  - { offsetInCU: 0x4AD49, offset: 0x4AD49, size: 0x8, addend: 0x0, symName: __ZNSt3__116allocator_traitsINS_9allocatorINS_6vectorIN8nlohmann16json_abi_v3_11_210basic_jsonINS_3mapES2_NS_12basic_stringIcNS_11char_traitsIcEENS1_IcEEEEbxydS1_NS4_14adl_serializerENS2_IhNS1_IhEEEEEENS1_ISF_EEEEEEE9constructB7v160006ISH_JEvEEvRSI_PT_DpOT0_, symObjAddr: 0x98EC, symBinAddr: 0x100012A14, symSize: 0x2C }
  - { offsetInCU: 0x4AD8B, offset: 0x4AD8B, size: 0x8, addend: 0x0, symName: __ZNKSt3__110unique_ptrINS_6vectorIN8nlohmann16json_abi_v3_11_210basic_jsonINS_3mapES1_NS_12basic_stringIcNS_11char_traitsIcEENS_9allocatorIcEEEEbxydS9_NS3_14adl_serializerENS1_IhNS9_IhEEEEEENS9_ISF_EEEEZNSF_6createISH_JEEEPT_DpOT0_EUlPSH_E_E3getB7v160006Ev, symObjAddr: 0x9918, symBinAddr: 0x100012A40, symSize: 0x28 }
  - { offsetInCU: 0x4ADAF, offset: 0x4ADAF, size: 0x8, addend: 0x0, symName: __ZNSt3__110unique_ptrINS_6vectorIN8nlohmann16json_abi_v3_11_210basic_jsonINS_3mapES1_NS_12basic_stringIcNS_11char_traitsIcEENS_9allocatorIcEEEEbxydS9_NS3_14adl_serializerENS1_IhNS9_IhEEEEEENS9_ISF_EEEEZNSF_6createISH_JEEEPT_DpOT0_EUlPSH_E_E7releaseB7v160006Ev, symObjAddr: 0x996C, symBinAddr: 0x100012A94, symSize: 0x44 }
  - { offsetInCU: 0x4ADE3, offset: 0x4ADE3, size: 0x8, addend: 0x0, symName: __ZNSt3__110unique_ptrINS_6vectorIN8nlohmann16json_abi_v3_11_210basic_jsonINS_3mapES1_NS_12basic_stringIcNS_11char_traitsIcEENS_9allocatorIcEEEEbxydS9_NS3_14adl_serializerENS1_IhNS9_IhEEEEEENS9_ISF_EEEEZNSF_6createISH_JEEEPT_DpOT0_EUlPSH_E_ED1B7v160006Ev, symObjAddr: 0x99B0, symBinAddr: 0x100012AD8, symSize: 0x2C }
  - { offsetInCU: 0x4AE0C, offset: 0x4AE0C, size: 0x8, addend: 0x0, symName: __ZNSt3__19allocatorINS_6vectorIN8nlohmann16json_abi_v3_11_210basic_jsonINS_3mapES1_NS_12basic_stringIcNS_11char_traitsIcEENS0_IcEEEEbxydS0_NS3_14adl_serializerENS1_IhNS0_IhEEEEEENS0_ISE_EEEEEC2B7v160006Ev, symObjAddr: 0x99DC, symBinAddr: 0x100012B04, symSize: 0x2C }
  - { offsetInCU: 0x4AE35, offset: 0x4AE35, size: 0x8, addend: 0x0, symName: __ZNSt3__116__non_trivial_ifILb1ENS_9allocatorINS_6vectorIN8nlohmann16json_abi_v3_11_210basic_jsonINS_3mapES2_NS_12basic_stringIcNS_11char_traitsIcEENS1_IcEEEEbxydS1_NS4_14adl_serializerENS2_IhNS1_IhEEEEEENS1_ISF_EEEEEEEC2B7v160006Ev, symObjAddr: 0x9A08, symBinAddr: 0x100012B30, symSize: 0x14 }
  - { offsetInCU: 0x4AE5D, offset: 0x4AE5D, size: 0x8, addend: 0x0, symName: __ZNSt3__19allocatorINS_6vectorIN8nlohmann16json_abi_v3_11_210basic_jsonINS_3mapES1_NS_12basic_stringIcNS_11char_traitsIcEENS0_IcEEEEbxydS0_NS3_14adl_serializerENS1_IhNS0_IhEEEEEENS0_ISE_EEEEE8allocateB7v160006Em, symObjAddr: 0x9A1C, symBinAddr: 0x100012B44, symSize: 0x5C }
  - { offsetInCU: 0x4AE9A, offset: 0x4AE9A, size: 0x8, addend: 0x0, symName: __ZNSt3__116allocator_traitsINS_9allocatorINS_6vectorIN8nlohmann16json_abi_v3_11_210basic_jsonINS_3mapES2_NS_12basic_stringIcNS_11char_traitsIcEENS1_IcEEEEbxydS1_NS4_14adl_serializerENS2_IhNS1_IhEEEEEENS1_ISF_EEEEEEE8max_sizeB7v160006ISI_vEEmRKSI_, symObjAddr: 0x9A78, symBinAddr: 0x100012BA0, symSize: 0x24 }
  - { offsetInCU: 0x4AEC9, offset: 0x4AEC9, size: 0x8, addend: 0x0, symName: __ZNKSt3__19allocatorINS_6vectorIN8nlohmann16json_abi_v3_11_210basic_jsonINS_3mapES1_NS_12basic_stringIcNS_11char_traitsIcEENS0_IcEEEEbxydS0_NS3_14adl_serializerENS1_IhNS0_IhEEEEEENS0_ISE_EEEEE8max_sizeB7v160006Ev, symObjAddr: 0x9A9C, symBinAddr: 0x100012BC4, symSize: 0x18 }
  - { offsetInCU: 0x4AEEE, offset: 0x4AEEE, size: 0x8, addend: 0x0, symName: __ZNSt3__110unique_ptrINS_6vectorIN8nlohmann16json_abi_v3_11_210basic_jsonINS_3mapES1_NS_12basic_stringIcNS_11char_traitsIcEENS_9allocatorIcEEEEbxydS9_NS3_14adl_serializerENS1_IhNS9_IhEEEEEENS9_ISF_EEEEZNSF_6createISH_JEEEPT_DpOT0_EUlPSH_E_EC2B7v160006ILb1EvEESO_NS_16__dependent_typeINS_27__unique_ptr_deleter_sfinaeISP_EEXT_EE15__lval_ref_typeE, symObjAddr: 0x9AB4, symBinAddr: 0x100012BDC, symSize: 0x48 }
  - { offsetInCU: 0x4AF3F, offset: 0x4AF3F, size: 0x8, addend: 0x0, symName: __ZNSt3__117__compressed_pairIPNS_6vectorIN8nlohmann16json_abi_v3_11_210basic_jsonINS_3mapES1_NS_12basic_stringIcNS_11char_traitsIcEENS_9allocatorIcEEEEbxydS9_NS3_14adl_serializerENS1_IhNS9_IhEEEEEENS9_ISF_EEEEZNSF_6createISH_JEEEPT_DpOT0_EUlSI_E_EC1B7v160006IRSI_RKSP_EEOSK_OT0_, symObjAddr: 0x9AFC, symBinAddr: 0x100012C24, symSize: 0x3C }
  - { offsetInCU: 0x4AF96, offset: 0x4AF96, size: 0x8, addend: 0x0, symName: __ZNSt3__117__compressed_pairIPNS_6vectorIN8nlohmann16json_abi_v3_11_210basic_jsonINS_3mapES1_NS_12basic_stringIcNS_11char_traitsIcEENS_9allocatorIcEEEEbxydS9_NS3_14adl_serializerENS1_IhNS9_IhEEEEEENS9_ISF_EEEEZNSF_6createISH_JEEEPT_DpOT0_EUlSI_E_EC2B7v160006IRSI_RKSP_EEOSK_OT0_, symObjAddr: 0x9B38, symBinAddr: 0x100012C60, symSize: 0x48 }
  - { offsetInCU: 0x4AFED, offset: 0x4AFED, size: 0x8, addend: 0x0, symName: __ZNSt3__122__compressed_pair_elemIPNS_6vectorIN8nlohmann16json_abi_v3_11_210basic_jsonINS_3mapES1_NS_12basic_stringIcNS_11char_traitsIcEENS_9allocatorIcEEEEbxydS9_NS3_14adl_serializerENS1_IhNS9_IhEEEEEENS9_ISF_EEEELi0ELb0EEC2B7v160006IRSI_vEEOT_, symObjAddr: 0x9B80, symBinAddr: 0x100012CA8, symSize: 0x24 }
  - { offsetInCU: 0x4B02F, offset: 0x4B02F, size: 0x8, addend: 0x0, symName: __ZNSt3__122__compressed_pair_elemIZN8nlohmann16json_abi_v3_11_210basic_jsonINS_3mapENS_6vectorENS_12basic_stringIcNS_11char_traitsIcEENS_9allocatorIcEEEEbxydS9_NS2_14adl_serializerENS5_IhNS9_IhEEEEE6createINS5_ISF_NS9_ISF_EEEEJEEEPT_DpOT0_EUlPSI_E_Li1ELb0EEC2B7v160006IRKSP_vEEOSJ_, symObjAddr: 0x9BA4, symBinAddr: 0x100012CCC, symSize: 0x24 }
  - { offsetInCU: 0x4B070, offset: 0x4B070, size: 0x8, addend: 0x0, symName: __ZNSt3__19allocatorINS_6vectorIN8nlohmann16json_abi_v3_11_210basic_jsonINS_3mapES1_NS_12basic_stringIcNS_11char_traitsIcEENS0_IcEEEEbxydS0_NS3_14adl_serializerENS1_IhNS0_IhEEEEEENS0_ISE_EEEEE9constructB7v160006ISG_JEEEvPT_DpOT0_, symObjAddr: 0x9BC8, symBinAddr: 0x100012CF0, symSize: 0x28 }
  - { offsetInCU: 0x4B0B1, offset: 0x4B0B1, size: 0x8, addend: 0x0, symName: __ZNSt3__16vectorIN8nlohmann16json_abi_v3_11_210basic_jsonINS_3mapES0_NS_12basic_stringIcNS_11char_traitsIcEENS_9allocatorIcEEEEbxydS8_NS2_14adl_serializerENS0_IhNS8_IhEEEEEENS8_ISE_EEEC1B7v160006Ev, symObjAddr: 0x9BF0, symBinAddr: 0x100012D18, symSize: 0x2C }
  - { offsetInCU: 0x4B0DA, offset: 0x4B0DA, size: 0x8, addend: 0x0, symName: __ZNSt3__16vectorIN8nlohmann16json_abi_v3_11_210basic_jsonINS_3mapES0_NS_12basic_stringIcNS_11char_traitsIcEENS_9allocatorIcEEEEbxydS8_NS2_14adl_serializerENS0_IhNS8_IhEEEEEENS8_ISE_EEEC2B7v160006Ev, symObjAddr: 0x9C1C, symBinAddr: 0x100012D44, symSize: 0x58 }
  - { offsetInCU: 0x4B103, offset: 0x4B103, size: 0x8, addend: 0x0, symName: __ZNSt3__117__compressed_pairIPN8nlohmann16json_abi_v3_11_210basic_jsonINS_3mapENS_6vectorENS_12basic_stringIcNS_11char_traitsIcEENS_9allocatorIcEEEEbxydS9_NS2_14adl_serializerENS5_IhNS9_IhEEEEEENS9_ISF_EEEC1B7v160006IDnNS_18__default_init_tagEEEOT_OT0_, symObjAddr: 0x9C74, symBinAddr: 0x100012D9C, symSize: 0x3C }
  - { offsetInCU: 0x4B15A, offset: 0x4B15A, size: 0x8, addend: 0x0, symName: __ZNSt3__117__compressed_pairIPN8nlohmann16json_abi_v3_11_210basic_jsonINS_3mapENS_6vectorENS_12basic_stringIcNS_11char_traitsIcEENS_9allocatorIcEEEEbxydS9_NS2_14adl_serializerENS5_IhNS9_IhEEEEEENS9_ISF_EEEC2B7v160006IDnNS_18__default_init_tagEEEOT_OT0_, symObjAddr: 0x9CC0, symBinAddr: 0x100012DE8, symSize: 0x40 }
  - { offsetInCU: 0x4B1B1, offset: 0x4B1B1, size: 0x8, addend: 0x0, symName: __ZNSt3__122__compressed_pair_elemIPN8nlohmann16json_abi_v3_11_210basic_jsonINS_3mapENS_6vectorENS_12basic_stringIcNS_11char_traitsIcEENS_9allocatorIcEEEEbxydS9_NS2_14adl_serializerENS5_IhNS9_IhEEEEEELi0ELb0EEC2B7v160006IDnvEEOT_, symObjAddr: 0x9D00, symBinAddr: 0x100012E28, symSize: 0x1C }
  - { offsetInCU: 0x4B1F3, offset: 0x4B1F3, size: 0x8, addend: 0x0, symName: __ZNSt3__122__compressed_pair_elemINS_9allocatorIN8nlohmann16json_abi_v3_11_210basic_jsonINS_3mapENS_6vectorENS_12basic_stringIcNS_11char_traitsIcEENS1_IcEEEEbxydS1_NS3_14adl_serializerENS6_IhNS1_IhEEEEEEEELi1ELb1EEC2B7v160006ENS_18__default_init_tagE, symObjAddr: 0x9D1C, symBinAddr: 0x100012E44, symSize: 0x2C }
  - { offsetInCU: 0x4B227, offset: 0x4B227, size: 0x8, addend: 0x0, symName: __ZNSt3__19allocatorIN8nlohmann16json_abi_v3_11_210basic_jsonINS_3mapENS_6vectorENS_12basic_stringIcNS_11char_traitsIcEENS0_IcEEEEbxydS0_NS2_14adl_serializerENS5_IhNS0_IhEEEEEEEC2B7v160006Ev, symObjAddr: 0x9D48, symBinAddr: 0x100012E70, symSize: 0x2C }
  - { offsetInCU: 0x4B250, offset: 0x4B250, size: 0x8, addend: 0x0, symName: __ZNSt3__116__non_trivial_ifILb1ENS_9allocatorIN8nlohmann16json_abi_v3_11_210basic_jsonINS_3mapENS_6vectorENS_12basic_stringIcNS_11char_traitsIcEENS1_IcEEEEbxydS1_NS3_14adl_serializerENS6_IhNS1_IhEEEEEEEEEC2B7v160006Ev, symObjAddr: 0x9D74, symBinAddr: 0x100012E9C, symSize: 0x14 }
  - { offsetInCU: 0x4B278, offset: 0x4B278, size: 0x8, addend: 0x0, symName: __ZNKSt3__117__compressed_pairIPNS_6vectorIN8nlohmann16json_abi_v3_11_210basic_jsonINS_3mapES1_NS_12basic_stringIcNS_11char_traitsIcEENS_9allocatorIcEEEEbxydS9_NS3_14adl_serializerENS1_IhNS9_IhEEEEEENS9_ISF_EEEEZNSF_6createISH_JEEEPT_DpOT0_EUlSI_E_E5firstB7v160006Ev, symObjAddr: 0x9D88, symBinAddr: 0x100012EB0, symSize: 0x24 }
  - { offsetInCU: 0x4B29D, offset: 0x4B29D, size: 0x8, addend: 0x0, symName: __ZNKSt3__122__compressed_pair_elemIPNS_6vectorIN8nlohmann16json_abi_v3_11_210basic_jsonINS_3mapES1_NS_12basic_stringIcNS_11char_traitsIcEENS_9allocatorIcEEEEbxydS9_NS3_14adl_serializerENS1_IhNS9_IhEEEEEENS9_ISF_EEEELi0ELb0EE5__getB7v160006Ev, symObjAddr: 0x9DAC, symBinAddr: 0x100012ED4, symSize: 0x14 }
  - { offsetInCU: 0x4B2C1, offset: 0x4B2C1, size: 0x8, addend: 0x0, symName: __ZNKSt3__110unique_ptrINS_6vectorIN8nlohmann16json_abi_v3_11_210basic_jsonINS_3mapES1_NS_12basic_stringIcNS_11char_traitsIcEENS_9allocatorIcEEEEbxydS9_NS3_14adl_serializerENS1_IhNS9_IhEEEEEENS9_ISF_EEEEZNSF_6createISH_JEEEPT_DpOT0_EUlPSH_E_EcvbB7v160006Ev, symObjAddr: 0x9DC0, symBinAddr: 0x100012EE8, symSize: 0x34 }
  - { offsetInCU: 0x4B2E5, offset: 0x4B2E5, size: 0x8, addend: 0x0, symName: __ZNSt3__117__compressed_pairIPNS_6vectorIN8nlohmann16json_abi_v3_11_210basic_jsonINS_3mapES1_NS_12basic_stringIcNS_11char_traitsIcEENS_9allocatorIcEEEEbxydS9_NS3_14adl_serializerENS1_IhNS9_IhEEEEEENS9_ISF_EEEEZNSF_6createISH_JEEEPT_DpOT0_EUlSI_E_E5firstB7v160006Ev, symObjAddr: 0x9DF4, symBinAddr: 0x100012F1C, symSize: 0x24 }
  - { offsetInCU: 0x4B30A, offset: 0x4B30A, size: 0x8, addend: 0x0, symName: __ZNSt3__122__compressed_pair_elemIPNS_6vectorIN8nlohmann16json_abi_v3_11_210basic_jsonINS_3mapES1_NS_12basic_stringIcNS_11char_traitsIcEENS_9allocatorIcEEEEbxydS9_NS3_14adl_serializerENS1_IhNS9_IhEEEEEENS9_ISF_EEEELi0ELb0EE5__getB7v160006Ev, symObjAddr: 0x9E18, symBinAddr: 0x100012F40, symSize: 0x14 }
  - { offsetInCU: 0x4B32F, offset: 0x4B32F, size: 0x8, addend: 0x0, symName: __ZNSt3__110unique_ptrINS_6vectorIN8nlohmann16json_abi_v3_11_210basic_jsonINS_3mapES1_NS_12basic_stringIcNS_11char_traitsIcEENS_9allocatorIcEEEEbxydS9_NS3_14adl_serializerENS1_IhNS9_IhEEEEEENS9_ISF_EEEEZNSF_6createISH_JEEEPT_DpOT0_EUlPSH_E_ED2B7v160006Ev, symObjAddr: 0x9E2C, symBinAddr: 0x100012F54, symSize: 0x30 }
  - { offsetInCU: 0x4B357, offset: 0x4B357, size: 0x8, addend: 0x0, symName: __ZNSt3__110unique_ptrINS_6vectorIN8nlohmann16json_abi_v3_11_210basic_jsonINS_3mapES1_NS_12basic_stringIcNS_11char_traitsIcEENS_9allocatorIcEEEEbxydS9_NS3_14adl_serializerENS1_IhNS9_IhEEEEEENS9_ISF_EEEEZNSF_6createISH_JEEEPT_DpOT0_EUlPSH_E_E5resetB7v160006ESO_, symObjAddr: 0x9E5C, symBinAddr: 0x100012F84, symSize: 0x80 }
  - { offsetInCU: 0x4B399, offset: 0x4B399, size: 0x8, addend: 0x0, symName: __ZNSt3__117__compressed_pairIPNS_6vectorIN8nlohmann16json_abi_v3_11_210basic_jsonINS_3mapES1_NS_12basic_stringIcNS_11char_traitsIcEENS_9allocatorIcEEEEbxydS9_NS3_14adl_serializerENS1_IhNS9_IhEEEEEENS9_ISF_EEEEZNSF_6createISH_JEEEPT_DpOT0_EUlSI_E_E6secondB7v160006Ev, symObjAddr: 0x9EDC, symBinAddr: 0x100013004, symSize: 0x28 }
  - { offsetInCU: 0x4B3C3, offset: 0x4B3C3, size: 0x8, addend: 0x0, symName: __ZZN8nlohmann16json_abi_v3_11_210basic_jsonINSt3__13mapENS2_6vectorENS2_12basic_stringIcNS2_11char_traitsIcEENS2_9allocatorIcEEEEbxydS8_NS0_14adl_serializerENS4_IhNS8_IhEEEEE6createINS4_ISE_NS8_ISE_EEEEJEEEPT_DpOT0_ENKUlPSH_E_clESN_, symObjAddr: 0x9F04, symBinAddr: 0x10001302C, symSize: 0x34 }
  - { offsetInCU: 0x4B3FB, offset: 0x4B3FB, size: 0x8, addend: 0x0, symName: __ZNSt3__122__compressed_pair_elemIZN8nlohmann16json_abi_v3_11_210basic_jsonINS_3mapENS_6vectorENS_12basic_stringIcNS_11char_traitsIcEENS_9allocatorIcEEEEbxydS9_NS2_14adl_serializerENS5_IhNS9_IhEEEEE6createINS5_ISF_NS9_ISF_EEEEJEEEPT_DpOT0_EUlPSI_E_Li1ELb0EE5__getB7v160006Ev, symObjAddr: 0x9F38, symBinAddr: 0x100013060, symSize: 0x14 }
  - { offsetInCU: 0x4B420, offset: 0x4B420, size: 0x8, addend: 0x0, symName: __ZNSt3__116allocator_traitsINS_9allocatorINS_6vectorIN8nlohmann16json_abi_v3_11_210basic_jsonINS_3mapES2_NS_12basic_stringIcNS_11char_traitsIcEENS1_IcEEEEbxydS1_NS4_14adl_serializerENS2_IhNS1_IhEEEEEENS1_ISF_EEEEEEE10deallocateB7v160006ERSI_PSH_m, symObjAddr: 0x9F4C, symBinAddr: 0x100013074, symSize: 0x34 }
  - { offsetInCU: 0x4B461, offset: 0x4B461, size: 0x8, addend: 0x0, symName: __ZNSt3__19allocatorINS_6vectorIN8nlohmann16json_abi_v3_11_210basic_jsonINS_3mapES1_NS_12basic_stringIcNS_11char_traitsIcEENS0_IcEEEEbxydS0_NS3_14adl_serializerENS1_IhNS0_IhEEEEEENS0_ISE_EEEEE10deallocateB7v160006EPSG_m, symObjAddr: 0x9F80, symBinAddr: 0x1000130A8, symSize: 0x44 }
  - { offsetInCU: 0x4B4A2, offset: 0x4B4A2, size: 0x8, addend: 0x0, symName: __ZNSt3__19allocatorINS_12basic_stringIcNS_11char_traitsIcEENS0_IcEEEEEC1B7v160006Ev, symObjAddr: 0x9FC4, symBinAddr: 0x1000130EC, symSize: 0x2C }
  - { offsetInCU: 0x4B4CB, offset: 0x4B4CB, size: 0x8, addend: 0x0, symName: __ZNSt3__116allocator_traitsINS_9allocatorINS_12basic_stringIcNS_11char_traitsIcEENS1_IcEEEEEEE8allocateB7v160006ERS7_m, symObjAddr: 0x9FF0, symBinAddr: 0x100013118, symSize: 0x2C }
  - { offsetInCU: 0x4B563, offset: 0x4B563, size: 0x8, addend: 0x0, symName: __ZNSt3__110unique_ptrINS_12basic_stringIcNS_11char_traitsIcEENS_9allocatorIcEEEEZN8nlohmann16json_abi_v3_11_210basic_jsonINS_3mapENS_6vectorES6_bxydS4_NS8_14adl_serializerENSB_IhNS4_IhEEEEE6createIS6_JRA1_KcEEEPT_DpOT0_EUlPS6_E_EC1B7v160006ILb1EvEESP_NS_16__dependent_typeINS_27__unique_ptr_deleter_sfinaeISQ_EEXT_EE15__lval_ref_typeE, symObjAddr: 0xA01C, symBinAddr: 0x100013144, symSize: 0x3C }
  - { offsetInCU: 0x4B5B4, offset: 0x4B5B4, size: 0x8, addend: 0x0, symName: __ZNSt3__116allocator_traitsINS_9allocatorINS_12basic_stringIcNS_11char_traitsIcEENS1_IcEEEEEEE9constructB7v160006IS6_JRA1_KcEvEEvRS7_PT_DpOT0_, symObjAddr: 0xA058, symBinAddr: 0x100013180, symSize: 0x34 }
  - { offsetInCU: 0x4B60B, offset: 0x4B60B, size: 0x8, addend: 0x0, symName: __ZNKSt3__110unique_ptrINS_12basic_stringIcNS_11char_traitsIcEENS_9allocatorIcEEEEZN8nlohmann16json_abi_v3_11_210basic_jsonINS_3mapENS_6vectorES6_bxydS4_NS8_14adl_serializerENSB_IhNS4_IhEEEEE6createIS6_JRA1_KcEEEPT_DpOT0_EUlPS6_E_E3getB7v160006Ev, symObjAddr: 0xA08C, symBinAddr: 0x1000131B4, symSize: 0x28 }
  - { offsetInCU: 0x4B62F, offset: 0x4B62F, size: 0x8, addend: 0x0, symName: __ZNSt3__110unique_ptrINS_12basic_stringIcNS_11char_traitsIcEENS_9allocatorIcEEEEZN8nlohmann16json_abi_v3_11_210basic_jsonINS_3mapENS_6vectorES6_bxydS4_NS8_14adl_serializerENSB_IhNS4_IhEEEEE6createIS6_JRA1_KcEEEPT_DpOT0_EUlPS6_E_E7releaseB7v160006Ev, symObjAddr: 0xA0E0, symBinAddr: 0x100013208, symSize: 0x44 }
  - { offsetInCU: 0x4B663, offset: 0x4B663, size: 0x8, addend: 0x0, symName: __ZNSt3__110unique_ptrINS_12basic_stringIcNS_11char_traitsIcEENS_9allocatorIcEEEEZN8nlohmann16json_abi_v3_11_210basic_jsonINS_3mapENS_6vectorES6_bxydS4_NS8_14adl_serializerENSB_IhNS4_IhEEEEE6createIS6_JRA1_KcEEEPT_DpOT0_EUlPS6_E_ED1B7v160006Ev, symObjAddr: 0xA124, symBinAddr: 0x10001324C, symSize: 0x2C }
  - { offsetInCU: 0x4B68C, offset: 0x4B68C, size: 0x8, addend: 0x0, symName: __ZNSt3__19allocatorINS_12basic_stringIcNS_11char_traitsIcEENS0_IcEEEEEC2B7v160006Ev, symObjAddr: 0xA150, symBinAddr: 0x100013278, symSize: 0x2C }
  - { offsetInCU: 0x4B6B5, offset: 0x4B6B5, size: 0x8, addend: 0x0, symName: __ZNSt3__116__non_trivial_ifILb1ENS_9allocatorINS_12basic_stringIcNS_11char_traitsIcEENS1_IcEEEEEEEC2B7v160006Ev, symObjAddr: 0xA17C, symBinAddr: 0x1000132A4, symSize: 0x14 }
  - { offsetInCU: 0x4B6DD, offset: 0x4B6DD, size: 0x8, addend: 0x0, symName: __ZNSt3__19allocatorINS_12basic_stringIcNS_11char_traitsIcEENS0_IcEEEEE8allocateB7v160006Em, symObjAddr: 0xA190, symBinAddr: 0x1000132B8, symSize: 0x5C }
  - { offsetInCU: 0x4B71A, offset: 0x4B71A, size: 0x8, addend: 0x0, symName: __ZNSt3__116allocator_traitsINS_9allocatorINS_12basic_stringIcNS_11char_traitsIcEENS1_IcEEEEEEE8max_sizeB7v160006IS7_vEEmRKS7_, symObjAddr: 0xA1EC, symBinAddr: 0x100013314, symSize: 0x24 }
  - { offsetInCU: 0x4B749, offset: 0x4B749, size: 0x8, addend: 0x0, symName: __ZNKSt3__19allocatorINS_12basic_stringIcNS_11char_traitsIcEENS0_IcEEEEE8max_sizeB7v160006Ev, symObjAddr: 0xA210, symBinAddr: 0x100013338, symSize: 0x18 }
  - { offsetInCU: 0x4B76E, offset: 0x4B76E, size: 0x8, addend: 0x0, symName: __ZNSt3__110unique_ptrINS_12basic_stringIcNS_11char_traitsIcEENS_9allocatorIcEEEEZN8nlohmann16json_abi_v3_11_210basic_jsonINS_3mapENS_6vectorES6_bxydS4_NS8_14adl_serializerENSB_IhNS4_IhEEEEE6createIS6_JRA1_KcEEEPT_DpOT0_EUlPS6_E_EC2B7v160006ILb1EvEESP_NS_16__dependent_typeINS_27__unique_ptr_deleter_sfinaeISQ_EEXT_EE15__lval_ref_typeE, symObjAddr: 0xA228, symBinAddr: 0x100013350, symSize: 0x48 }
  - { offsetInCU: 0x4B7BF, offset: 0x4B7BF, size: 0x8, addend: 0x0, symName: __ZNSt3__117__compressed_pairIPNS_12basic_stringIcNS_11char_traitsIcEENS_9allocatorIcEEEEZN8nlohmann16json_abi_v3_11_210basic_jsonINS_3mapENS_6vectorES6_bxydS4_NS9_14adl_serializerENSC_IhNS4_IhEEEEE6createIS6_JRA1_KcEEEPT_DpOT0_EUlS7_E_EC1B7v160006IRS7_RKSQ_EEOSL_OT0_, symObjAddr: 0xA270, symBinAddr: 0x100013398, symSize: 0x3C }
  - { offsetInCU: 0x4B816, offset: 0x4B816, size: 0x8, addend: 0x0, symName: __ZNSt3__117__compressed_pairIPNS_12basic_stringIcNS_11char_traitsIcEENS_9allocatorIcEEEEZN8nlohmann16json_abi_v3_11_210basic_jsonINS_3mapENS_6vectorES6_bxydS4_NS9_14adl_serializerENSC_IhNS4_IhEEEEE6createIS6_JRA1_KcEEEPT_DpOT0_EUlS7_E_EC2B7v160006IRS7_RKSQ_EEOSL_OT0_, symObjAddr: 0xA2AC, symBinAddr: 0x1000133D4, symSize: 0x48 }
  - { offsetInCU: 0x4B86D, offset: 0x4B86D, size: 0x8, addend: 0x0, symName: __ZNSt3__122__compressed_pair_elemIPNS_12basic_stringIcNS_11char_traitsIcEENS_9allocatorIcEEEELi0ELb0EEC2B7v160006IRS7_vEEOT_, symObjAddr: 0xA2F4, symBinAddr: 0x10001341C, symSize: 0x24 }
  - { offsetInCU: 0x4B8AF, offset: 0x4B8AF, size: 0x8, addend: 0x0, symName: __ZNSt3__122__compressed_pair_elemIZN8nlohmann16json_abi_v3_11_210basic_jsonINS_3mapENS_6vectorENS_12basic_stringIcNS_11char_traitsIcEENS_9allocatorIcEEEEbxydS9_NS2_14adl_serializerENS5_IhNS9_IhEEEEE6createISB_JRA1_KcEEEPT_DpOT0_EUlPSB_E_Li1ELb0EEC2B7v160006IRKSQ_vEEOSK_, symObjAddr: 0xA318, symBinAddr: 0x100013440, symSize: 0x24 }
  - { offsetInCU: 0x4B8F0, offset: 0x4B8F0, size: 0x8, addend: 0x0, symName: __ZNSt3__19allocatorINS_12basic_stringIcNS_11char_traitsIcEENS0_IcEEEEE9constructB7v160006IS5_JRA1_KcEEEvPT_DpOT0_, symObjAddr: 0xA33C, symBinAddr: 0x100013464, symSize: 0x30 }
  - { offsetInCU: 0x4B944, offset: 0x4B944, size: 0x8, addend: 0x0, symName: __ZNKSt3__117__compressed_pairIPNS_12basic_stringIcNS_11char_traitsIcEENS_9allocatorIcEEEEZN8nlohmann16json_abi_v3_11_210basic_jsonINS_3mapENS_6vectorES6_bxydS4_NS9_14adl_serializerENSC_IhNS4_IhEEEEE6createIS6_JRA1_KcEEEPT_DpOT0_EUlS7_E_E5firstB7v160006Ev, symObjAddr: 0xA36C, symBinAddr: 0x100013494, symSize: 0x24 }
  - { offsetInCU: 0x4B969, offset: 0x4B969, size: 0x8, addend: 0x0, symName: __ZNKSt3__122__compressed_pair_elemIPNS_12basic_stringIcNS_11char_traitsIcEENS_9allocatorIcEEEELi0ELb0EE5__getB7v160006Ev, symObjAddr: 0xA390, symBinAddr: 0x1000134B8, symSize: 0x14 }
  - { offsetInCU: 0x4B98D, offset: 0x4B98D, size: 0x8, addend: 0x0, symName: __ZNKSt3__110unique_ptrINS_12basic_stringIcNS_11char_traitsIcEENS_9allocatorIcEEEEZN8nlohmann16json_abi_v3_11_210basic_jsonINS_3mapENS_6vectorES6_bxydS4_NS8_14adl_serializerENSB_IhNS4_IhEEEEE6createIS6_JRA1_KcEEEPT_DpOT0_EUlPS6_E_EcvbB7v160006Ev, symObjAddr: 0xA3A4, symBinAddr: 0x1000134CC, symSize: 0x34 }
  - { offsetInCU: 0x4B9B1, offset: 0x4B9B1, size: 0x8, addend: 0x0, symName: __ZNSt3__117__compressed_pairIPNS_12basic_stringIcNS_11char_traitsIcEENS_9allocatorIcEEEEZN8nlohmann16json_abi_v3_11_210basic_jsonINS_3mapENS_6vectorES6_bxydS4_NS9_14adl_serializerENSC_IhNS4_IhEEEEE6createIS6_JRA1_KcEEEPT_DpOT0_EUlS7_E_E5firstB7v160006Ev, symObjAddr: 0xA3D8, symBinAddr: 0x100013500, symSize: 0x24 }
  - { offsetInCU: 0x4B9D6, offset: 0x4B9D6, size: 0x8, addend: 0x0, symName: __ZNSt3__122__compressed_pair_elemIPNS_12basic_stringIcNS_11char_traitsIcEENS_9allocatorIcEEEELi0ELb0EE5__getB7v160006Ev, symObjAddr: 0xA3FC, symBinAddr: 0x100013524, symSize: 0x14 }
  - { offsetInCU: 0x4B9FB, offset: 0x4B9FB, size: 0x8, addend: 0x0, symName: __ZNSt3__110unique_ptrINS_12basic_stringIcNS_11char_traitsIcEENS_9allocatorIcEEEEZN8nlohmann16json_abi_v3_11_210basic_jsonINS_3mapENS_6vectorES6_bxydS4_NS8_14adl_serializerENSB_IhNS4_IhEEEEE6createIS6_JRA1_KcEEEPT_DpOT0_EUlPS6_E_ED2B7v160006Ev, symObjAddr: 0xA410, symBinAddr: 0x100013538, symSize: 0x30 }
  - { offsetInCU: 0x4BA23, offset: 0x4BA23, size: 0x8, addend: 0x0, symName: __ZNSt3__110unique_ptrINS_12basic_stringIcNS_11char_traitsIcEENS_9allocatorIcEEEEZN8nlohmann16json_abi_v3_11_210basic_jsonINS_3mapENS_6vectorES6_bxydS4_NS8_14adl_serializerENSB_IhNS4_IhEEEEE6createIS6_JRA1_KcEEEPT_DpOT0_EUlPS6_E_E5resetB7v160006ESP_, symObjAddr: 0xA440, symBinAddr: 0x100013568, symSize: 0x80 }
  - { offsetInCU: 0x4BA65, offset: 0x4BA65, size: 0x8, addend: 0x0, symName: __ZNSt3__117__compressed_pairIPNS_12basic_stringIcNS_11char_traitsIcEENS_9allocatorIcEEEEZN8nlohmann16json_abi_v3_11_210basic_jsonINS_3mapENS_6vectorES6_bxydS4_NS9_14adl_serializerENSC_IhNS4_IhEEEEE6createIS6_JRA1_KcEEEPT_DpOT0_EUlS7_E_E6secondB7v160006Ev, symObjAddr: 0xA4C0, symBinAddr: 0x1000135E8, symSize: 0x28 }
  - { offsetInCU: 0x4BA8F, offset: 0x4BA8F, size: 0x8, addend: 0x0, symName: __ZZN8nlohmann16json_abi_v3_11_210basic_jsonINSt3__13mapENS2_6vectorENS2_12basic_stringIcNS2_11char_traitsIcEENS2_9allocatorIcEEEEbxydS8_NS0_14adl_serializerENS4_IhNS8_IhEEEEE6createISA_JRA1_KcEEEPT_DpOT0_ENKUlPSA_E_clESO_, symObjAddr: 0xA4E8, symBinAddr: 0x100013610, symSize: 0x34 }
  - { offsetInCU: 0x4BAC7, offset: 0x4BAC7, size: 0x8, addend: 0x0, symName: __ZNSt3__122__compressed_pair_elemIZN8nlohmann16json_abi_v3_11_210basic_jsonINS_3mapENS_6vectorENS_12basic_stringIcNS_11char_traitsIcEENS_9allocatorIcEEEEbxydS9_NS2_14adl_serializerENS5_IhNS9_IhEEEEE6createISB_JRA1_KcEEEPT_DpOT0_EUlPSB_E_Li1ELb0EE5__getB7v160006Ev, symObjAddr: 0xA51C, symBinAddr: 0x100013644, symSize: 0x14 }
  - { offsetInCU: 0x4BAEC, offset: 0x4BAEC, size: 0x8, addend: 0x0, symName: __ZNSt3__116allocator_traitsINS_9allocatorINS_12basic_stringIcNS_11char_traitsIcEENS1_IcEEEEEEE10deallocateB7v160006ERS7_PS6_m, symObjAddr: 0xA530, symBinAddr: 0x100013658, symSize: 0x34 }
  - { offsetInCU: 0x4BB2D, offset: 0x4BB2D, size: 0x8, addend: 0x0, symName: __ZNSt3__19allocatorINS_12basic_stringIcNS_11char_traitsIcEENS0_IcEEEEE10deallocateB7v160006EPS5_m, symObjAddr: 0xA564, symBinAddr: 0x10001368C, symSize: 0x44 }
  - { offsetInCU: 0x4BB8C, offset: 0x4BB8C, size: 0x8, addend: 0x0, symName: __ZNSt3__19allocatorIN8nlohmann16json_abi_v3_11_227byte_container_with_subtypeINS_6vectorIhNS0_IhEEEEEEEC1B7v160006Ev, symObjAddr: 0xA5A8, symBinAddr: 0x1000136D0, symSize: 0x2C }
  - { offsetInCU: 0x4BBBA, offset: 0x4BBBA, size: 0x8, addend: 0x0, symName: __ZNSt3__116allocator_traitsINS_9allocatorIN8nlohmann16json_abi_v3_11_227byte_container_with_subtypeINS_6vectorIhNS1_IhEEEEEEEEE8allocateB7v160006ERS9_m, symObjAddr: 0xA5D4, symBinAddr: 0x1000136FC, symSize: 0x2C }
  - { offsetInCU: 0x4BC7A, offset: 0x4BC7A, size: 0x8, addend: 0x0, symName: __ZNSt3__110unique_ptrIN8nlohmann16json_abi_v3_11_227byte_container_with_subtypeINS_6vectorIhNS_9allocatorIhEEEEEEZNS2_10basic_jsonINS_3mapES4_NS_12basic_stringIcNS_11char_traitsIcEENS5_IcEEEEbxydS5_NS2_14adl_serializerES7_E6createIS8_JEEEPT_DpOT0_EUlPS8_E_EC1B7v160006ILb1EvEESO_NS_16__dependent_typeINS_27__unique_ptr_deleter_sfinaeISP_EEXT_EE15__lval_ref_typeE, symObjAddr: 0xA600, symBinAddr: 0x100013728, symSize: 0x3C }
  - { offsetInCU: 0x4BCCB, offset: 0x4BCCB, size: 0x8, addend: 0x0, symName: __ZNSt3__116allocator_traitsINS_9allocatorIN8nlohmann16json_abi_v3_11_227byte_container_with_subtypeINS_6vectorIhNS1_IhEEEEEEEEE9constructB7v160006IS8_JEvEEvRS9_PT_DpOT0_, symObjAddr: 0xA63C, symBinAddr: 0x100013764, symSize: 0x2C }
  - { offsetInCU: 0x4BD0D, offset: 0x4BD0D, size: 0x8, addend: 0x0, symName: __ZNKSt3__110unique_ptrIN8nlohmann16json_abi_v3_11_227byte_container_with_subtypeINS_6vectorIhNS_9allocatorIhEEEEEEZNS2_10basic_jsonINS_3mapES4_NS_12basic_stringIcNS_11char_traitsIcEENS5_IcEEEEbxydS5_NS2_14adl_serializerES7_E6createIS8_JEEEPT_DpOT0_EUlPS8_E_E3getB7v160006Ev, symObjAddr: 0xA668, symBinAddr: 0x100013790, symSize: 0x28 }
  - { offsetInCU: 0x4BD31, offset: 0x4BD31, size: 0x8, addend: 0x0, symName: __ZNSt3__110unique_ptrIN8nlohmann16json_abi_v3_11_227byte_container_with_subtypeINS_6vectorIhNS_9allocatorIhEEEEEEZNS2_10basic_jsonINS_3mapES4_NS_12basic_stringIcNS_11char_traitsIcEENS5_IcEEEEbxydS5_NS2_14adl_serializerES7_E6createIS8_JEEEPT_DpOT0_EUlPS8_E_E7releaseB7v160006Ev, symObjAddr: 0xA6BC, symBinAddr: 0x1000137E4, symSize: 0x44 }
  - { offsetInCU: 0x4BD65, offset: 0x4BD65, size: 0x8, addend: 0x0, symName: __ZNSt3__110unique_ptrIN8nlohmann16json_abi_v3_11_227byte_container_with_subtypeINS_6vectorIhNS_9allocatorIhEEEEEEZNS2_10basic_jsonINS_3mapES4_NS_12basic_stringIcNS_11char_traitsIcEENS5_IcEEEEbxydS5_NS2_14adl_serializerES7_E6createIS8_JEEEPT_DpOT0_EUlPS8_E_ED1B7v160006Ev, symObjAddr: 0xA700, symBinAddr: 0x100013828, symSize: 0x2C }
  - { offsetInCU: 0x4BD8E, offset: 0x4BD8E, size: 0x8, addend: 0x0, symName: __ZNSt3__19allocatorIN8nlohmann16json_abi_v3_11_227byte_container_with_subtypeINS_6vectorIhNS0_IhEEEEEEEC2B7v160006Ev, symObjAddr: 0xA72C, symBinAddr: 0x100013854, symSize: 0x2C }
  - { offsetInCU: 0x4BDB7, offset: 0x4BDB7, size: 0x8, addend: 0x0, symName: __ZNSt3__116__non_trivial_ifILb1ENS_9allocatorIN8nlohmann16json_abi_v3_11_227byte_container_with_subtypeINS_6vectorIhNS1_IhEEEEEEEEEC2B7v160006Ev, symObjAddr: 0xA758, symBinAddr: 0x100013880, symSize: 0x14 }
  - { offsetInCU: 0x4BDDF, offset: 0x4BDDF, size: 0x8, addend: 0x0, symName: __ZNSt3__19allocatorIN8nlohmann16json_abi_v3_11_227byte_container_with_subtypeINS_6vectorIhNS0_IhEEEEEEE8allocateB7v160006Em, symObjAddr: 0xA76C, symBinAddr: 0x100013894, symSize: 0x5C }
  - { offsetInCU: 0x4BE1C, offset: 0x4BE1C, size: 0x8, addend: 0x0, symName: __ZNSt3__116allocator_traitsINS_9allocatorIN8nlohmann16json_abi_v3_11_227byte_container_with_subtypeINS_6vectorIhNS1_IhEEEEEEEEE8max_sizeB7v160006IS9_vEEmRKS9_, symObjAddr: 0xA7C8, symBinAddr: 0x1000138F0, symSize: 0x24 }
  - { offsetInCU: 0x4BE4B, offset: 0x4BE4B, size: 0x8, addend: 0x0, symName: __ZNKSt3__19allocatorIN8nlohmann16json_abi_v3_11_227byte_container_with_subtypeINS_6vectorIhNS0_IhEEEEEEE8max_sizeB7v160006Ev, symObjAddr: 0xA7EC, symBinAddr: 0x100013914, symSize: 0x18 }
  - { offsetInCU: 0x4BE70, offset: 0x4BE70, size: 0x8, addend: 0x0, symName: __ZNSt3__110unique_ptrIN8nlohmann16json_abi_v3_11_227byte_container_with_subtypeINS_6vectorIhNS_9allocatorIhEEEEEEZNS2_10basic_jsonINS_3mapES4_NS_12basic_stringIcNS_11char_traitsIcEENS5_IcEEEEbxydS5_NS2_14adl_serializerES7_E6createIS8_JEEEPT_DpOT0_EUlPS8_E_EC2B7v160006ILb1EvEESO_NS_16__dependent_typeINS_27__unique_ptr_deleter_sfinaeISP_EEXT_EE15__lval_ref_typeE, symObjAddr: 0xA804, symBinAddr: 0x10001392C, symSize: 0x48 }
  - { offsetInCU: 0x4BEC1, offset: 0x4BEC1, size: 0x8, addend: 0x0, symName: __ZNSt3__117__compressed_pairIPN8nlohmann16json_abi_v3_11_227byte_container_with_subtypeINS_6vectorIhNS_9allocatorIhEEEEEEZNS2_10basic_jsonINS_3mapES4_NS_12basic_stringIcNS_11char_traitsIcEENS5_IcEEEEbxydS5_NS2_14adl_serializerES7_E6createIS8_JEEEPT_DpOT0_EUlS9_E_EC1B7v160006IRS9_RKSP_EEOSK_OT0_, symObjAddr: 0xA84C, symBinAddr: 0x100013974, symSize: 0x3C }
  - { offsetInCU: 0x4BF18, offset: 0x4BF18, size: 0x8, addend: 0x0, symName: __ZNSt3__117__compressed_pairIPN8nlohmann16json_abi_v3_11_227byte_container_with_subtypeINS_6vectorIhNS_9allocatorIhEEEEEEZNS2_10basic_jsonINS_3mapES4_NS_12basic_stringIcNS_11char_traitsIcEENS5_IcEEEEbxydS5_NS2_14adl_serializerES7_E6createIS8_JEEEPT_DpOT0_EUlS9_E_EC2B7v160006IRS9_RKSP_EEOSK_OT0_, symObjAddr: 0xA888, symBinAddr: 0x1000139B0, symSize: 0x48 }
  - { offsetInCU: 0x4BF6F, offset: 0x4BF6F, size: 0x8, addend: 0x0, symName: __ZNSt3__122__compressed_pair_elemIPN8nlohmann16json_abi_v3_11_227byte_container_with_subtypeINS_6vectorIhNS_9allocatorIhEEEEEELi0ELb0EEC2B7v160006IRS9_vEEOT_, symObjAddr: 0xA8D0, symBinAddr: 0x1000139F8, symSize: 0x24 }
  - { offsetInCU: 0x4BFB1, offset: 0x4BFB1, size: 0x8, addend: 0x0, symName: __ZNSt3__122__compressed_pair_elemIZN8nlohmann16json_abi_v3_11_210basic_jsonINS_3mapENS_6vectorENS_12basic_stringIcNS_11char_traitsIcEENS_9allocatorIcEEEEbxydS9_NS2_14adl_serializerENS5_IhNS9_IhEEEEE6createINS2_27byte_container_with_subtypeISE_EEJEEEPT_DpOT0_EUlPSI_E_Li1ELb0EEC2B7v160006IRKSP_vEEOSJ_, symObjAddr: 0xA8F4, symBinAddr: 0x100013A1C, symSize: 0x24 }
  - { offsetInCU: 0x4BFF2, offset: 0x4BFF2, size: 0x8, addend: 0x0, symName: __ZNSt3__19allocatorIN8nlohmann16json_abi_v3_11_227byte_container_with_subtypeINS_6vectorIhNS0_IhEEEEEEE9constructB7v160006IS7_JEEEvPT_DpOT0_, symObjAddr: 0xA918, symBinAddr: 0x100013A40, symSize: 0x28 }
  - { offsetInCU: 0x4C033, offset: 0x4C033, size: 0x8, addend: 0x0, symName: __ZN8nlohmann16json_abi_v3_11_227byte_container_with_subtypeINSt3__16vectorIhNS2_9allocatorIhEEEEEC1Ev, symObjAddr: 0xA940, symBinAddr: 0x100013A68, symSize: 0x2C }
  - { offsetInCU: 0x4C05C, offset: 0x4C05C, size: 0x8, addend: 0x0, symName: __ZN8nlohmann16json_abi_v3_11_227byte_container_with_subtypeINSt3__16vectorIhNS2_9allocatorIhEEEEEC2Ev, symObjAddr: 0xA96C, symBinAddr: 0x100013A94, symSize: 0x34 }
  - { offsetInCU: 0x4C085, offset: 0x4C085, size: 0x8, addend: 0x0, symName: __ZNSt3__16vectorIhNS_9allocatorIhEEEC2B7v160006Ev, symObjAddr: 0xA9A0, symBinAddr: 0x100013AC8, symSize: 0x58 }
  - { offsetInCU: 0x4C0AE, offset: 0x4C0AE, size: 0x8, addend: 0x0, symName: __ZNSt3__117__compressed_pairIPhNS_9allocatorIhEEEC1B7v160006IDnNS_18__default_init_tagEEEOT_OT0_, symObjAddr: 0xA9F8, symBinAddr: 0x100013B20, symSize: 0x3C }
  - { offsetInCU: 0x4C105, offset: 0x4C105, size: 0x8, addend: 0x0, symName: __ZNSt3__117__compressed_pairIPhNS_9allocatorIhEEEC2B7v160006IDnNS_18__default_init_tagEEEOT_OT0_, symObjAddr: 0xAA44, symBinAddr: 0x100013B6C, symSize: 0x40 }
  - { offsetInCU: 0x4C15C, offset: 0x4C15C, size: 0x8, addend: 0x0, symName: __ZNSt3__122__compressed_pair_elemIPhLi0ELb0EEC2B7v160006IDnvEEOT_, symObjAddr: 0xAA84, symBinAddr: 0x100013BAC, symSize: 0x1C }
  - { offsetInCU: 0x4C19E, offset: 0x4C19E, size: 0x8, addend: 0x0, symName: __ZNSt3__122__compressed_pair_elemINS_9allocatorIhEELi1ELb1EEC2B7v160006ENS_18__default_init_tagE, symObjAddr: 0xAAA0, symBinAddr: 0x100013BC8, symSize: 0x2C }
  - { offsetInCU: 0x4C1D2, offset: 0x4C1D2, size: 0x8, addend: 0x0, symName: __ZNSt3__19allocatorIhEC2B7v160006Ev, symObjAddr: 0xAACC, symBinAddr: 0x100013BF4, symSize: 0x2C }
  - { offsetInCU: 0x4C1FB, offset: 0x4C1FB, size: 0x8, addend: 0x0, symName: __ZNSt3__116__non_trivial_ifILb1ENS_9allocatorIhEEEC2B7v160006Ev, symObjAddr: 0xAAF8, symBinAddr: 0x100013C20, symSize: 0x14 }
  - { offsetInCU: 0x4C223, offset: 0x4C223, size: 0x8, addend: 0x0, symName: __ZNKSt3__117__compressed_pairIPN8nlohmann16json_abi_v3_11_227byte_container_with_subtypeINS_6vectorIhNS_9allocatorIhEEEEEEZNS2_10basic_jsonINS_3mapES4_NS_12basic_stringIcNS_11char_traitsIcEENS5_IcEEEEbxydS5_NS2_14adl_serializerES7_E6createIS8_JEEEPT_DpOT0_EUlS9_E_E5firstB7v160006Ev, symObjAddr: 0xAB0C, symBinAddr: 0x100013C34, symSize: 0x24 }
  - { offsetInCU: 0x4C248, offset: 0x4C248, size: 0x8, addend: 0x0, symName: __ZNKSt3__122__compressed_pair_elemIPN8nlohmann16json_abi_v3_11_227byte_container_with_subtypeINS_6vectorIhNS_9allocatorIhEEEEEELi0ELb0EE5__getB7v160006Ev, symObjAddr: 0xAB30, symBinAddr: 0x100013C58, symSize: 0x14 }
  - { offsetInCU: 0x4C26C, offset: 0x4C26C, size: 0x8, addend: 0x0, symName: __ZNKSt3__110unique_ptrIN8nlohmann16json_abi_v3_11_227byte_container_with_subtypeINS_6vectorIhNS_9allocatorIhEEEEEEZNS2_10basic_jsonINS_3mapES4_NS_12basic_stringIcNS_11char_traitsIcEENS5_IcEEEEbxydS5_NS2_14adl_serializerES7_E6createIS8_JEEEPT_DpOT0_EUlPS8_E_EcvbB7v160006Ev, symObjAddr: 0xAB44, symBinAddr: 0x100013C6C, symSize: 0x34 }
  - { offsetInCU: 0x4C290, offset: 0x4C290, size: 0x8, addend: 0x0, symName: __ZNSt3__117__compressed_pairIPN8nlohmann16json_abi_v3_11_227byte_container_with_subtypeINS_6vectorIhNS_9allocatorIhEEEEEEZNS2_10basic_jsonINS_3mapES4_NS_12basic_stringIcNS_11char_traitsIcEENS5_IcEEEEbxydS5_NS2_14adl_serializerES7_E6createIS8_JEEEPT_DpOT0_EUlS9_E_E5firstB7v160006Ev, symObjAddr: 0xAB78, symBinAddr: 0x100013CA0, symSize: 0x24 }
  - { offsetInCU: 0x4C2B5, offset: 0x4C2B5, size: 0x8, addend: 0x0, symName: __ZNSt3__122__compressed_pair_elemIPN8nlohmann16json_abi_v3_11_227byte_container_with_subtypeINS_6vectorIhNS_9allocatorIhEEEEEELi0ELb0EE5__getB7v160006Ev, symObjAddr: 0xAB9C, symBinAddr: 0x100013CC4, symSize: 0x14 }
  - { offsetInCU: 0x4C2DA, offset: 0x4C2DA, size: 0x8, addend: 0x0, symName: __ZNSt3__110unique_ptrIN8nlohmann16json_abi_v3_11_227byte_container_with_subtypeINS_6vectorIhNS_9allocatorIhEEEEEEZNS2_10basic_jsonINS_3mapES4_NS_12basic_stringIcNS_11char_traitsIcEENS5_IcEEEEbxydS5_NS2_14adl_serializerES7_E6createIS8_JEEEPT_DpOT0_EUlPS8_E_ED2B7v160006Ev, symObjAddr: 0xABB0, symBinAddr: 0x100013CD8, symSize: 0x30 }
  - { offsetInCU: 0x4C302, offset: 0x4C302, size: 0x8, addend: 0x0, symName: __ZNSt3__110unique_ptrIN8nlohmann16json_abi_v3_11_227byte_container_with_subtypeINS_6vectorIhNS_9allocatorIhEEEEEEZNS2_10basic_jsonINS_3mapES4_NS_12basic_stringIcNS_11char_traitsIcEENS5_IcEEEEbxydS5_NS2_14adl_serializerES7_E6createIS8_JEEEPT_DpOT0_EUlPS8_E_E5resetB7v160006ESO_, symObjAddr: 0xABE0, symBinAddr: 0x100013D08, symSize: 0x80 }
  - { offsetInCU: 0x4C344, offset: 0x4C344, size: 0x8, addend: 0x0, symName: __ZNSt3__117__compressed_pairIPN8nlohmann16json_abi_v3_11_227byte_container_with_subtypeINS_6vectorIhNS_9allocatorIhEEEEEEZNS2_10basic_jsonINS_3mapES4_NS_12basic_stringIcNS_11char_traitsIcEENS5_IcEEEEbxydS5_NS2_14adl_serializerES7_E6createIS8_JEEEPT_DpOT0_EUlS9_E_E6secondB7v160006Ev, symObjAddr: 0xAC60, symBinAddr: 0x100013D88, symSize: 0x28 }
  - { offsetInCU: 0x4C36E, offset: 0x4C36E, size: 0x8, addend: 0x0, symName: __ZZN8nlohmann16json_abi_v3_11_210basic_jsonINSt3__13mapENS2_6vectorENS2_12basic_stringIcNS2_11char_traitsIcEENS2_9allocatorIcEEEEbxydS8_NS0_14adl_serializerENS4_IhNS8_IhEEEEE6createINS0_27byte_container_with_subtypeISD_EEJEEEPT_DpOT0_ENKUlPSH_E_clESN_, symObjAddr: 0xAC88, symBinAddr: 0x100013DB0, symSize: 0x34 }
  - { offsetInCU: 0x4C3A6, offset: 0x4C3A6, size: 0x8, addend: 0x0, symName: __ZNSt3__122__compressed_pair_elemIZN8nlohmann16json_abi_v3_11_210basic_jsonINS_3mapENS_6vectorENS_12basic_stringIcNS_11char_traitsIcEENS_9allocatorIcEEEEbxydS9_NS2_14adl_serializerENS5_IhNS9_IhEEEEE6createINS2_27byte_container_with_subtypeISE_EEJEEEPT_DpOT0_EUlPSI_E_Li1ELb0EE5__getB7v160006Ev, symObjAddr: 0xACBC, symBinAddr: 0x100013DE4, symSize: 0x14 }
  - { offsetInCU: 0x4C3CB, offset: 0x4C3CB, size: 0x8, addend: 0x0, symName: __ZNSt3__116allocator_traitsINS_9allocatorIN8nlohmann16json_abi_v3_11_227byte_container_with_subtypeINS_6vectorIhNS1_IhEEEEEEEEE10deallocateB7v160006ERS9_PS8_m, symObjAddr: 0xACD0, symBinAddr: 0x100013DF8, symSize: 0x34 }
  - { offsetInCU: 0x4C40C, offset: 0x4C40C, size: 0x8, addend: 0x0, symName: __ZNSt3__19allocatorIN8nlohmann16json_abi_v3_11_227byte_container_with_subtypeINS_6vectorIhNS0_IhEEEEEEE10deallocateB7v160006EPS7_m, symObjAddr: 0xAD04, symBinAddr: 0x100013E2C, symSize: 0x44 }
  - { offsetInCU: 0x4C44D, offset: 0x4C44D, size: 0x8, addend: 0x0, symName: __ZN8nlohmann16json_abi_v3_11_26detail9exception4nameERKNSt3__112basic_stringIcNS3_11char_traitsIcEENS3_9allocatorIcEEEEi, symObjAddr: 0xAE20, symBinAddr: 0x100013F48, symSize: 0xA0 }
  - { offsetInCU: 0x4C480, offset: 0x4C480, size: 0x8, addend: 0x0, symName: __ZN8nlohmann16json_abi_v3_11_26detail9exception11diagnosticsEDn, symObjAddr: 0xAEC0, symBinAddr: 0x100013FE8, symSize: 0x3C }
  - { offsetInCU: 0x4C4A0, offset: 0x4C4A0, size: 0x8, addend: 0x0, symName: __ZN8nlohmann16json_abi_v3_11_26detail11other_errorC1EiPKc, symObjAddr: 0xAEFC, symBinAddr: 0x100014024, symSize: 0x3C }
  - { offsetInCU: 0x4C4E7, offset: 0x4C4E7, size: 0x8, addend: 0x0, symName: __ZNSt3__112basic_stringIcNS_11char_traitsIcEENS_9allocatorIcEEEC1B7v160006Ev, symObjAddr: 0xAF38, symBinAddr: 0x100014060, symSize: 0x2C }
  - { offsetInCU: 0x4C510, offset: 0x4C510, size: 0x8, addend: 0x0, symName: __ZNSt3__112basic_stringIcNS_11char_traitsIcEENS_9allocatorIcEEEC2B7v160006Ev, symObjAddr: 0xAFF0, symBinAddr: 0x100014118, symSize: 0x54 }
  - { offsetInCU: 0x4C539, offset: 0x4C539, size: 0x8, addend: 0x0, symName: __ZNSt3__117__compressed_pairINS_12basic_stringIcNS_11char_traitsIcEENS_9allocatorIcEEE5__repES5_EC1B7v160006INS_18__default_init_tagESA_EEOT_OT0_, symObjAddr: 0xB044, symBinAddr: 0x10001416C, symSize: 0x3C }
  - { offsetInCU: 0x4C58F, offset: 0x4C58F, size: 0x8, addend: 0x0, symName: __ZNSt3__112basic_stringIcNS_11char_traitsIcEENS_9allocatorIcEEE14__default_initB7v160006Ev, symObjAddr: 0xB090, symBinAddr: 0x1000141B8, symSize: 0x40 }
  - { offsetInCU: 0x4C5B4, offset: 0x4C5B4, size: 0x8, addend: 0x0, symName: __ZNSt3__117__compressed_pairINS_12basic_stringIcNS_11char_traitsIcEENS_9allocatorIcEEE5__repES5_EC2B7v160006INS_18__default_init_tagESA_EEOT_OT0_, symObjAddr: 0xB0D0, symBinAddr: 0x1000141F8, symSize: 0x3C }
  - { offsetInCU: 0x4C60B, offset: 0x4C60B, size: 0x8, addend: 0x0, symName: __ZNSt3__122__compressed_pair_elemINS_12basic_stringIcNS_11char_traitsIcEENS_9allocatorIcEEE5__repELi0ELb0EEC2B7v160006ENS_18__default_init_tagE, symObjAddr: 0xB10C, symBinAddr: 0x100014234, symSize: 0x14 }
  - { offsetInCU: 0x4C63E, offset: 0x4C63E, size: 0x8, addend: 0x0, symName: __ZNSt3__117__compressed_pairINS_12basic_stringIcNS_11char_traitsIcEENS_9allocatorIcEEE5__repES5_E5firstB7v160006Ev, symObjAddr: 0xB120, symBinAddr: 0x100014248, symSize: 0x24 }
  - { offsetInCU: 0x4C663, offset: 0x4C663, size: 0x8, addend: 0x0, symName: __ZNSt3__122__compressed_pair_elemINS_12basic_stringIcNS_11char_traitsIcEENS_9allocatorIcEEE5__repELi0ELb0EE5__getB7v160006Ev, symObjAddr: 0xB144, symBinAddr: 0x10001426C, symSize: 0x14 }
  - { offsetInCU: 0x4C687, offset: 0x4C687, size: 0x8, addend: 0x0, symName: __ZNSt3__112basic_stringIcNS_11char_traitsIcEENS_9allocatorIcEEE6appendB7v160006ERKS5_, symObjAddr: 0xB1D8, symBinAddr: 0x100014300, symSize: 0x4C }
  - { offsetInCU: 0x4C6BA, offset: 0x4C6BA, size: 0x8, addend: 0x0, symName: __ZNKSt3__112basic_stringIcNS_11char_traitsIcEENS_9allocatorIcEEE4dataB7v160006Ev, symObjAddr: 0xB260, symBinAddr: 0x100014388, symSize: 0x28 }
  - { offsetInCU: 0x4C6DE, offset: 0x4C6DE, size: 0x8, addend: 0x0, symName: __ZNKSt3__112basic_stringIcNS_11char_traitsIcEENS_9allocatorIcEEE13__get_pointerB7v160006Ev, symObjAddr: 0xB29C, symBinAddr: 0x1000143C4, symSize: 0x54 }
  - { offsetInCU: 0x4C702, offset: 0x4C702, size: 0x8, addend: 0x0, symName: __ZNKSt3__112basic_stringIcNS_11char_traitsIcEENS_9allocatorIcEEE9__is_longB7v160006Ev, symObjAddr: 0xB2F0, symBinAddr: 0x100014418, symSize: 0x38 }
  - { offsetInCU: 0x4C726, offset: 0x4C726, size: 0x8, addend: 0x0, symName: __ZNKSt3__112basic_stringIcNS_11char_traitsIcEENS_9allocatorIcEEE18__get_long_pointerB7v160006Ev, symObjAddr: 0xB328, symBinAddr: 0x100014450, symSize: 0x28 }
  - { offsetInCU: 0x4C74A, offset: 0x4C74A, size: 0x8, addend: 0x0, symName: __ZNKSt3__112basic_stringIcNS_11char_traitsIcEENS_9allocatorIcEEE19__get_short_pointerB7v160006Ev, symObjAddr: 0xB350, symBinAddr: 0x100014478, symSize: 0x28 }
  - { offsetInCU: 0x4C76E, offset: 0x4C76E, size: 0x8, addend: 0x0, symName: __ZNKSt3__117__compressed_pairINS_12basic_stringIcNS_11char_traitsIcEENS_9allocatorIcEEE5__repES5_E5firstB7v160006Ev, symObjAddr: 0xB378, symBinAddr: 0x1000144A0, symSize: 0x24 }
  - { offsetInCU: 0x4C793, offset: 0x4C793, size: 0x8, addend: 0x0, symName: __ZNKSt3__122__compressed_pair_elemINS_12basic_stringIcNS_11char_traitsIcEENS_9allocatorIcEEE5__repELi0ELb0EE5__getB7v160006Ev, symObjAddr: 0xB39C, symBinAddr: 0x1000144C4, symSize: 0x14 }
  - { offsetInCU: 0x4C7B8, offset: 0x4C7B8, size: 0x8, addend: 0x0, symName: __ZNSt3__114pointer_traitsIPKcE10pointer_toB7v160006ERS1_, symObjAddr: 0xB3B0, symBinAddr: 0x1000144D8, symSize: 0x14 }
  - { offsetInCU: 0x4C7DA, offset: 0x4C7DA, size: 0x8, addend: 0x0, symName: __ZNSt3__112basic_stringIcNS_11char_traitsIcEENS_9allocatorIcEEEpLB7v160006Ec, symObjAddr: 0xB738, symBinAddr: 0x100014860, symSize: 0x34 }
  - { offsetInCU: 0x4C80E, offset: 0x4C80E, size: 0x8, addend: 0x0, symName: __ZN8nlohmann16json_abi_v3_11_26detail11other_errorC2EiPKc, symObjAddr: 0xB7DC, symBinAddr: 0x100014904, symSize: 0x54 }
  - { offsetInCU: 0x4C855, offset: 0x4C855, size: 0x8, addend: 0x0, symName: __ZN8nlohmann16json_abi_v3_11_26detail9exceptionC2EiPKc, symObjAddr: 0xB830, symBinAddr: 0x100014958, symSize: 0x8C }
  - { offsetInCU: 0x4C89C, offset: 0x4C89C, size: 0x8, addend: 0x0, symName: __ZN8nlohmann16json_abi_v3_11_26detail11other_errorD0Ev, symObjAddr: 0xB8BC, symBinAddr: 0x1000149E4, symSize: 0x30 }
  - { offsetInCU: 0x4C8C7, offset: 0x4C8C7, size: 0x8, addend: 0x0, symName: __ZNK8nlohmann16json_abi_v3_11_26detail9exception4whatEv, symObjAddr: 0xB8EC, symBinAddr: 0x100014A14, symSize: 0x28 }
  - { offsetInCU: 0x4C8EC, offset: 0x4C8EC, size: 0x8, addend: 0x0, symName: __ZNSt9exceptionC2B7v160006Ev, symObjAddr: 0xB914, symBinAddr: 0x100014A3C, symSize: 0x24 }
  - { offsetInCU: 0x4C915, offset: 0x4C915, size: 0x8, addend: 0x0, symName: __ZN8nlohmann16json_abi_v3_11_26detail9exceptionD1Ev, symObjAddr: 0xB938, symBinAddr: 0x100014A60, symSize: 0x2C }
  - { offsetInCU: 0x4C941, offset: 0x4C941, size: 0x8, addend: 0x0, symName: __ZN8nlohmann16json_abi_v3_11_26detail9exceptionD0Ev, symObjAddr: 0xB964, symBinAddr: 0x100014A8C, symSize: 0x30 }
  - { offsetInCU: 0x4C96D, offset: 0x4C96D, size: 0x8, addend: 0x0, symName: __ZN8nlohmann16json_abi_v3_11_26detail9exceptionD2Ev, symObjAddr: 0xB994, symBinAddr: 0x100014ABC, symSize: 0x48 }
  - { offsetInCU: 0x4C999, offset: 0x4C999, size: 0x8, addend: 0x0, symName: __ZN8nlohmann16json_abi_v3_11_26detail11other_errorD2Ev, symObjAddr: 0xB9DC, symBinAddr: 0x100014B04, symSize: 0x2C }
  - { offsetInCU: 0x4C9C5, offset: 0x4C9C5, size: 0x8, addend: 0x0, symName: __ZNSt3__18functionIFbiN8nlohmann16json_abi_v3_11_26detail13parse_event_tERNS2_10basic_jsonINS_3mapENS_6vectorENS_12basic_stringIcNS_11char_traitsIcEENS_9allocatorIcEEEEbxydSB_NS2_14adl_serializerENS7_IhNSB_IhEEEEEEEEC1EOSK_, symObjAddr: 0xBA08, symBinAddr: 0x100014B30, symSize: 0x34 }
  - { offsetInCU: 0x4C9FF, offset: 0x4C9FF, size: 0x8, addend: 0x0, symName: __ZN8nlohmann16json_abi_v3_11_26detail6parserINS0_10basic_jsonINSt3__13mapENS4_6vectorENS4_12basic_stringIcNS4_11char_traitsIcEENS4_9allocatorIcEEEEbxydSA_NS0_14adl_serializerENS6_IhNSA_IhEEEEEENS1_22iterator_input_adapterIPKcEEEC1EOSK_NS4_8functionIFbiNS1_13parse_event_tERSG_EEEbb, symObjAddr: 0xBA3C, symBinAddr: 0x100014B64, symSize: 0x60 }
  - { offsetInCU: 0x4CA65, offset: 0x4CA65, size: 0x8, addend: 0x0, symName: __ZNSt3__18functionIFbiN8nlohmann16json_abi_v3_11_26detail13parse_event_tERNS2_10basic_jsonINS_3mapENS_6vectorENS_12basic_stringIcNS_11char_traitsIcEENS_9allocatorIcEEEEbxydSB_NS2_14adl_serializerENS7_IhNSB_IhEEEEEEEEC2EOSK_, symObjAddr: 0xBA9C, symBinAddr: 0x100014BC4, symSize: 0x34 }
  - { offsetInCU: 0x4CA9F, offset: 0x4CA9F, size: 0x8, addend: 0x0, symName: __ZNSt3__110__function12__value_funcIFbiN8nlohmann16json_abi_v3_11_26detail13parse_event_tERNS3_10basic_jsonINS_3mapENS_6vectorENS_12basic_stringIcNS_11char_traitsIcEENS_9allocatorIcEEEEbxydSC_NS3_14adl_serializerENS8_IhNSC_IhEEEEEEEEC1B7v160006EOSL_, symObjAddr: 0xBAD0, symBinAddr: 0x100014BF8, symSize: 0x34 }
  - { offsetInCU: 0x4CAD7, offset: 0x4CAD7, size: 0x8, addend: 0x0, symName: __ZNSt3__110__function12__value_funcIFbiN8nlohmann16json_abi_v3_11_26detail13parse_event_tERNS3_10basic_jsonINS_3mapENS_6vectorENS_12basic_stringIcNS_11char_traitsIcEENS_9allocatorIcEEEEbxydSC_NS3_14adl_serializerENS8_IhNSC_IhEEEEEEEEC2B7v160006EOSL_, symObjAddr: 0xBB04, symBinAddr: 0x100014C2C, symSize: 0xD0 }
  - { offsetInCU: 0x4CB0F, offset: 0x4CB0F, size: 0x8, addend: 0x0, symName: __ZNSt3__110__function12__value_funcIFbiN8nlohmann16json_abi_v3_11_26detail13parse_event_tERNS3_10basic_jsonINS_3mapENS_6vectorENS_12basic_stringIcNS_11char_traitsIcEENS_9allocatorIcEEEEbxydSC_NS3_14adl_serializerENS8_IhNSC_IhEEEEEEEE9__as_baseEPv, symObjAddr: 0xBBD4, symBinAddr: 0x100014CFC, symSize: 0x14 }
  - { offsetInCU: 0x4CB33, offset: 0x4CB33, size: 0x8, addend: 0x0, symName: __ZN8nlohmann16json_abi_v3_11_26detail6parserINS0_10basic_jsonINSt3__13mapENS4_6vectorENS4_12basic_stringIcNS4_11char_traitsIcEENS4_9allocatorIcEEEEbxydSA_NS0_14adl_serializerENS6_IhNSA_IhEEEEEENS1_22iterator_input_adapterIPKcEEEC2EOSK_NS4_8functionIFbiNS1_13parse_event_tERSG_EEEbb, symObjAddr: 0xBBE8, symBinAddr: 0x100014D10, symSize: 0xC0 }
  - { offsetInCU: 0x4CB99, offset: 0x4CB99, size: 0x8, addend: 0x0, symName: __ZN8nlohmann16json_abi_v3_11_26detail5lexerINS0_10basic_jsonINSt3__13mapENS4_6vectorENS4_12basic_stringIcNS4_11char_traitsIcEENS4_9allocatorIcEEEEbxydSA_NS0_14adl_serializerENS6_IhNSA_IhEEEEEENS1_22iterator_input_adapterIPKcEEEC1EOSK_b, symObjAddr: 0xBCA8, symBinAddr: 0x100014DD0, symSize: 0x48 }
  - { offsetInCU: 0x4CBDF, offset: 0x4CBDF, size: 0x8, addend: 0x0, symName: __ZN8nlohmann16json_abi_v3_11_26detail6parserINS0_10basic_jsonINSt3__13mapENS4_6vectorENS4_12basic_stringIcNS4_11char_traitsIcEENS4_9allocatorIcEEEEbxydSA_NS0_14adl_serializerENS6_IhNSA_IhEEEEEENS1_22iterator_input_adapterIPKcEEE9get_tokenEv, symObjAddr: 0xBCF0, symBinAddr: 0x100014E18, symSize: 0x34 }
  - { offsetInCU: 0x4CC04, offset: 0x4CC04, size: 0x8, addend: 0x0, symName: __ZN8nlohmann16json_abi_v3_11_26detail5lexerINS0_10basic_jsonINSt3__13mapENS4_6vectorENS4_12basic_stringIcNS4_11char_traitsIcEENS4_9allocatorIcEEEEbxydSA_NS0_14adl_serializerENS6_IhNSA_IhEEEEEENS1_22iterator_input_adapterIPKcEEED1Ev, symObjAddr: 0xBD24, symBinAddr: 0x100014E4C, symSize: 0x2C }
  - { offsetInCU: 0x4CC2D, offset: 0x4CC2D, size: 0x8, addend: 0x0, symName: __ZN8nlohmann16json_abi_v3_11_26detail5lexerINS0_10basic_jsonINSt3__13mapENS4_6vectorENS4_12basic_stringIcNS4_11char_traitsIcEENS4_9allocatorIcEEEEbxydSA_NS0_14adl_serializerENS6_IhNSA_IhEEEEEENS1_22iterator_input_adapterIPKcEEEC2EOSK_b, symObjAddr: 0xBD50, symBinAddr: 0x100014E78, symSize: 0xB0 }
  - { offsetInCU: 0x4CC74, offset: 0x4CC74, size: 0x8, addend: 0x0, symName: __ZNSt3__111char_traitsIcE3eofEv, symObjAddr: 0xBE00, symBinAddr: 0x100014F28, symSize: 0x8 }
  - { offsetInCU: 0x4CC88, offset: 0x4CC88, size: 0x8, addend: 0x0, symName: __ZN8nlohmann16json_abi_v3_11_26detail5lexerINS0_10basic_jsonINSt3__13mapENS4_6vectorENS4_12basic_stringIcNS4_11char_traitsIcEENS4_9allocatorIcEEEEbxydSA_NS0_14adl_serializerENS6_IhNSA_IhEEEEEENS1_22iterator_input_adapterIPKcEEE17get_decimal_pointEv, symObjAddr: 0xBE08, symBinAddr: 0x100014F30, symSize: 0xB0 }
  - { offsetInCU: 0x4CCAB, offset: 0x4CCAB, size: 0x8, addend: 0x0, symName: __ZN8nlohmann16json_abi_v3_11_26detail5lexerINS0_10basic_jsonINSt3__13mapENS4_6vectorENS4_12basic_stringIcNS4_11char_traitsIcEENS4_9allocatorIcEEEEbxydSA_NS0_14adl_serializerENS6_IhNSA_IhEEEEEENS1_22iterator_input_adapterIPKcEEE4scanEv, symObjAddr: 0xBEB8, symBinAddr: 0x100014FE0, symSize: 0x280 }
  - { offsetInCU: 0x4CD29, offset: 0x4CD29, size: 0x8, addend: 0x0, symName: __ZN8nlohmann16json_abi_v3_11_26detail5lexerINS0_10basic_jsonINSt3__13mapENS4_6vectorENS4_12basic_stringIcNS4_11char_traitsIcEENS4_9allocatorIcEEEEbxydSA_NS0_14adl_serializerENS6_IhNSA_IhEEEEEENS1_22iterator_input_adapterIPKcEEE8skip_bomEv, symObjAddr: 0xC334, symBinAddr: 0x10001545C, symSize: 0xA8 }
  - { offsetInCU: 0x4CD4D, offset: 0x4CD4D, size: 0x8, addend: 0x0, symName: __ZN8nlohmann16json_abi_v3_11_26detail5lexerINS0_10basic_jsonINSt3__13mapENS4_6vectorENS4_12basic_stringIcNS4_11char_traitsIcEENS4_9allocatorIcEEEEbxydSA_NS0_14adl_serializerENS6_IhNSA_IhEEEEEENS1_22iterator_input_adapterIPKcEEE15skip_whitespaceEv, symObjAddr: 0xC3DC, symBinAddr: 0x100015504, symSize: 0xB8 }
  - { offsetInCU: 0x4CD71, offset: 0x4CD71, size: 0x8, addend: 0x0, symName: __ZN8nlohmann16json_abi_v3_11_26detail5lexerINS0_10basic_jsonINSt3__13mapENS4_6vectorENS4_12basic_stringIcNS4_11char_traitsIcEENS4_9allocatorIcEEEEbxydSA_NS0_14adl_serializerENS6_IhNSA_IhEEEEEENS1_22iterator_input_adapterIPKcEEE12scan_commentEv, symObjAddr: 0xC494, symBinAddr: 0x1000155BC, symSize: 0x17C }
  - { offsetInCU: 0x4CD95, offset: 0x4CD95, size: 0x8, addend: 0x0, symName: __ZN8nlohmann16json_abi_v3_11_26detail5lexerINS0_10basic_jsonINSt3__13mapENS4_6vectorENS4_12basic_stringIcNS4_11char_traitsIcEENS4_9allocatorIcEEEEbxydSA_NS0_14adl_serializerENS6_IhNSA_IhEEEEEENS1_22iterator_input_adapterIPKcEEE12scan_literalESJ_mNS1_10lexer_baseISG_E10token_typeE, symObjAddr: 0xC610, symBinAddr: 0x100015738, symSize: 0x100 }
  - { offsetInCU: 0x4CE49, offset: 0x4CE49, size: 0x8, addend: 0x0, symName: __ZNSt3__15arrayIcLm4EE4dataB7v160006Ev, symObjAddr: 0xC710, symBinAddr: 0x100015838, symSize: 0x14 }
  - { offsetInCU: 0x4CE6E, offset: 0x4CE6E, size: 0x8, addend: 0x0, symName: __ZNKSt3__15arrayIcLm4EE4sizeB7v160006Ev, symObjAddr: 0xC724, symBinAddr: 0x10001584C, symSize: 0x14 }
  - { offsetInCU: 0x4CEC0, offset: 0x4CEC0, size: 0x8, addend: 0x0, symName: __ZNSt3__15arrayIcLm5EE4dataB7v160006Ev, symObjAddr: 0xC738, symBinAddr: 0x100015860, symSize: 0x14 }
  - { offsetInCU: 0x4CEE5, offset: 0x4CEE5, size: 0x8, addend: 0x0, symName: __ZNKSt3__15arrayIcLm5EE4sizeB7v160006Ev, symObjAddr: 0xC74C, symBinAddr: 0x100015874, symSize: 0x14 }
  - { offsetInCU: 0x4CF09, offset: 0x4CF09, size: 0x8, addend: 0x0, symName: __ZN8nlohmann16json_abi_v3_11_26detail5lexerINS0_10basic_jsonINSt3__13mapENS4_6vectorENS4_12basic_stringIcNS4_11char_traitsIcEENS4_9allocatorIcEEEEbxydSA_NS0_14adl_serializerENS6_IhNSA_IhEEEEEENS1_22iterator_input_adapterIPKcEEE11scan_stringEv, symObjAddr: 0xC760, symBinAddr: 0x100015888, symSize: 0xB64 }
  - { offsetInCU: 0x4CF7C, offset: 0x4CF7C, size: 0x8, addend: 0x0, symName: __ZN8nlohmann16json_abi_v3_11_26detail5lexerINS0_10basic_jsonINSt3__13mapENS4_6vectorENS4_12basic_stringIcNS4_11char_traitsIcEENS4_9allocatorIcEEEEbxydSA_NS0_14adl_serializerENS6_IhNSA_IhEEEEEENS1_22iterator_input_adapterIPKcEEE11scan_numberEv, symObjAddr: 0xD7EC, symBinAddr: 0x100016914, symSize: 0x658 }
  - { offsetInCU: 0x4D093, offset: 0x4D093, size: 0x8, addend: 0x0, symName: __ZN8nlohmann16json_abi_v3_11_26detail5lexerINS0_10basic_jsonINSt3__13mapENS4_6vectorENS4_12basic_stringIcNS4_11char_traitsIcEENS4_9allocatorIcEEEEbxydSA_NS0_14adl_serializerENS6_IhNSA_IhEEEEEENS1_22iterator_input_adapterIPKcEEE3getEv, symObjAddr: 0xDF24, symBinAddr: 0x10001704C, symSize: 0xF0 }
  - { offsetInCU: 0x4D0B7, offset: 0x4D0B7, size: 0x8, addend: 0x0, symName: __ZN8nlohmann16json_abi_v3_11_26detail5lexerINS0_10basic_jsonINSt3__13mapENS4_6vectorENS4_12basic_stringIcNS4_11char_traitsIcEENS4_9allocatorIcEEEEbxydSA_NS0_14adl_serializerENS6_IhNSA_IhEEEEEENS1_22iterator_input_adapterIPKcEEE5ungetEv, symObjAddr: 0xE014, symBinAddr: 0x10001713C, symSize: 0xFC }
  - { offsetInCU: 0x4D0DB, offset: 0x4D0DB, size: 0x8, addend: 0x0, symName: __ZN8nlohmann16json_abi_v3_11_26detail22iterator_input_adapterIPKcE13get_characterEv, symObjAddr: 0xE110, symBinAddr: 0x100017238, symSize: 0x7C }
  - { offsetInCU: 0x4D11E, offset: 0x4D11E, size: 0x8, addend: 0x0, symName: __ZNSt3__16vectorIcNS_9allocatorIcEEE9push_backB7v160006EOc, symObjAddr: 0xE18C, symBinAddr: 0x1000172B4, symSize: 0x6C }
  - { offsetInCU: 0x4D154, offset: 0x4D154, size: 0x8, addend: 0x0, symName: __ZNSt3__111char_traitsIcE12to_char_typeEi, symObjAddr: 0xE1F8, symBinAddr: 0x100017320, symSize: 0x18 }
  - { offsetInCU: 0x4D177, offset: 0x4D177, size: 0x8, addend: 0x0, symName: __ZNSt3__111char_traitsIcE11to_int_typeEc, symObjAddr: 0xE210, symBinAddr: 0x100017338, symSize: 0x14 }
  - { offsetInCU: 0x4D199, offset: 0x4D199, size: 0x8, addend: 0x0, symName: __ZNSt3__16vectorIcNS_9allocatorIcEEE22__construct_one_at_endB7v160006IJcEEEvDpOT_, symObjAddr: 0xE2B8, symBinAddr: 0x1000173E0, symSize: 0x90 }
  - { offsetInCU: 0x4D1E7, offset: 0x4D1E7, size: 0x8, addend: 0x0, symName: __ZNSt3__16vectorIcNS_9allocatorIcEEE21__push_back_slow_pathIcEEvOT_, symObjAddr: 0xE348, symBinAddr: 0x100017470, symSize: 0xD8 }
  - { offsetInCU: 0x4D244, offset: 0x4D244, size: 0x8, addend: 0x0, symName: __ZNSt3__116allocator_traitsINS_9allocatorIcEEE9constructB7v160006IcJcEvEEvRS2_PT_DpOT0_, symObjAddr: 0xE420, symBinAddr: 0x100017548, symSize: 0x34 }
  - { offsetInCU: 0x4D29C, offset: 0x4D29C, size: 0x8, addend: 0x0, symName: __ZNSt3__19allocatorIcE9constructB7v160006IcJcEEEvPT_DpOT0_, symObjAddr: 0xE454, symBinAddr: 0x10001757C, symSize: 0x28 }
  - { offsetInCU: 0x4D2F1, offset: 0x4D2F1, size: 0x8, addend: 0x0, symName: __ZNKSt3__16vectorIcNS_9allocatorIcEEE5emptyB7v160006Ev, symObjAddr: 0xE47C, symBinAddr: 0x1000175A4, symSize: 0x28 }
  - { offsetInCU: 0x4D316, offset: 0x4D316, size: 0x8, addend: 0x0, symName: __ZNSt3__16vectorIcNS_9allocatorIcEEE8pop_backEv, symObjAddr: 0xE4A4, symBinAddr: 0x1000175CC, symSize: 0x2C }
  - { offsetInCU: 0x4D33C, offset: 0x4D33C, size: 0x8, addend: 0x0, symName: __ZN8nlohmann16json_abi_v3_11_26detail5lexerINS0_10basic_jsonINSt3__13mapENS4_6vectorENS4_12basic_stringIcNS4_11char_traitsIcEENS4_9allocatorIcEEEEbxydSA_NS0_14adl_serializerENS6_IhNSA_IhEEEEEENS1_22iterator_input_adapterIPKcEEE5resetEv, symObjAddr: 0xE4D0, symBinAddr: 0x1000175F8, symSize: 0x60 }
  - { offsetInCU: 0x4D360, offset: 0x4D360, size: 0x8, addend: 0x0, symName: __ZN8nlohmann16json_abi_v3_11_26detail5lexerINS0_10basic_jsonINSt3__13mapENS4_6vectorENS4_12basic_stringIcNS4_11char_traitsIcEENS4_9allocatorIcEEEEbxydSA_NS0_14adl_serializerENS6_IhNSA_IhEEEEEENS1_22iterator_input_adapterIPKcEEE3addEi, symObjAddr: 0xE530, symBinAddr: 0x100017658, symSize: 0x34 }
  - { offsetInCU: 0x4D393, offset: 0x4D393, size: 0x8, addend: 0x0, symName: __ZN8nlohmann16json_abi_v3_11_26detail5lexerINS0_10basic_jsonINSt3__13mapENS4_6vectorENS4_12basic_stringIcNS4_11char_traitsIcEENS4_9allocatorIcEEEEbxydSA_NS0_14adl_serializerENS6_IhNSA_IhEEEEEENS1_22iterator_input_adapterIPKcEEE13get_codepointEv, symObjAddr: 0xE564, symBinAddr: 0x10001768C, symSize: 0x2B0 }
  - { offsetInCU: 0x4D429, offset: 0x4D429, size: 0x8, addend: 0x0, symName: __ZN8nlohmann16json_abi_v3_11_26detail5lexerINS0_10basic_jsonINSt3__13mapENS4_6vectorENS4_12basic_stringIcNS4_11char_traitsIcEENS4_9allocatorIcEEEEbxydSA_NS0_14adl_serializerENS6_IhNSA_IhEEEEEENS1_22iterator_input_adapterIPKcEEE18next_byte_in_rangeESt16initializer_listIiE, symObjAddr: 0xE814, symBinAddr: 0x10001793C, symSize: 0x1C0 }
  - { offsetInCU: 0x4D47B, offset: 0x4D47B, size: 0x8, addend: 0x0, symName: __ZNSt3__112basic_stringIcNS_11char_traitsIcEENS_9allocatorIcEEE5clearB7v160006Ev, symObjAddr: 0xE9D4, symBinAddr: 0x100017AFC, symSize: 0x88 }
  - { offsetInCU: 0x4D4A1, offset: 0x4D4A1, size: 0x8, addend: 0x0, symName: __ZNSt3__16vectorIcNS_9allocatorIcEEE5clearB7v160006Ev, symObjAddr: 0xEA5C, symBinAddr: 0x100017B84, symSize: 0x4C }
  - { offsetInCU: 0x4D4D5, offset: 0x4D4D5, size: 0x8, addend: 0x0, symName: __ZNSt3__111char_traitsIcE6assignERcRKc, symObjAddr: 0xEAB8, symBinAddr: 0x100017BE0, symSize: 0x24 }
  - { offsetInCU: 0x4D505, offset: 0x4D505, size: 0x8, addend: 0x0, symName: __ZNSt3__112basic_stringIcNS_11char_traitsIcEENS_9allocatorIcEEE18__get_long_pointerB7v160006Ev, symObjAddr: 0xEADC, symBinAddr: 0x100017C04, symSize: 0x28 }
  - { offsetInCU: 0x4D529, offset: 0x4D529, size: 0x8, addend: 0x0, symName: __ZNSt3__112basic_stringIcNS_11char_traitsIcEENS_9allocatorIcEEE15__set_long_sizeB7v160006Em, symObjAddr: 0xEB04, symBinAddr: 0x100017C2C, symSize: 0x38 }
  - { offsetInCU: 0x4D55C, offset: 0x4D55C, size: 0x8, addend: 0x0, symName: __ZNSt3__112basic_stringIcNS_11char_traitsIcEENS_9allocatorIcEEE19__get_short_pointerB7v160006Ev, symObjAddr: 0xEB3C, symBinAddr: 0x100017C64, symSize: 0x28 }
  - { offsetInCU: 0x4D580, offset: 0x4D580, size: 0x8, addend: 0x0, symName: __ZNSt3__112basic_stringIcNS_11char_traitsIcEENS_9allocatorIcEEE16__set_short_sizeB7v160006Em, symObjAddr: 0xEB64, symBinAddr: 0x100017C8C, symSize: 0x78 }
  - { offsetInCU: 0x4D5B4, offset: 0x4D5B4, size: 0x8, addend: 0x0, symName: __ZNSt3__114pointer_traitsIPcE10pointer_toB7v160006ERc, symObjAddr: 0xEBDC, symBinAddr: 0x100017D04, symSize: 0x14 }
  - { offsetInCU: 0x4D5EB, offset: 0x4D5EB, size: 0x8, addend: 0x0, symName: __ZNKSt16initializer_listIjE5beginB7v160006Ev, symObjAddr: 0xEBF0, symBinAddr: 0x100017D18, symSize: 0x18 }
  - { offsetInCU: 0x4D610, offset: 0x4D610, size: 0x8, addend: 0x0, symName: __ZNKSt16initializer_listIjE3endB7v160006Ev, symObjAddr: 0xEC08, symBinAddr: 0x100017D30, symSize: 0x20 }
  - { offsetInCU: 0x4D635, offset: 0x4D635, size: 0x8, addend: 0x0, symName: __ZNKSt16initializer_listIiE4sizeB7v160006Ev, symObjAddr: 0xEC28, symBinAddr: 0x100017D50, symSize: 0x18 }
  - { offsetInCU: 0x4D65A, offset: 0x4D65A, size: 0x8, addend: 0x0, symName: __ZNKSt16initializer_listIiE5beginB7v160006Ev, symObjAddr: 0xEC40, symBinAddr: 0x100017D68, symSize: 0x18 }
  - { offsetInCU: 0x4D67F, offset: 0x4D67F, size: 0x8, addend: 0x0, symName: __ZNKSt16initializer_listIiE3endB7v160006Ev, symObjAddr: 0xEC58, symBinAddr: 0x100017D80, symSize: 0x20 }
  - { offsetInCU: 0x4D6A3, offset: 0x4D6A3, size: 0x8, addend: 0x0, symName: __ZNSt3__112basic_stringIcNS_11char_traitsIcEENS_9allocatorIcEEE4dataB7v160006Ev, symObjAddr: 0xEC78, symBinAddr: 0x100017DA0, symSize: 0x28 }
  - { offsetInCU: 0x4D6C8, offset: 0x4D6C8, size: 0x8, addend: 0x0, symName: __ZN8nlohmann16json_abi_v3_11_26detail5lexerINS0_10basic_jsonINSt3__13mapENS4_6vectorENS4_12basic_stringIcNS4_11char_traitsIcEENS4_9allocatorIcEEEEbxydSA_NS0_14adl_serializerENS6_IhNSA_IhEEEEEENS1_22iterator_input_adapterIPKcEEE6strtofERdSJ_PPc, symObjAddr: 0xECA0, symBinAddr: 0x100017DC8, symSize: 0x48 }
  - { offsetInCU: 0x4D709, offset: 0x4D709, size: 0x8, addend: 0x0, symName: __ZNSt3__112basic_stringIcNS_11char_traitsIcEENS_9allocatorIcEEE13__get_pointerB7v160006Ev, symObjAddr: 0xECE8, symBinAddr: 0x100017E10, symSize: 0x54 }
  - { offsetInCU: 0x4D72E, offset: 0x4D72E, size: 0x8, addend: 0x0, symName: __ZN8nlohmann16json_abi_v3_11_26detail5lexerINS0_10basic_jsonINSt3__13mapENS4_6vectorENS4_12basic_stringIcNS4_11char_traitsIcEENS4_9allocatorIcEEEEbxydSA_NS0_14adl_serializerENS6_IhNSA_IhEEEEEENS1_22iterator_input_adapterIPKcEEED2Ev, symObjAddr: 0xED3C, symBinAddr: 0x100017E64, symSize: 0x3C }
  - { offsetInCU: 0x4D757, offset: 0x4D757, size: 0x8, addend: 0x0, symName: __ZN8nlohmann16json_abi_v3_11_26detail30iterator_input_adapter_factoryIPKcvE6createES4_S4_, symObjAddr: 0xEDB4, symBinAddr: 0x100017EDC, symSize: 0x38 }
  - { offsetInCU: 0x4D78A, offset: 0x4D78A, size: 0x8, addend: 0x0, symName: __ZN8nlohmann16json_abi_v3_11_26detail22iterator_input_adapterIPKcEC1ES4_S4_, symObjAddr: 0xEDEC, symBinAddr: 0x100017F14, symSize: 0x3C }
  - { offsetInCU: 0x4D7D1, offset: 0x4D7D1, size: 0x8, addend: 0x0, symName: __ZN8nlohmann16json_abi_v3_11_26detail22iterator_input_adapterIPKcEC2ES4_S4_, symObjAddr: 0xEE28, symBinAddr: 0x100017F50, symSize: 0x2C }
  - { offsetInCU: 0x4D818, offset: 0x4D818, size: 0x8, addend: 0x0, symName: __ZNSt3__18functionIFbiN8nlohmann16json_abi_v3_11_26detail13parse_event_tERNS2_10basic_jsonINS_3mapENS_6vectorENS_12basic_stringIcNS_11char_traitsIcEENS_9allocatorIcEEEEbxydSB_NS2_14adl_serializerENS7_IhNSB_IhEEEEEEEEC2ERKSK_, symObjAddr: 0xEE54, symBinAddr: 0x100017F7C, symSize: 0x34 }
  - { offsetInCU: 0x4D852, offset: 0x4D852, size: 0x8, addend: 0x0, symName: __ZNSt3__110__function12__value_funcIFbiN8nlohmann16json_abi_v3_11_26detail13parse_event_tERNS3_10basic_jsonINS_3mapENS_6vectorENS_12basic_stringIcNS_11char_traitsIcEENS_9allocatorIcEEEEbxydSC_NS3_14adl_serializerENS8_IhNSC_IhEEEEEEEEC1B7v160006ERKSL_, symObjAddr: 0xEE88, symBinAddr: 0x100017FB0, symSize: 0x34 }
  - { offsetInCU: 0x4D88A, offset: 0x4D88A, size: 0x8, addend: 0x0, symName: __ZNSt3__110__function12__value_funcIFbiN8nlohmann16json_abi_v3_11_26detail13parse_event_tERNS3_10basic_jsonINS_3mapENS_6vectorENS_12basic_stringIcNS_11char_traitsIcEENS_9allocatorIcEEEEbxydSC_NS3_14adl_serializerENS8_IhNSC_IhEEEEEEEEC2B7v160006ERKSL_, symObjAddr: 0xEEBC, symBinAddr: 0x100017FE4, symSize: 0xC0 }
  - { offsetInCU: 0x4D8C1, offset: 0x4D8C1, size: 0x8, addend: 0x0, symName: __ZNKSt3__18functionIFbiN8nlohmann16json_abi_v3_11_26detail13parse_event_tERNS2_10basic_jsonINS_3mapENS_6vectorENS_12basic_stringIcNS_11char_traitsIcEENS_9allocatorIcEEEEbxydSB_NS2_14adl_serializerENS7_IhNSB_IhEEEEEEEEcvbB7v160006Ev, symObjAddr: 0xEF7C, symBinAddr: 0x1000180A4, symSize: 0x28 }
  - { offsetInCU: 0x4D91E, offset: 0x4D91E, size: 0x8, addend: 0x0, symName: __ZN8nlohmann16json_abi_v3_11_26detail28json_sax_dom_callback_parserINS0_10basic_jsonINSt3__13mapENS4_6vectorENS4_12basic_stringIcNS4_11char_traitsIcEENS4_9allocatorIcEEEEbxydSA_NS0_14adl_serializerENS6_IhNSA_IhEEEEEEEC1ERSG_NS4_8functionIFbiNS1_13parse_event_tESI_EEEb, symObjAddr: 0xEFA4, symBinAddr: 0x1000180CC, symSize: 0x50 }
  - { offsetInCU: 0x4D979, offset: 0x4D979, size: 0x8, addend: 0x0, symName: __ZN8nlohmann16json_abi_v3_11_26detail6parserINS0_10basic_jsonINSt3__13mapENS4_6vectorENS4_12basic_stringIcNS4_11char_traitsIcEENS4_9allocatorIcEEEEbxydSA_NS0_14adl_serializerENS6_IhNSA_IhEEEEEENS1_22iterator_input_adapterIPKcEEE18sax_parse_internalINS1_28json_sax_dom_callback_parserISG_EEEEbPT_, symObjAddr: 0xEFF4, symBinAddr: 0x10001811C, symSize: 0x13FC }
  - { offsetInCU: 0x4DA07, offset: 0x4DA07, size: 0x8, addend: 0x0, symName: __ZN8nlohmann16json_abi_v3_11_26detail28json_sax_dom_callback_parserINS0_10basic_jsonINSt3__13mapENS4_6vectorENS4_12basic_stringIcNS4_11char_traitsIcEENS4_9allocatorIcEEEEbxydSA_NS0_14adl_serializerENS6_IhNSA_IhEEEEEEE11parse_errorINS1_11parse_errorEEEbmRKSC_RKT_, symObjAddr: 0x10434, symBinAddr: 0x10001955C, symSize: 0x74 }
  - { offsetInCU: 0x4DA5A, offset: 0x4DA5A, size: 0x8, addend: 0x0, symName: __ZNK8nlohmann16json_abi_v3_11_26detail5lexerINS0_10basic_jsonINSt3__13mapENS4_6vectorENS4_12basic_stringIcNS4_11char_traitsIcEENS4_9allocatorIcEEEEbxydSA_NS0_14adl_serializerENS6_IhNSA_IhEEEEEENS1_22iterator_input_adapterIPKcEEE12get_positionEv, symObjAddr: 0x104A8, symBinAddr: 0x1000195D0, symSize: 0x28 }
  - { offsetInCU: 0x4DA7F, offset: 0x4DA7F, size: 0x8, addend: 0x0, symName: __ZNK8nlohmann16json_abi_v3_11_26detail10position_tcvmEv, symObjAddr: 0x104D0, symBinAddr: 0x1000195F8, symSize: 0x18 }
  - { offsetInCU: 0x4DAA3, offset: 0x4DAA3, size: 0x8, addend: 0x0, symName: __ZNK8nlohmann16json_abi_v3_11_26detail5lexerINS0_10basic_jsonINSt3__13mapENS4_6vectorENS4_12basic_stringIcNS4_11char_traitsIcEENS4_9allocatorIcEEEEbxydSA_NS0_14adl_serializerENS6_IhNSA_IhEEEEEENS1_22iterator_input_adapterIPKcEEE16get_token_stringEv, symObjAddr: 0x104E8, symBinAddr: 0x100019610, symSize: 0x1B8 }
  - { offsetInCU: 0x4DB3C, offset: 0x4DB3C, size: 0x8, addend: 0x0, symName: __ZN8nlohmann16json_abi_v3_11_26detail11parse_error6createIDnLi0EEES2_iRKNS1_10position_tERKNSt3__112basic_stringIcNS7_11char_traitsIcEENS7_9allocatorIcEEEET_, symObjAddr: 0x106A0, symBinAddr: 0x1000197C8, symSize: 0x18C }
  - { offsetInCU: 0x4DBAA, offset: 0x4DBAA, size: 0x8, addend: 0x0, symName: __ZN8nlohmann16json_abi_v3_11_26detail6parserINS0_10basic_jsonINSt3__13mapENS4_6vectorENS4_12basic_stringIcNS4_11char_traitsIcEENS4_9allocatorIcEEEEbxydSA_NS0_14adl_serializerENS6_IhNSA_IhEEEEEENS1_22iterator_input_adapterIPKcEEE17exception_messageENS1_10lexer_baseISG_E10token_typeERKSC_, symObjAddr: 0x1082C, symBinAddr: 0x100019954, symSize: 0x2B0 }
  - { offsetInCU: 0x4DBFD, offset: 0x4DBFD, size: 0x8, addend: 0x0, symName: __ZN8nlohmann16json_abi_v3_11_26detail11parse_errorD1Ev, symObjAddr: 0x10ADC, symBinAddr: 0x100019C04, symSize: 0x2C }
  - { offsetInCU: 0x4DC29, offset: 0x4DC29, size: 0x8, addend: 0x0, symName: __ZNK8nlohmann16json_abi_v3_11_26detail28json_sax_dom_callback_parserINS0_10basic_jsonINSt3__13mapENS4_6vectorENS4_12basic_stringIcNS4_11char_traitsIcEENS4_9allocatorIcEEEEbxydSA_NS0_14adl_serializerENS6_IhNSA_IhEEEEEEE10is_erroredEv, symObjAddr: 0x10B08, symBinAddr: 0x100019C30, symSize: 0x1C }
  - { offsetInCU: 0x4DC4D, offset: 0x4DC4D, size: 0x8, addend: 0x0, symName: __ZN8nlohmann16json_abi_v3_11_210basic_jsonINSt3__13mapENS2_6vectorENS2_12basic_stringIcNS2_11char_traitsIcEENS2_9allocatorIcEEEEbxydS8_NS0_14adl_serializerENS4_IhNS8_IhEEEEEaSESE_, symObjAddr: 0x10B24, symBinAddr: 0x100019C4C, symSize: 0x80 }
  - { offsetInCU: 0x4DC82, offset: 0x4DC82, size: 0x8, addend: 0x0, symName: __ZNK8nlohmann16json_abi_v3_11_210basic_jsonINSt3__13mapENS2_6vectorENS2_12basic_stringIcNS2_11char_traitsIcEENS2_9allocatorIcEEEEbxydS8_NS0_14adl_serializerENS4_IhNS8_IhEEEEE12is_discardedEv, symObjAddr: 0x10BA4, symBinAddr: 0x100019CCC, symSize: 0x24 }
  - { offsetInCU: 0x4DCA7, offset: 0x4DCA7, size: 0x8, addend: 0x0, symName: __ZN8nlohmann16json_abi_v3_11_26detail28json_sax_dom_callback_parserINS0_10basic_jsonINSt3__13mapENS4_6vectorENS4_12basic_stringIcNS4_11char_traitsIcEENS4_9allocatorIcEEEEbxydSA_NS0_14adl_serializerENS6_IhNSA_IhEEEEEEED1Ev, symObjAddr: 0x10BC8, symBinAddr: 0x100019CF0, symSize: 0x2C }
  - { offsetInCU: 0x4DD03, offset: 0x4DD03, size: 0x8, addend: 0x0, symName: __ZN8nlohmann16json_abi_v3_11_26detail19json_sax_dom_parserINS0_10basic_jsonINSt3__13mapENS4_6vectorENS4_12basic_stringIcNS4_11char_traitsIcEENS4_9allocatorIcEEEEbxydSA_NS0_14adl_serializerENS6_IhNSA_IhEEEEEEEC1ERSG_b, symObjAddr: 0x10BF4, symBinAddr: 0x100019D1C, symSize: 0x48 }
  - { offsetInCU: 0x4DD4E, offset: 0x4DD4E, size: 0x8, addend: 0x0, symName: __ZN8nlohmann16json_abi_v3_11_26detail6parserINS0_10basic_jsonINSt3__13mapENS4_6vectorENS4_12basic_stringIcNS4_11char_traitsIcEENS4_9allocatorIcEEEEbxydSA_NS0_14adl_serializerENS6_IhNSA_IhEEEEEENS1_22iterator_input_adapterIPKcEEE18sax_parse_internalINS1_19json_sax_dom_parserISG_EEEEbPT_, symObjAddr: 0x10C3C, symBinAddr: 0x100019D64, symSize: 0x13B0 }
  - { offsetInCU: 0x4DDC8, offset: 0x4DDC8, size: 0x8, addend: 0x0, symName: __ZN8nlohmann16json_abi_v3_11_26detail19json_sax_dom_parserINS0_10basic_jsonINSt3__13mapENS4_6vectorENS4_12basic_stringIcNS4_11char_traitsIcEENS4_9allocatorIcEEEEbxydSA_NS0_14adl_serializerENS6_IhNSA_IhEEEEEEE11parse_errorINS1_11parse_errorEEEbmRKSC_RKT_, symObjAddr: 0x12030, symBinAddr: 0x10001B158, symSize: 0x74 }
  - { offsetInCU: 0x4DE1B, offset: 0x4DE1B, size: 0x8, addend: 0x0, symName: __ZNK8nlohmann16json_abi_v3_11_26detail19json_sax_dom_parserINS0_10basic_jsonINSt3__13mapENS4_6vectorENS4_12basic_stringIcNS4_11char_traitsIcEENS4_9allocatorIcEEEEbxydSA_NS0_14adl_serializerENS6_IhNSA_IhEEEEEEE10is_erroredEv, symObjAddr: 0x120A4, symBinAddr: 0x10001B1CC, symSize: 0x1C }
  - { offsetInCU: 0x4DE40, offset: 0x4DE40, size: 0x8, addend: 0x0, symName: __ZN8nlohmann16json_abi_v3_11_26detail19json_sax_dom_parserINS0_10basic_jsonINSt3__13mapENS4_6vectorENS4_12basic_stringIcNS4_11char_traitsIcEENS4_9allocatorIcEEEEbxydSA_NS0_14adl_serializerENS6_IhNSA_IhEEEEEEED1Ev, symObjAddr: 0x120C0, symBinAddr: 0x10001B1E8, symSize: 0x2C }
  - { offsetInCU: 0x4DE69, offset: 0x4DE69, size: 0x8, addend: 0x0, symName: __ZNKSt3__110__function12__value_funcIFbiN8nlohmann16json_abi_v3_11_26detail13parse_event_tERNS3_10basic_jsonINS_3mapENS_6vectorENS_12basic_stringIcNS_11char_traitsIcEENS_9allocatorIcEEEEbxydSC_NS3_14adl_serializerENS8_IhNSC_IhEEEEEEEEcvbB7v160006Ev, symObjAddr: 0x120EC, symBinAddr: 0x10001B214, symSize: 0x24 }
  - { offsetInCU: 0x4DE8E, offset: 0x4DE8E, size: 0x8, addend: 0x0, symName: __ZN8nlohmann16json_abi_v3_11_26detail28json_sax_dom_callback_parserINS0_10basic_jsonINSt3__13mapENS4_6vectorENS4_12basic_stringIcNS4_11char_traitsIcEENS4_9allocatorIcEEEEbxydSA_NS0_14adl_serializerENS6_IhNSA_IhEEEEEEEC2ERSG_NS4_8functionIFbiNS1_13parse_event_tESI_EEEb, symObjAddr: 0x12110, symBinAddr: 0x10001B238, symSize: 0x13C }
  - { offsetInCU: 0x4DEE5, offset: 0x4DEE5, size: 0x8, addend: 0x0, symName: __ZNSt3__16vectorIPN8nlohmann16json_abi_v3_11_210basic_jsonINS_3mapES0_NS_12basic_stringIcNS_11char_traitsIcEENS_9allocatorIcEEEEbxydS8_NS2_14adl_serializerENS0_IhNS8_IhEEEEEENS8_ISF_EEEC1B7v160006Ev, symObjAddr: 0x1224C, symBinAddr: 0x10001B374, symSize: 0x2C }
  - { offsetInCU: 0x4DF0E, offset: 0x4DF0E, size: 0x8, addend: 0x0, symName: __ZNSt3__16vectorIbNS_9allocatorIbEEEC1B7v160006Ev, symObjAddr: 0x12278, symBinAddr: 0x10001B3A0, symSize: 0x2C }
  - { offsetInCU: 0x4DF39, offset: 0x4DF39, size: 0x8, addend: 0x0, symName: __ZNSt3__16vectorIbNS_9allocatorIbEEE9push_backERKb, symObjAddr: 0x122A4, symBinAddr: 0x10001B3CC, symSize: 0xA4 }
  - { offsetInCU: 0x4DF6F, offset: 0x4DF6F, size: 0x8, addend: 0x0, symName: __ZNSt3__16vectorIbNS_9allocatorIbEEED1B7v160006Ev, symObjAddr: 0x12348, symBinAddr: 0x10001B470, symSize: 0x2C }
  - { offsetInCU: 0x4DF98, offset: 0x4DF98, size: 0x8, addend: 0x0, symName: __ZNSt3__16vectorIPN8nlohmann16json_abi_v3_11_210basic_jsonINS_3mapES0_NS_12basic_stringIcNS_11char_traitsIcEENS_9allocatorIcEEEEbxydS8_NS2_14adl_serializerENS0_IhNS8_IhEEEEEENS8_ISF_EEED1B7v160006Ev, symObjAddr: 0x12374, symBinAddr: 0x10001B49C, symSize: 0x2C }
  - { offsetInCU: 0x4DFC1, offset: 0x4DFC1, size: 0x8, addend: 0x0, symName: __ZNSt3__16vectorIPN8nlohmann16json_abi_v3_11_210basic_jsonINS_3mapES0_NS_12basic_stringIcNS_11char_traitsIcEENS_9allocatorIcEEEEbxydS8_NS2_14adl_serializerENS0_IhNS8_IhEEEEEENS8_ISF_EEEC2B7v160006Ev, symObjAddr: 0x123A0, symBinAddr: 0x10001B4C8, symSize: 0x58 }
  - { offsetInCU: 0x4DFEA, offset: 0x4DFEA, size: 0x8, addend: 0x0, symName: __ZNSt3__117__compressed_pairIPPN8nlohmann16json_abi_v3_11_210basic_jsonINS_3mapENS_6vectorENS_12basic_stringIcNS_11char_traitsIcEENS_9allocatorIcEEEEbxydS9_NS2_14adl_serializerENS5_IhNS9_IhEEEEEENS9_ISG_EEEC1B7v160006IDnNS_18__default_init_tagEEEOT_OT0_, symObjAddr: 0x123F8, symBinAddr: 0x10001B520, symSize: 0x3C }
  - { offsetInCU: 0x4E041, offset: 0x4E041, size: 0x8, addend: 0x0, symName: __ZNSt3__117__compressed_pairIPPN8nlohmann16json_abi_v3_11_210basic_jsonINS_3mapENS_6vectorENS_12basic_stringIcNS_11char_traitsIcEENS_9allocatorIcEEEEbxydS9_NS2_14adl_serializerENS5_IhNS9_IhEEEEEENS9_ISG_EEEC2B7v160006IDnNS_18__default_init_tagEEEOT_OT0_, symObjAddr: 0x12444, symBinAddr: 0x10001B56C, symSize: 0x40 }
  - { offsetInCU: 0x4E098, offset: 0x4E098, size: 0x8, addend: 0x0, symName: __ZNSt3__122__compressed_pair_elemIPPN8nlohmann16json_abi_v3_11_210basic_jsonINS_3mapENS_6vectorENS_12basic_stringIcNS_11char_traitsIcEENS_9allocatorIcEEEEbxydS9_NS2_14adl_serializerENS5_IhNS9_IhEEEEEELi0ELb0EEC2B7v160006IDnvEEOT_, symObjAddr: 0x12484, symBinAddr: 0x10001B5AC, symSize: 0x1C }
  - { offsetInCU: 0x4E0DA, offset: 0x4E0DA, size: 0x8, addend: 0x0, symName: __ZNSt3__122__compressed_pair_elemINS_9allocatorIPN8nlohmann16json_abi_v3_11_210basic_jsonINS_3mapENS_6vectorENS_12basic_stringIcNS_11char_traitsIcEENS1_IcEEEEbxydS1_NS3_14adl_serializerENS6_IhNS1_IhEEEEEEEELi1ELb1EEC2B7v160006ENS_18__default_init_tagE, symObjAddr: 0x124A0, symBinAddr: 0x10001B5C8, symSize: 0x2C }
  - { offsetInCU: 0x4E10E, offset: 0x4E10E, size: 0x8, addend: 0x0, symName: __ZNSt3__19allocatorIPN8nlohmann16json_abi_v3_11_210basic_jsonINS_3mapENS_6vectorENS_12basic_stringIcNS_11char_traitsIcEENS0_IcEEEEbxydS0_NS2_14adl_serializerENS5_IhNS0_IhEEEEEEEC2B7v160006Ev, symObjAddr: 0x124CC, symBinAddr: 0x10001B5F4, symSize: 0x2C }
  - { offsetInCU: 0x4E137, offset: 0x4E137, size: 0x8, addend: 0x0, symName: __ZNSt3__116__non_trivial_ifILb1ENS_9allocatorIPN8nlohmann16json_abi_v3_11_210basic_jsonINS_3mapENS_6vectorENS_12basic_stringIcNS_11char_traitsIcEENS1_IcEEEEbxydS1_NS3_14adl_serializerENS6_IhNS1_IhEEEEEEEEEC2B7v160006Ev, symObjAddr: 0x124F8, symBinAddr: 0x10001B620, symSize: 0x14 }
  - { offsetInCU: 0x4E160, offset: 0x4E160, size: 0x8, addend: 0x0, symName: __ZNSt3__16vectorIbNS_9allocatorIbEEEC2B7v160006Ev, symObjAddr: 0x1250C, symBinAddr: 0x10001B634, symSize: 0x4C }
  - { offsetInCU: 0x4E18B, offset: 0x4E18B, size: 0x8, addend: 0x0, symName: __ZNSt3__117__compressed_pairImNS_9allocatorImEEEC1B7v160006IiNS_18__default_init_tagEEEOT_OT0_, symObjAddr: 0x12558, symBinAddr: 0x10001B680, symSize: 0x3C }
  - { offsetInCU: 0x4E1E2, offset: 0x4E1E2, size: 0x8, addend: 0x0, symName: __ZNSt3__117__compressed_pairImNS_9allocatorImEEEC2B7v160006IiNS_18__default_init_tagEEEOT_OT0_, symObjAddr: 0x12594, symBinAddr: 0x10001B6BC, symSize: 0x40 }
  - { offsetInCU: 0x4E239, offset: 0x4E239, size: 0x8, addend: 0x0, symName: __ZNSt3__122__compressed_pair_elemINS_9allocatorImEELi1ELb1EEC2B7v160006ENS_18__default_init_tagE, symObjAddr: 0x125D4, symBinAddr: 0x10001B6FC, symSize: 0x2C }
  - { offsetInCU: 0x4E26D, offset: 0x4E26D, size: 0x8, addend: 0x0, symName: __ZNSt3__19allocatorImEC2B7v160006Ev, symObjAddr: 0x12600, symBinAddr: 0x10001B728, symSize: 0x2C }
  - { offsetInCU: 0x4E296, offset: 0x4E296, size: 0x8, addend: 0x0, symName: __ZNSt3__116__non_trivial_ifILb1ENS_9allocatorImEEEC2B7v160006Ev, symObjAddr: 0x1262C, symBinAddr: 0x10001B754, symSize: 0x14 }
  - { offsetInCU: 0x4E2BE, offset: 0x4E2BE, size: 0x8, addend: 0x0, symName: __ZNKSt3__16vectorIbNS_9allocatorIbEEE8capacityB7v160006Ev, symObjAddr: 0x12640, symBinAddr: 0x10001B768, symSize: 0x2C }
  - { offsetInCU: 0x4E2E3, offset: 0x4E2E3, size: 0x8, addend: 0x0, symName: __ZNSt3__16vectorIbNS_9allocatorIbEEE7reserveEm, symObjAddr: 0x1266C, symBinAddr: 0x10001B794, symSize: 0x114 }
  - { offsetInCU: 0x4E32F, offset: 0x4E32F, size: 0x8, addend: 0x0, symName: __ZNKSt3__16vectorIbNS_9allocatorIbEEE11__recommendB7v160006Em, symObjAddr: 0x12780, symBinAddr: 0x10001B8A8, symSize: 0xCC }
  - { offsetInCU: 0x4E382, offset: 0x4E382, size: 0x8, addend: 0x0, symName: __ZNSt3__16vectorIbNS_9allocatorIbEEE4backB7v160006Ev, symObjAddr: 0x1284C, symBinAddr: 0x10001B974, symSize: 0x3C }
  - { offsetInCU: 0x4E3A7, offset: 0x4E3A7, size: 0x8, addend: 0x0, symName: __ZNSt3__115__bit_referenceINS_6vectorIbNS_9allocatorIbEEEELb1EEaSB7v160006Eb, symObjAddr: 0x12888, symBinAddr: 0x10001B9B0, symSize: 0x6C }
  - { offsetInCU: 0x4E3DA, offset: 0x4E3DA, size: 0x8, addend: 0x0, symName: __ZNSt3__16vectorIbNS_9allocatorIbEEE26__internal_cap_to_externalB7v160006Em, symObjAddr: 0x128F4, symBinAddr: 0x10001BA1C, symSize: 0x18 }
  - { offsetInCU: 0x4E3FD, offset: 0x4E3FD, size: 0x8, addend: 0x0, symName: __ZNKSt3__16vectorIbNS_9allocatorIbEEE5__capB7v160006Ev, symObjAddr: 0x1290C, symBinAddr: 0x10001BA34, symSize: 0x28 }
  - { offsetInCU: 0x4E421, offset: 0x4E421, size: 0x8, addend: 0x0, symName: __ZNKSt3__117__compressed_pairImNS_9allocatorImEEE5firstB7v160006Ev, symObjAddr: 0x12934, symBinAddr: 0x10001BA5C, symSize: 0x24 }
  - { offsetInCU: 0x4E446, offset: 0x4E446, size: 0x8, addend: 0x0, symName: __ZNKSt3__122__compressed_pair_elemImLi0ELb0EE5__getB7v160006Ev, symObjAddr: 0x12958, symBinAddr: 0x10001BA80, symSize: 0x14 }
  - { offsetInCU: 0x4E46B, offset: 0x4E46B, size: 0x8, addend: 0x0, symName: __ZNKSt3__16vectorIbNS_9allocatorIbEEE8max_sizeEv, symObjAddr: 0x1296C, symBinAddr: 0x10001BA94, symSize: 0x7C }
  - { offsetInCU: 0x4E4AF, offset: 0x4E4AF, size: 0x8, addend: 0x0, symName: __ZNKSt3__16vectorIbNS_9allocatorIbEEE20__throw_length_errorB7v160006Ev, symObjAddr: 0x129E8, symBinAddr: 0x10001BB10, symSize: 0x1C }
  - { offsetInCU: 0x4E4D3, offset: 0x4E4D3, size: 0x8, addend: 0x0, symName: __ZNKSt3__16vectorIbNS_9allocatorIbEEE13get_allocatorB7v160006Ev, symObjAddr: 0x12A04, symBinAddr: 0x10001BB2C, symSize: 0x30 }
  - { offsetInCU: 0x4E4F8, offset: 0x4E4F8, size: 0x8, addend: 0x0, symName: __ZNSt3__16vectorIbNS_9allocatorIbEEEC1B7v160006ERKS2_, symObjAddr: 0x12A34, symBinAddr: 0x10001BB5C, symSize: 0x34 }
  - { offsetInCU: 0x4E531, offset: 0x4E531, size: 0x8, addend: 0x0, symName: __ZNSt3__16vectorIbNS_9allocatorIbEEE11__vallocateB7v160006Em, symObjAddr: 0x12A68, symBinAddr: 0x10001BB90, symSize: 0xA0 }
  - { offsetInCU: 0x4E574, offset: 0x4E574, size: 0x8, addend: 0x0, symName: __ZNSt3__16vectorIbNS_9allocatorIbEEE18__construct_at_endINS_14__bit_iteratorIS3_Lb0ELm0EEEEENS_9enable_ifIXsr27__is_cpp17_forward_iteratorIT_EE5valueEvE4typeES8_S8_, symObjAddr: 0x12B08, symBinAddr: 0x10001BC30, symSize: 0x154 }
  - { offsetInCU: 0x4E5D2, offset: 0x4E5D2, size: 0x8, addend: 0x0, symName: __ZNSt3__16vectorIbNS_9allocatorIbEEE5beginB7v160006Ev, symObjAddr: 0x12C5C, symBinAddr: 0x10001BD84, symSize: 0x30 }
  - { offsetInCU: 0x4E5F6, offset: 0x4E5F6, size: 0x8, addend: 0x0, symName: __ZNSt3__16vectorIbNS_9allocatorIbEEE3endB7v160006Ev, symObjAddr: 0x12C8C, symBinAddr: 0x10001BDB4, symSize: 0x30 }
  - { offsetInCU: 0x4E61B, offset: 0x4E61B, size: 0x8, addend: 0x0, symName: __ZNSt3__16vectorIbNS_9allocatorIbEEE4swapERS3_, symObjAddr: 0x12CBC, symBinAddr: 0x10001BDE4, symSize: 0x84 }
  - { offsetInCU: 0x4E65B, offset: 0x4E65B, size: 0x8, addend: 0x0, symName: __ZNSt3__116allocator_traitsINS_9allocatorImEEE8max_sizeB7v160006IS2_vEEmRKS2_, symObjAddr: 0x12D50, symBinAddr: 0x10001BE78, symSize: 0x24 }
  - { offsetInCU: 0x4E689, offset: 0x4E689, size: 0x8, addend: 0x0, symName: __ZNKSt3__16vectorIbNS_9allocatorIbEEE7__allocB7v160006Ev, symObjAddr: 0x12D74, symBinAddr: 0x10001BE9C, symSize: 0x28 }
  - { offsetInCU: 0x4E6AE, offset: 0x4E6AE, size: 0x8, addend: 0x0, symName: __ZNSt3__114numeric_limitsImE3maxB7v160006Ev, symObjAddr: 0x12D9C, symBinAddr: 0x10001BEC4, symSize: 0x14 }
  - { offsetInCU: 0x4E6C2, offset: 0x4E6C2, size: 0x8, addend: 0x0, symName: __ZNKSt3__19allocatorImE8max_sizeB7v160006Ev, symObjAddr: 0x12DB0, symBinAddr: 0x10001BED8, symSize: 0x14 }
  - { offsetInCU: 0x4E6E6, offset: 0x4E6E6, size: 0x8, addend: 0x0, symName: __ZNKSt3__117__compressed_pairImNS_9allocatorImEEE6secondB7v160006Ev, symObjAddr: 0x12DC4, symBinAddr: 0x10001BEEC, symSize: 0x24 }
  - { offsetInCU: 0x4E70B, offset: 0x4E70B, size: 0x8, addend: 0x0, symName: __ZNKSt3__122__compressed_pair_elemINS_9allocatorImEELi1ELb1EE5__getB7v160006Ev, symObjAddr: 0x12DE8, symBinAddr: 0x10001BF10, symSize: 0x14 }
  - { offsetInCU: 0x4E730, offset: 0x4E730, size: 0x8, addend: 0x0, symName: __ZNSt3__123__libcpp_numeric_limitsImLb1EE3maxB7v160006Ev, symObjAddr: 0x12DFC, symBinAddr: 0x10001BF24, symSize: 0x8 }
  - { offsetInCU: 0x4E744, offset: 0x4E744, size: 0x8, addend: 0x0, symName: __ZNSt3__19allocatorIbEC1B7v160006ImEERKNS0_IT_EE, symObjAddr: 0x12E04, symBinAddr: 0x10001BF2C, symSize: 0x34 }
  - { offsetInCU: 0x4E781, offset: 0x4E781, size: 0x8, addend: 0x0, symName: __ZNSt3__19allocatorIbEC2B7v160006ImEERKNS0_IT_EE, symObjAddr: 0x12E38, symBinAddr: 0x10001BF60, symSize: 0x30 }
  - { offsetInCU: 0x4E7BE, offset: 0x4E7BE, size: 0x8, addend: 0x0, symName: __ZNSt3__116__non_trivial_ifILb1ENS_9allocatorIbEEEC2B7v160006Ev, symObjAddr: 0x12E68, symBinAddr: 0x10001BF90, symSize: 0x14 }
  - { offsetInCU: 0x4E7E7, offset: 0x4E7E7, size: 0x8, addend: 0x0, symName: __ZNSt3__16vectorIbNS_9allocatorIbEEEC2B7v160006ERKS2_, symObjAddr: 0x12E7C, symBinAddr: 0x10001BFA4, symSize: 0x6C }
  - { offsetInCU: 0x4E826, offset: 0x4E826, size: 0x8, addend: 0x0, symName: __ZNSt3__19allocatorImEC1B7v160006IbEERKNS0_IT_EE, symObjAddr: 0x12EE8, symBinAddr: 0x10001C010, symSize: 0x34 }
  - { offsetInCU: 0x4E869, offset: 0x4E869, size: 0x8, addend: 0x0, symName: __ZNSt3__117__compressed_pairImNS_9allocatorImEEEC1B7v160006IiS2_EEOT_OT0_, symObjAddr: 0x12F1C, symBinAddr: 0x10001C044, symSize: 0x3C }
  - { offsetInCU: 0x4E8C0, offset: 0x4E8C0, size: 0x8, addend: 0x0, symName: __ZNSt3__19allocatorImEC2B7v160006IbEERKNS0_IT_EE, symObjAddr: 0x12F58, symBinAddr: 0x10001C080, symSize: 0x30 }
  - { offsetInCU: 0x4E8FD, offset: 0x4E8FD, size: 0x8, addend: 0x0, symName: __ZNSt3__117__compressed_pairImNS_9allocatorImEEEC2B7v160006IiS2_EEOT_OT0_, symObjAddr: 0x12F88, symBinAddr: 0x10001C0B0, symSize: 0x44 }
  - { offsetInCU: 0x4E954, offset: 0x4E954, size: 0x8, addend: 0x0, symName: __ZNSt3__122__compressed_pair_elemINS_9allocatorImEELi1ELb1EEC2B7v160006IS2_vEEOT_, symObjAddr: 0x12FCC, symBinAddr: 0x10001C0F4, symSize: 0x18 }
  - { offsetInCU: 0x4E995, offset: 0x4E995, size: 0x8, addend: 0x0, symName: __ZNSt3__16vectorIbNS_9allocatorIbEEE7__allocB7v160006Ev, symObjAddr: 0x13024, symBinAddr: 0x10001C14C, symSize: 0x28 }
  - { offsetInCU: 0x4E9BA, offset: 0x4E9BA, size: 0x8, addend: 0x0, symName: __ZNSt3__16vectorIbNS_9allocatorIbEEE26__external_cap_to_internalB7v160006Em, symObjAddr: 0x1304C, symBinAddr: 0x10001C174, symSize: 0x24 }
  - { offsetInCU: 0x4E9DD, offset: 0x4E9DD, size: 0x8, addend: 0x0, symName: __ZNSt3__16vectorIbNS_9allocatorIbEEE5__capB7v160006Ev, symObjAddr: 0x13070, symBinAddr: 0x10001C198, symSize: 0x28 }
  - { offsetInCU: 0x4EA01, offset: 0x4EA01, size: 0x8, addend: 0x0, symName: __ZNSt3__19allocatorImE8allocateB7v160006Em, symObjAddr: 0x13098, symBinAddr: 0x10001C1C0, symSize: 0x58 }
  - { offsetInCU: 0x4EA33, offset: 0x4EA33, size: 0x8, addend: 0x0, symName: __ZNSt3__117__compressed_pairImNS_9allocatorImEEE6secondB7v160006Ev, symObjAddr: 0x130F0, symBinAddr: 0x10001C218, symSize: 0x24 }
  - { offsetInCU: 0x4EA58, offset: 0x4EA58, size: 0x8, addend: 0x0, symName: __ZNSt3__122__compressed_pair_elemINS_9allocatorImEELi1ELb1EE5__getB7v160006Ev, symObjAddr: 0x13114, symBinAddr: 0x10001C23C, symSize: 0x14 }
  - { offsetInCU: 0x4EA7C, offset: 0x4EA7C, size: 0x8, addend: 0x0, symName: __ZNSt3__117__compressed_pairImNS_9allocatorImEEE5firstB7v160006Ev, symObjAddr: 0x13128, symBinAddr: 0x10001C250, symSize: 0x24 }
  - { offsetInCU: 0x4EAA1, offset: 0x4EAA1, size: 0x8, addend: 0x0, symName: __ZNSt3__122__compressed_pair_elemImLi0ELb0EE5__getB7v160006Ev, symObjAddr: 0x1314C, symBinAddr: 0x10001C274, symSize: 0x14 }
  - { offsetInCU: 0x4EAC6, offset: 0x4EAC6, size: 0x8, addend: 0x0, symName: __ZNSt3__114__bit_iteratorINS_6vectorIbNS_9allocatorIbEEEELb0ELm0EEC1B7v160006ERKS5_, symObjAddr: 0x131BC, symBinAddr: 0x10001C2E4, symSize: 0x34 }
  - { offsetInCU: 0x4EAFD, offset: 0x4EAFD, size: 0x8, addend: 0x0, symName: __ZNSt3__16vectorIbNS_9allocatorIbEEE11__make_iterB7v160006Em, symObjAddr: 0x132D8, symBinAddr: 0x10001C400, symSize: 0x64 }
  - { offsetInCU: 0x4EB31, offset: 0x4EB31, size: 0x8, addend: 0x0, symName: __ZNSt3__114__bit_iteratorINS_6vectorIbNS_9allocatorIbEEEELb0ELm0EEC2B7v160006ERKS5_, symObjAddr: 0x133BC, symBinAddr: 0x10001C4E4, symSize: 0x30 }
  - { offsetInCU: 0x4EB7D, offset: 0x4EB7D, size: 0x8, addend: 0x0, symName: __ZNKSt3__16__lessIllEclB7v160006ERKlS3_, symObjAddr: 0x13C7C, symBinAddr: 0x10001CDA4, symSize: 0x34 }
  - { offsetInCU: 0x4EBE1, offset: 0x4EBE1, size: 0x8, addend: 0x0, symName: __ZNKSt3__114__copy_trivialclB7v160006ImmLi0EEENS_4pairIPT_PT0_EES4_S4_S6_, symObjAddr: 0x13E8C, symBinAddr: 0x10001CFB4, symSize: 0x48 }
  - { offsetInCU: 0x4EC53, offset: 0x4EC53, size: 0x8, addend: 0x0, symName: __ZNSt3__14pairIPmS1_EC1B7v160006IRS1_S1_LPv0EEEOT_OT0_, symObjAddr: 0x14054, symBinAddr: 0x10001D17C, symSize: 0x3C }
  - { offsetInCU: 0x4ECB0, offset: 0x4ECB0, size: 0x8, addend: 0x0, symName: __ZNSt3__14pairIPmS1_EC2B7v160006IRS1_S1_LPv0EEEOT_OT0_, symObjAddr: 0x14090, symBinAddr: 0x10001D1B8, symSize: 0x34 }
  - { offsetInCU: 0x4ED0D, offset: 0x4ED0D, size: 0x8, addend: 0x0, symName: __ZNSt3__118__unwrap_iter_implIPmLb1EE8__unwrapB7v160006ES1_, symObjAddr: 0x140C4, symBinAddr: 0x10001D1EC, symSize: 0x24 }
  - { offsetInCU: 0x4ED30, offset: 0x4ED30, size: 0x8, addend: 0x0, symName: __ZNSt3__14pairIPmS1_EC1B7v160006IS1_S1_LPv0EEEOT_OT0_, symObjAddr: 0x140E8, symBinAddr: 0x10001D210, symSize: 0x3C }
  - { offsetInCU: 0x4ED8D, offset: 0x4ED8D, size: 0x8, addend: 0x0, symName: __ZNSt3__14pairIPmS1_EC2B7v160006IS1_S1_LPv0EEEOT_OT0_, symObjAddr: 0x14124, symBinAddr: 0x10001D24C, symSize: 0x34 }
  - { offsetInCU: 0x4EDEA, offset: 0x4EDEA, size: 0x8, addend: 0x0, symName: __ZNSt3__118__unwrap_iter_implIPmLb1EE8__rewrapB7v160006ES1_S1_, symObjAddr: 0x14158, symBinAddr: 0x10001D280, symSize: 0x50 }
  - { offsetInCU: 0x4EE1B, offset: 0x4EE1B, size: 0x8, addend: 0x0, symName: __ZNSt3__114__bit_iteratorINS_6vectorIbNS_9allocatorIbEEEELb0ELm0EEC1B7v160006EPmj, symObjAddr: 0x141A8, symBinAddr: 0x10001D2D0, symSize: 0x3C }
  - { offsetInCU: 0x4EE62, offset: 0x4EE62, size: 0x8, addend: 0x0, symName: __ZNSt3__114__bit_iteratorINS_6vectorIbNS_9allocatorIbEEEELb0ELm0EEC2B7v160006EPmj, symObjAddr: 0x141E4, symBinAddr: 0x10001D30C, symSize: 0x2C }
  - { offsetInCU: 0x4EEA9, offset: 0x4EEA9, size: 0x8, addend: 0x0, symName: __ZNSt3__16vectorIbNS_9allocatorIbEEE10__align_itB7v160006Em, symObjAddr: 0x1429C, symBinAddr: 0x10001D3C4, symSize: 0x1C }
  - { offsetInCU: 0x4EECC, offset: 0x4EECC, size: 0x8, addend: 0x0, symName: __ZNSt3__16vectorIbNS_9allocatorIbEEE10__make_refB7v160006Em, symObjAddr: 0x142B8, symBinAddr: 0x10001D3E0, symSize: 0x60 }
  - { offsetInCU: 0x4EF00, offset: 0x4EF00, size: 0x8, addend: 0x0, symName: __ZNSt3__115__bit_referenceINS_6vectorIbNS_9allocatorIbEEEELb1EEC1B7v160006EPmm, symObjAddr: 0x14318, symBinAddr: 0x10001D440, symSize: 0x3C }
  - { offsetInCU: 0x4EF45, offset: 0x4EF45, size: 0x8, addend: 0x0, symName: __ZNSt3__115__bit_referenceINS_6vectorIbNS_9allocatorIbEEEELb1EEC2B7v160006EPmm, symObjAddr: 0x14354, symBinAddr: 0x10001D47C, symSize: 0x2C }
  - { offsetInCU: 0x4EF8A, offset: 0x4EF8A, size: 0x8, addend: 0x0, symName: __ZNSt3__16vectorIbNS_9allocatorIbEEED2B7v160006Ev, symObjAddr: 0x14380, symBinAddr: 0x10001D4A8, symSize: 0x44 }
  - { offsetInCU: 0x4EFB3, offset: 0x4EFB3, size: 0x8, addend: 0x0, symName: __ZNSt3__16vectorIbNS_9allocatorIbEEE16__destroy_vectorC1ERS3_, symObjAddr: 0x143C4, symBinAddr: 0x10001D4EC, symSize: 0x34 }
  - { offsetInCU: 0x4EFEA, offset: 0x4EFEA, size: 0x8, addend: 0x0, symName: __ZNSt3__16vectorIbNS_9allocatorIbEEE16__destroy_vectorclB7v160006Ev, symObjAddr: 0x143F8, symBinAddr: 0x10001D520, symSize: 0x84 }
  - { offsetInCU: 0x4F00F, offset: 0x4F00F, size: 0x8, addend: 0x0, symName: __ZNSt3__16vectorIbNS_9allocatorIbEEE16__destroy_vectorC2ERS3_, symObjAddr: 0x1447C, symBinAddr: 0x10001D5A4, symSize: 0x20 }
  - { offsetInCU: 0x4F047, offset: 0x4F047, size: 0x8, addend: 0x0, symName: __ZNSt3__116allocator_traitsINS_9allocatorImEEE10deallocateB7v160006ERS2_Pmm, symObjAddr: 0x1449C, symBinAddr: 0x10001D5C4, symSize: 0x34 }
  - { offsetInCU: 0x4F088, offset: 0x4F088, size: 0x8, addend: 0x0, symName: __ZNSt3__19allocatorImE10deallocateB7v160006EPmm, symObjAddr: 0x144E0, symBinAddr: 0x10001D608, symSize: 0x40 }
  - { offsetInCU: 0x4F0C9, offset: 0x4F0C9, size: 0x8, addend: 0x0, symName: __ZNSt3__16vectorIPN8nlohmann16json_abi_v3_11_210basic_jsonINS_3mapES0_NS_12basic_stringIcNS_11char_traitsIcEENS_9allocatorIcEEEEbxydS8_NS2_14adl_serializerENS0_IhNS8_IhEEEEEENS8_ISF_EEED2B7v160006Ev, symObjAddr: 0x14520, symBinAddr: 0x10001D648, symSize: 0x44 }
  - { offsetInCU: 0x4F0F2, offset: 0x4F0F2, size: 0x8, addend: 0x0, symName: __ZNSt3__16vectorIPN8nlohmann16json_abi_v3_11_210basic_jsonINS_3mapES0_NS_12basic_stringIcNS_11char_traitsIcEENS_9allocatorIcEEEEbxydS8_NS2_14adl_serializerENS0_IhNS8_IhEEEEEENS8_ISF_EEE16__destroy_vectorC1ERSH_, symObjAddr: 0x14564, symBinAddr: 0x10001D68C, symSize: 0x34 }
  - { offsetInCU: 0x4F129, offset: 0x4F129, size: 0x8, addend: 0x0, symName: __ZNSt3__16vectorIPN8nlohmann16json_abi_v3_11_210basic_jsonINS_3mapES0_NS_12basic_stringIcNS_11char_traitsIcEENS_9allocatorIcEEEEbxydS8_NS2_14adl_serializerENS0_IhNS8_IhEEEEEENS8_ISF_EEE16__destroy_vectorclB7v160006Ev, symObjAddr: 0x14598, symBinAddr: 0x10001D6C0, symSize: 0x9C }
  - { offsetInCU: 0x4F14E, offset: 0x4F14E, size: 0x8, addend: 0x0, symName: __ZNSt3__16vectorIPN8nlohmann16json_abi_v3_11_210basic_jsonINS_3mapES0_NS_12basic_stringIcNS_11char_traitsIcEENS_9allocatorIcEEEEbxydS8_NS2_14adl_serializerENS0_IhNS8_IhEEEEEENS8_ISF_EEE16__destroy_vectorC2ERSH_, symObjAddr: 0x14634, symBinAddr: 0x10001D75C, symSize: 0x20 }
  - { offsetInCU: 0x4F185, offset: 0x4F185, size: 0x8, addend: 0x0, symName: __ZNKSt3__16vectorIPN8nlohmann16json_abi_v3_11_210basic_jsonINS_3mapES0_NS_12basic_stringIcNS_11char_traitsIcEENS_9allocatorIcEEEEbxydS8_NS2_14adl_serializerENS0_IhNS8_IhEEEEEENS8_ISF_EEE17__annotate_deleteB7v160006Ev, symObjAddr: 0x14654, symBinAddr: 0x10001D77C, symSize: 0xB8 }
  - { offsetInCU: 0x4F1A9, offset: 0x4F1A9, size: 0x8, addend: 0x0, symName: __ZNSt3__16vectorIPN8nlohmann16json_abi_v3_11_210basic_jsonINS_3mapES0_NS_12basic_stringIcNS_11char_traitsIcEENS_9allocatorIcEEEEbxydS8_NS2_14adl_serializerENS0_IhNS8_IhEEEEEENS8_ISF_EEE7__clearB7v160006Ev, symObjAddr: 0x1471C, symBinAddr: 0x10001D844, symSize: 0x28 }
  - { offsetInCU: 0x4F1CE, offset: 0x4F1CE, size: 0x8, addend: 0x0, symName: __ZNSt3__116allocator_traitsINS_9allocatorIPN8nlohmann16json_abi_v3_11_210basic_jsonINS_3mapENS_6vectorENS_12basic_stringIcNS_11char_traitsIcEENS1_IcEEEEbxydS1_NS3_14adl_serializerENS6_IhNS1_IhEEEEEEEEE10deallocateB7v160006ERSH_PSG_m, symObjAddr: 0x14744, symBinAddr: 0x10001D86C, symSize: 0x34 }
  - { offsetInCU: 0x4F20F, offset: 0x4F20F, size: 0x8, addend: 0x0, symName: __ZNSt3__16vectorIPN8nlohmann16json_abi_v3_11_210basic_jsonINS_3mapES0_NS_12basic_stringIcNS_11char_traitsIcEENS_9allocatorIcEEEEbxydS8_NS2_14adl_serializerENS0_IhNS8_IhEEEEEENS8_ISF_EEE7__allocB7v160006Ev, symObjAddr: 0x14778, symBinAddr: 0x10001D8A0, symSize: 0x28 }
  - { offsetInCU: 0x4F233, offset: 0x4F233, size: 0x8, addend: 0x0, symName: __ZNKSt3__16vectorIPN8nlohmann16json_abi_v3_11_210basic_jsonINS_3mapES0_NS_12basic_stringIcNS_11char_traitsIcEENS_9allocatorIcEEEEbxydS8_NS2_14adl_serializerENS0_IhNS8_IhEEEEEENS8_ISF_EEE8capacityB7v160006Ev, symObjAddr: 0x147A0, symBinAddr: 0x10001D8C8, symSize: 0x40 }
  - { offsetInCU: 0x4F258, offset: 0x4F258, size: 0x8, addend: 0x0, symName: __ZNKSt3__16vectorIPN8nlohmann16json_abi_v3_11_210basic_jsonINS_3mapES0_NS_12basic_stringIcNS_11char_traitsIcEENS_9allocatorIcEEEEbxydS8_NS2_14adl_serializerENS0_IhNS8_IhEEEEEENS8_ISF_EEE31__annotate_contiguous_containerB7v160006EPKvSJ_SJ_SJ_, symObjAddr: 0x147E0, symBinAddr: 0x10001D908, symSize: 0x20 }
  - { offsetInCU: 0x4F2A8, offset: 0x4F2A8, size: 0x8, addend: 0x0, symName: __ZNKSt3__16vectorIPN8nlohmann16json_abi_v3_11_210basic_jsonINS_3mapES0_NS_12basic_stringIcNS_11char_traitsIcEENS_9allocatorIcEEEEbxydS8_NS2_14adl_serializerENS0_IhNS8_IhEEEEEENS8_ISF_EEE4dataB7v160006Ev, symObjAddr: 0x14800, symBinAddr: 0x10001D928, symSize: 0x28 }
  - { offsetInCU: 0x4F2CD, offset: 0x4F2CD, size: 0x8, addend: 0x0, symName: __ZNKSt3__16vectorIPN8nlohmann16json_abi_v3_11_210basic_jsonINS_3mapES0_NS_12basic_stringIcNS_11char_traitsIcEENS_9allocatorIcEEEEbxydS8_NS2_14adl_serializerENS0_IhNS8_IhEEEEEENS8_ISF_EEE4sizeB7v160006Ev, symObjAddr: 0x14828, symBinAddr: 0x10001D950, symSize: 0x28 }
  - { offsetInCU: 0x4F2F1, offset: 0x4F2F1, size: 0x8, addend: 0x0, symName: __ZNSt3__16vectorIPN8nlohmann16json_abi_v3_11_210basic_jsonINS_3mapES0_NS_12basic_stringIcNS_11char_traitsIcEENS_9allocatorIcEEEEbxydS8_NS2_14adl_serializerENS0_IhNS8_IhEEEEEENS8_ISF_EEE22__base_destruct_at_endB7v160006EPSF_, symObjAddr: 0x14864, symBinAddr: 0x10001D98C, symSize: 0x8C }
  - { offsetInCU: 0x4F334, offset: 0x4F334, size: 0x8, addend: 0x0, symName: __ZNSt3__116allocator_traitsINS_9allocatorIPN8nlohmann16json_abi_v3_11_210basic_jsonINS_3mapENS_6vectorENS_12basic_stringIcNS_11char_traitsIcEENS1_IcEEEEbxydS1_NS3_14adl_serializerENS6_IhNS1_IhEEEEEEEEE7destroyB7v160006ISG_vEEvRSH_PT_, symObjAddr: 0x148F0, symBinAddr: 0x10001DA18, symSize: 0x2C }
  - { offsetInCU: 0x4F372, offset: 0x4F372, size: 0x8, addend: 0x0, symName: __ZNSt3__19allocatorIPN8nlohmann16json_abi_v3_11_210basic_jsonINS_3mapENS_6vectorENS_12basic_stringIcNS_11char_traitsIcEENS0_IcEEEEbxydS0_NS2_14adl_serializerENS5_IhNS0_IhEEEEEEE7destroyB7v160006EPSF_, symObjAddr: 0x1491C, symBinAddr: 0x10001DA44, symSize: 0x14 }
  - { offsetInCU: 0x4F3A4, offset: 0x4F3A4, size: 0x8, addend: 0x0, symName: __ZNSt3__19allocatorIPN8nlohmann16json_abi_v3_11_210basic_jsonINS_3mapENS_6vectorENS_12basic_stringIcNS_11char_traitsIcEENS0_IcEEEEbxydS0_NS2_14adl_serializerENS5_IhNS0_IhEEEEEEE10deallocateB7v160006EPSF_m, symObjAddr: 0x14930, symBinAddr: 0x10001DA58, symSize: 0x40 }
  - { offsetInCU: 0x4F3E4, offset: 0x4F3E4, size: 0x8, addend: 0x0, symName: __ZNSt3__117__compressed_pairIPPN8nlohmann16json_abi_v3_11_210basic_jsonINS_3mapENS_6vectorENS_12basic_stringIcNS_11char_traitsIcEENS_9allocatorIcEEEEbxydS9_NS2_14adl_serializerENS5_IhNS9_IhEEEEEENS9_ISG_EEE6secondB7v160006Ev, symObjAddr: 0x14970, symBinAddr: 0x10001DA98, symSize: 0x24 }
  - { offsetInCU: 0x4F409, offset: 0x4F409, size: 0x8, addend: 0x0, symName: __ZNSt3__122__compressed_pair_elemINS_9allocatorIPN8nlohmann16json_abi_v3_11_210basic_jsonINS_3mapENS_6vectorENS_12basic_stringIcNS_11char_traitsIcEENS1_IcEEEEbxydS1_NS3_14adl_serializerENS6_IhNS1_IhEEEEEEEELi1ELb1EE5__getB7v160006Ev, symObjAddr: 0x14994, symBinAddr: 0x10001DABC, symSize: 0x14 }
  - { offsetInCU: 0x4F42D, offset: 0x4F42D, size: 0x8, addend: 0x0, symName: __ZNKSt3__16vectorIPN8nlohmann16json_abi_v3_11_210basic_jsonINS_3mapES0_NS_12basic_stringIcNS_11char_traitsIcEENS_9allocatorIcEEEEbxydS8_NS2_14adl_serializerENS0_IhNS8_IhEEEEEENS8_ISF_EEE9__end_capB7v160006Ev, symObjAddr: 0x149A8, symBinAddr: 0x10001DAD0, symSize: 0x28 }
  - { offsetInCU: 0x4F451, offset: 0x4F451, size: 0x8, addend: 0x0, symName: __ZNKSt3__117__compressed_pairIPPN8nlohmann16json_abi_v3_11_210basic_jsonINS_3mapENS_6vectorENS_12basic_stringIcNS_11char_traitsIcEENS_9allocatorIcEEEEbxydS9_NS2_14adl_serializerENS5_IhNS9_IhEEEEEENS9_ISG_EEE5firstB7v160006Ev, symObjAddr: 0x149D0, symBinAddr: 0x10001DAF8, symSize: 0x24 }
  - { offsetInCU: 0x4F476, offset: 0x4F476, size: 0x8, addend: 0x0, symName: __ZNKSt3__122__compressed_pair_elemIPPN8nlohmann16json_abi_v3_11_210basic_jsonINS_3mapENS_6vectorENS_12basic_stringIcNS_11char_traitsIcEENS_9allocatorIcEEEEbxydS9_NS2_14adl_serializerENS5_IhNS9_IhEEEEEELi0ELb0EE5__getB7v160006Ev, symObjAddr: 0x149F4, symBinAddr: 0x10001DB1C, symSize: 0x14 }
  - { offsetInCU: 0x4F49A, offset: 0x4F49A, size: 0x8, addend: 0x0, symName: __ZN8nlohmann16json_abi_v3_11_26detail28json_sax_dom_callback_parserINS0_10basic_jsonINSt3__13mapENS4_6vectorENS4_12basic_stringIcNS4_11char_traitsIcEENS4_9allocatorIcEEEEbxydSA_NS0_14adl_serializerENS6_IhNSA_IhEEEEEEE12start_objectEm, symObjAddr: 0x14A08, symBinAddr: 0x10001DB30, symSize: 0x224 }
  - { offsetInCU: 0x4F4EB, offset: 0x4F4EB, size: 0x8, addend: 0x0, symName: __ZN8nlohmann16json_abi_v3_11_26detail28json_sax_dom_callback_parserINS0_10basic_jsonINSt3__13mapENS4_6vectorENS4_12basic_stringIcNS4_11char_traitsIcEENS4_9allocatorIcEEEEbxydSA_NS0_14adl_serializerENS6_IhNSA_IhEEEEEEE10end_objectEv, symObjAddr: 0x14C2C, symBinAddr: 0x10001DD54, symSize: 0x270 }
  - { offsetInCU: 0x4F52D, offset: 0x4F52D, size: 0x8, addend: 0x0, symName: __ZN8nlohmann16json_abi_v3_11_26detail28json_sax_dom_callback_parserINS0_10basic_jsonINSt3__13mapENS4_6vectorENS4_12basic_stringIcNS4_11char_traitsIcEENS4_9allocatorIcEEEEbxydSA_NS0_14adl_serializerENS6_IhNSA_IhEEEEEEE3keyERSC_, symObjAddr: 0x14E9C, symBinAddr: 0x10001DFC4, symSize: 0x15C }
  - { offsetInCU: 0x4F57F, offset: 0x4F57F, size: 0x8, addend: 0x0, symName: __ZN8nlohmann16json_abi_v3_11_26detail5lexerINS0_10basic_jsonINSt3__13mapENS4_6vectorENS4_12basic_stringIcNS4_11char_traitsIcEENS4_9allocatorIcEEEEbxydSA_NS0_14adl_serializerENS6_IhNSA_IhEEEEEENS1_22iterator_input_adapterIPKcEEE10get_stringEv, symObjAddr: 0x14FF8, symBinAddr: 0x10001E120, symSize: 0x18 }
  - { offsetInCU: 0x4F5A3, offset: 0x4F5A3, size: 0x8, addend: 0x0, symName: __ZN8nlohmann16json_abi_v3_11_26detail28json_sax_dom_callback_parserINS0_10basic_jsonINSt3__13mapENS4_6vectorENS4_12basic_stringIcNS4_11char_traitsIcEENS4_9allocatorIcEEEEbxydSA_NS0_14adl_serializerENS6_IhNSA_IhEEEEEEE11start_arrayEm, symObjAddr: 0x15010, symBinAddr: 0x10001E138, symSize: 0x224 }
  - { offsetInCU: 0x4F5F4, offset: 0x4F5F4, size: 0x8, addend: 0x0, symName: __ZN8nlohmann16json_abi_v3_11_26detail28json_sax_dom_callback_parserINS0_10basic_jsonINSt3__13mapENS4_6vectorENS4_12basic_stringIcNS4_11char_traitsIcEENS4_9allocatorIcEEEEbxydSA_NS0_14adl_serializerENS6_IhNSA_IhEEEEEEE9end_arrayEv, symObjAddr: 0x15234, symBinAddr: 0x10001E35C, symSize: 0x1E4 }
  - { offsetInCU: 0x4F628, offset: 0x4F628, size: 0x8, addend: 0x0, symName: __ZNK8nlohmann16json_abi_v3_11_26detail5lexerINS0_10basic_jsonINSt3__13mapENS4_6vectorENS4_12basic_stringIcNS4_11char_traitsIcEENS4_9allocatorIcEEEEbxydSA_NS0_14adl_serializerENS6_IhNSA_IhEEEEEENS1_22iterator_input_adapterIPKcEEE16get_number_floatEv, symObjAddr: 0x15418, symBinAddr: 0x10001E540, symSize: 0x18 }
  - { offsetInCU: 0x4F64C, offset: 0x4F64C, size: 0x8, addend: 0x0, symName: __Z8isfiniteB7v160006IdLi0EEbT_, symObjAddr: 0x15430, symBinAddr: 0x10001E558, symSize: 0x34 }
  - { offsetInCU: 0x4F698, offset: 0x4F698, size: 0x8, addend: 0x0, symName: __ZN8nlohmann16json_abi_v3_11_26detail28json_sax_dom_callback_parserINS0_10basic_jsonINSt3__13mapENS4_6vectorENS4_12basic_stringIcNS4_11char_traitsIcEENS4_9allocatorIcEEEEbxydSA_NS0_14adl_serializerENS6_IhNSA_IhEEEEEEE11parse_errorINS1_12out_of_rangeEEEbmRKSC_RKT_, symObjAddr: 0x15464, symBinAddr: 0x10001E58C, symSize: 0x74 }
  - { offsetInCU: 0x4F6EB, offset: 0x4F6EB, size: 0x8, addend: 0x0, symName: __ZN8nlohmann16json_abi_v3_11_26detail12out_of_range6createIDnLi0EEES2_iRKNSt3__112basic_stringIcNS4_11char_traitsIcEENS4_9allocatorIcEEEET_, symObjAddr: 0x154D8, symBinAddr: 0x10001E600, symSize: 0x130 }
  - { offsetInCU: 0x4F74B, offset: 0x4F74B, size: 0x8, addend: 0x0, symName: __ZN8nlohmann16json_abi_v3_11_26detail12out_of_rangeD1Ev, symObjAddr: 0x156E0, symBinAddr: 0x10001E808, symSize: 0x2C }
  - { offsetInCU: 0x4F776, offset: 0x4F776, size: 0x8, addend: 0x0, symName: __ZN8nlohmann16json_abi_v3_11_26detail28json_sax_dom_callback_parserINS0_10basic_jsonINSt3__13mapENS4_6vectorENS4_12basic_stringIcNS4_11char_traitsIcEENS4_9allocatorIcEEEEbxydSA_NS0_14adl_serializerENS6_IhNSA_IhEEEEEEE12number_floatEdRKSC_, symObjAddr: 0x1570C, symBinAddr: 0x10001E834, symSize: 0x54 }
  - { offsetInCU: 0x4F7B4, offset: 0x4F7B4, size: 0x8, addend: 0x0, symName: __ZN8nlohmann16json_abi_v3_11_26detail28json_sax_dom_callback_parserINS0_10basic_jsonINSt3__13mapENS4_6vectorENS4_12basic_stringIcNS4_11char_traitsIcEENS4_9allocatorIcEEEEbxydSA_NS0_14adl_serializerENS6_IhNSA_IhEEEEEEE7booleanEb, symObjAddr: 0x15760, symBinAddr: 0x10001E888, symSize: 0x50 }
  - { offsetInCU: 0x4F7E7, offset: 0x4F7E7, size: 0x8, addend: 0x0, symName: __ZN8nlohmann16json_abi_v3_11_26detail28json_sax_dom_callback_parserINS0_10basic_jsonINSt3__13mapENS4_6vectorENS4_12basic_stringIcNS4_11char_traitsIcEENS4_9allocatorIcEEEEbxydSA_NS0_14adl_serializerENS6_IhNSA_IhEEEEEEE4nullEv, symObjAddr: 0x157B0, symBinAddr: 0x10001E8D8, symSize: 0x4C }
  - { offsetInCU: 0x4F80B, offset: 0x4F80B, size: 0x8, addend: 0x0, symName: __ZN8nlohmann16json_abi_v3_11_26detail28json_sax_dom_callback_parserINS0_10basic_jsonINSt3__13mapENS4_6vectorENS4_12basic_stringIcNS4_11char_traitsIcEENS4_9allocatorIcEEEEbxydSA_NS0_14adl_serializerENS6_IhNSA_IhEEEEEEE14number_integerEx, symObjAddr: 0x157FC, symBinAddr: 0x10001E924, symSize: 0x50 }
  - { offsetInCU: 0x4F83F, offset: 0x4F83F, size: 0x8, addend: 0x0, symName: __ZNK8nlohmann16json_abi_v3_11_26detail5lexerINS0_10basic_jsonINSt3__13mapENS4_6vectorENS4_12basic_stringIcNS4_11char_traitsIcEENS4_9allocatorIcEEEEbxydSA_NS0_14adl_serializerENS6_IhNSA_IhEEEEEENS1_22iterator_input_adapterIPKcEEE18get_number_integerEv, symObjAddr: 0x1584C, symBinAddr: 0x10001E974, symSize: 0x18 }
  - { offsetInCU: 0x4F863, offset: 0x4F863, size: 0x8, addend: 0x0, symName: __ZN8nlohmann16json_abi_v3_11_26detail28json_sax_dom_callback_parserINS0_10basic_jsonINSt3__13mapENS4_6vectorENS4_12basic_stringIcNS4_11char_traitsIcEENS4_9allocatorIcEEEEbxydSA_NS0_14adl_serializerENS6_IhNSA_IhEEEEEEE6stringERSC_, symObjAddr: 0x15864, symBinAddr: 0x10001E98C, symSize: 0x4C }
  - { offsetInCU: 0x4F896, offset: 0x4F896, size: 0x8, addend: 0x0, symName: __ZN8nlohmann16json_abi_v3_11_26detail28json_sax_dom_callback_parserINS0_10basic_jsonINSt3__13mapENS4_6vectorENS4_12basic_stringIcNS4_11char_traitsIcEENS4_9allocatorIcEEEEbxydSA_NS0_14adl_serializerENS6_IhNSA_IhEEEEEEE15number_unsignedEy, symObjAddr: 0x158B0, symBinAddr: 0x10001E9D8, symSize: 0x50 }
  - { offsetInCU: 0x4F8CA, offset: 0x4F8CA, size: 0x8, addend: 0x0, symName: __ZNK8nlohmann16json_abi_v3_11_26detail5lexerINS0_10basic_jsonINSt3__13mapENS4_6vectorENS4_12basic_stringIcNS4_11char_traitsIcEENS4_9allocatorIcEEEEbxydSA_NS0_14adl_serializerENS6_IhNSA_IhEEEEEENS1_22iterator_input_adapterIPKcEEE19get_number_unsignedEv, symObjAddr: 0x15900, symBinAddr: 0x10001EA28, symSize: 0x18 }
  - { offsetInCU: 0x4F8EF, offset: 0x4F8EF, size: 0x8, addend: 0x0, symName: __ZNKSt3__16vectorIbNS_9allocatorIbEEE5emptyB7v160006Ev, symObjAddr: 0x15918, symBinAddr: 0x10001EA40, symSize: 0x24 }
  - { offsetInCU: 0x4F914, offset: 0x4F914, size: 0x8, addend: 0x0, symName: __ZNKSt3__115__bit_referenceINS_6vectorIbNS_9allocatorIbEEEELb1EEcvbB7v160006Ev, symObjAddr: 0x1593C, symBinAddr: 0x10001EA64, symSize: 0x2C }
  - { offsetInCU: 0x4F939, offset: 0x4F939, size: 0x8, addend: 0x0, symName: __ZNSt3__16vectorIbNS_9allocatorIbEEE8pop_backB7v160006Ev, symObjAddr: 0x15968, symBinAddr: 0x10001EA90, symSize: 0x20 }
  - { offsetInCU: 0x4F95E, offset: 0x4F95E, size: 0x8, addend: 0x0, symName: __ZNKSt3__18functionIFbiN8nlohmann16json_abi_v3_11_26detail13parse_event_tERNS2_10basic_jsonINS_3mapENS_6vectorENS_12basic_stringIcNS_11char_traitsIcEENS_9allocatorIcEEEEbxydSB_NS2_14adl_serializerENS7_IhNSB_IhEEEEEEEEclEiS4_SI_, symObjAddr: 0x15988, symBinAddr: 0x10001EAB0, symSize: 0x48 }
  - { offsetInCU: 0x4F9D1, offset: 0x4F9D1, size: 0x8, addend: 0x0, symName: __ZN8nlohmann16json_abi_v3_11_26detail28json_sax_dom_callback_parserINS0_10basic_jsonINSt3__13mapENS4_6vectorENS4_12basic_stringIcNS4_11char_traitsIcEENS4_9allocatorIcEEEEbxydSA_NS0_14adl_serializerENS6_IhNSA_IhEEEEEEE12handle_valueINS1_7value_tEEENS4_4pairIbPSG_EEOT_b, symObjAddr: 0x159D0, symBinAddr: 0x10001EAF8, symSize: 0x4E0 }
  - { offsetInCU: 0x4FA4D, offset: 0x4FA4D, size: 0x8, addend: 0x0, symName: __ZNSt3__16vectorIPN8nlohmann16json_abi_v3_11_210basic_jsonINS_3mapES0_NS_12basic_stringIcNS_11char_traitsIcEENS_9allocatorIcEEEEbxydS8_NS2_14adl_serializerENS0_IhNS8_IhEEEEEENS8_ISF_EEE9push_backB7v160006ERKSF_, symObjAddr: 0x15EB0, symBinAddr: 0x10001EFD8, symSize: 0x6C }
  - { offsetInCU: 0x4FA83, offset: 0x4FA83, size: 0x8, addend: 0x0, symName: __ZNSt3__16vectorIPN8nlohmann16json_abi_v3_11_210basic_jsonINS_3mapES0_NS_12basic_stringIcNS_11char_traitsIcEENS_9allocatorIcEEEEbxydS8_NS2_14adl_serializerENS0_IhNS8_IhEEEEEENS8_ISF_EEE4backB7v160006Ev, symObjAddr: 0x15F1C, symBinAddr: 0x10001F044, symSize: 0x1C }
  - { offsetInCU: 0x4FAA7, offset: 0x4FAA7, size: 0x8, addend: 0x0, symName: __ZNK8nlohmann16json_abi_v3_11_210basic_jsonINSt3__13mapENS2_6vectorENS2_12basic_stringIcNS2_11char_traitsIcEENS2_9allocatorIcEEEEbxydS8_NS0_14adl_serializerENS4_IhNS8_IhEEEEE8max_sizeEv, symObjAddr: 0x15F38, symBinAddr: 0x10001F060, symSize: 0xA0 }
  - { offsetInCU: 0x4FACC, offset: 0x4FACC, size: 0x8, addend: 0x0, symName: __ZN8nlohmann16json_abi_v3_11_26detail12out_of_range6createIPNS0_10basic_jsonINSt3__13mapENS5_6vectorENS5_12basic_stringIcNS5_11char_traitsIcEENS5_9allocatorIcEEEEbxydSB_NS0_14adl_serializerENS7_IhNSB_IhEEEEEELi0EEES2_iRKSD_T_, symObjAddr: 0x16000, symBinAddr: 0x10001F128, symSize: 0x130 }
  - { offsetInCU: 0x4FB2B, offset: 0x4FB2B, size: 0x8, addend: 0x0, symName: __ZNKSt3__110__function12__value_funcIFbiN8nlohmann16json_abi_v3_11_26detail13parse_event_tERNS3_10basic_jsonINS_3mapENS_6vectorENS_12basic_stringIcNS_11char_traitsIcEENS_9allocatorIcEEEEbxydSC_NS3_14adl_serializerENS8_IhNSC_IhEEEEEEEEclB7v160006EOiOS5_SJ_, symObjAddr: 0x161FC, symBinAddr: 0x10001F324, symSize: 0x6C }
  - { offsetInCU: 0x4FB82, offset: 0x4FB82, size: 0x8, addend: 0x0, symName: __ZNSt3__117bad_function_callC1Ev, symObjAddr: 0x162A0, symBinAddr: 0x10001F3C8, symSize: 0x2C }
  - { offsetInCU: 0x4FBAD, offset: 0x4FBAD, size: 0x8, addend: 0x0, symName: __ZNSt3__117bad_function_callD1Ev, symObjAddr: 0x162CC, symBinAddr: 0x10001F3F4, symSize: 0x2C }
  - { offsetInCU: 0x4FBD6, offset: 0x4FBD6, size: 0x8, addend: 0x0, symName: __ZNSt3__117bad_function_callC2Ev, symObjAddr: 0x162F8, symBinAddr: 0x10001F420, symSize: 0x44 }
  - { offsetInCU: 0x4FC01, offset: 0x4FC01, size: 0x8, addend: 0x0, symName: __ZNSt3__117bad_function_callD0Ev, symObjAddr: 0x1633C, symBinAddr: 0x10001F464, symSize: 0x30 }
  - { offsetInCU: 0x4FC2A, offset: 0x4FC2A, size: 0x8, addend: 0x0, symName: __ZNSt3__117bad_function_callD2Ev, symObjAddr: 0x1636C, symBinAddr: 0x10001F494, symSize: 0x2C }
  - { offsetInCU: 0x4FC53, offset: 0x4FC53, size: 0x8, addend: 0x0, symName: __ZNSt3__14pairIbPN8nlohmann16json_abi_v3_11_210basic_jsonINS_3mapENS_6vectorENS_12basic_stringIcNS_11char_traitsIcEENS_9allocatorIcEEEEbxydS9_NS2_14adl_serializerENS5_IhNS9_IhEEEEEEEC1B7v160006IbDnLPv0EEEOT_OT0_, symObjAddr: 0x16398, symBinAddr: 0x10001F4C0, symSize: 0x3C }
  - { offsetInCU: 0x4FCB0, offset: 0x4FCB0, size: 0x8, addend: 0x0, symName: __ZNKSt3__16vectorIPN8nlohmann16json_abi_v3_11_210basic_jsonINS_3mapES0_NS_12basic_stringIcNS_11char_traitsIcEENS_9allocatorIcEEEEbxydS8_NS2_14adl_serializerENS0_IhNS8_IhEEEEEENS8_ISF_EEE5emptyB7v160006Ev, symObjAddr: 0x163D4, symBinAddr: 0x10001F4FC, symSize: 0x28 }
  - { offsetInCU: 0x4FCD5, offset: 0x4FCD5, size: 0x8, addend: 0x0, symName: __ZN8nlohmann16json_abi_v3_11_210basic_jsonINSt3__13mapENS2_6vectorENS2_12basic_stringIcNS2_11char_traitsIcEENS2_9allocatorIcEEEEbxydS8_NS0_14adl_serializerENS4_IhNS8_IhEEEEEC1EOSE_, symObjAddr: 0x163FC, symBinAddr: 0x10001F524, symSize: 0x34 }
  - { offsetInCU: 0x4FD13, offset: 0x4FD13, size: 0x8, addend: 0x0, symName: __ZNSt3__14pairIbPN8nlohmann16json_abi_v3_11_210basic_jsonINS_3mapENS_6vectorENS_12basic_stringIcNS_11char_traitsIcEENS_9allocatorIcEEEEbxydS9_NS2_14adl_serializerENS5_IhNS9_IhEEEEEEEC1B7v160006IbSG_LPv0EEEOT_OT0_, symObjAddr: 0x16430, symBinAddr: 0x10001F558, symSize: 0x3C }
  - { offsetInCU: 0x4FD70, offset: 0x4FD70, size: 0x8, addend: 0x0, symName: __ZNK8nlohmann16json_abi_v3_11_210basic_jsonINSt3__13mapENS2_6vectorENS2_12basic_stringIcNS2_11char_traitsIcEENS2_9allocatorIcEEEEbxydS8_NS0_14adl_serializerENS4_IhNS8_IhEEEEE8is_arrayEv, symObjAddr: 0x1646C, symBinAddr: 0x10001F594, symSize: 0x24 }
  - { offsetInCU: 0x4FD95, offset: 0x4FD95, size: 0x8, addend: 0x0, symName: __ZNK8nlohmann16json_abi_v3_11_210basic_jsonINSt3__13mapENS2_6vectorENS2_12basic_stringIcNS2_11char_traitsIcEENS2_9allocatorIcEEEEbxydS8_NS0_14adl_serializerENS4_IhNS8_IhEEEEE9is_objectEv, symObjAddr: 0x16490, symBinAddr: 0x10001F5B8, symSize: 0x24 }
  - { offsetInCU: 0x4FDBA, offset: 0x4FDBA, size: 0x8, addend: 0x0, symName: __ZNSt3__16vectorIN8nlohmann16json_abi_v3_11_210basic_jsonINS_3mapES0_NS_12basic_stringIcNS_11char_traitsIcEENS_9allocatorIcEEEEbxydS8_NS2_14adl_serializerENS0_IhNS8_IhEEEEEENS8_ISE_EEE12emplace_backIJSE_EEERSE_DpOT_, symObjAddr: 0x164B4, symBinAddr: 0x10001F5DC, symSize: 0x74 }
  - { offsetInCU: 0x4FDFB, offset: 0x4FDFB, size: 0x8, addend: 0x0, symName: __ZNSt3__16vectorIN8nlohmann16json_abi_v3_11_210basic_jsonINS_3mapES0_NS_12basic_stringIcNS_11char_traitsIcEENS_9allocatorIcEEEEbxydS8_NS2_14adl_serializerENS0_IhNS8_IhEEEEEENS8_ISE_EEE4backB7v160006Ev, symObjAddr: 0x16528, symBinAddr: 0x10001F650, symSize: 0x1C }
  - { offsetInCU: 0x4FE20, offset: 0x4FE20, size: 0x8, addend: 0x0, symName: __ZNSt3__14pairIbPN8nlohmann16json_abi_v3_11_210basic_jsonINS_3mapENS_6vectorENS_12basic_stringIcNS_11char_traitsIcEENS_9allocatorIcEEEEbxydS9_NS2_14adl_serializerENS5_IhNS9_IhEEEEEEEC1B7v160006IbRSG_LPv0EEEOT_OT0_, symObjAddr: 0x16544, symBinAddr: 0x10001F66C, symSize: 0x3C }
  - { offsetInCU: 0x4FE7D, offset: 0x4FE7D, size: 0x8, addend: 0x0, symName: __ZNSt3__14pairIbPN8nlohmann16json_abi_v3_11_210basic_jsonINS_3mapENS_6vectorENS_12basic_stringIcNS_11char_traitsIcEENS_9allocatorIcEEEEbxydS9_NS2_14adl_serializerENS5_IhNS9_IhEEEEEEEC2B7v160006IbDnLPv0EEEOT_OT0_, symObjAddr: 0x16580, symBinAddr: 0x10001F6A8, symSize: 0x30 }
  - { offsetInCU: 0x4FEDA, offset: 0x4FEDA, size: 0x8, addend: 0x0, symName: __ZN8nlohmann16json_abi_v3_11_210basic_jsonINSt3__13mapENS2_6vectorENS2_12basic_stringIcNS2_11char_traitsIcEENS2_9allocatorIcEEEEbxydS8_NS0_14adl_serializerENS4_IhNS8_IhEEEEEC2EOSE_, symObjAddr: 0x165B0, symBinAddr: 0x10001F6D8, symSize: 0x8C }
  - { offsetInCU: 0x4FF12, offset: 0x4FF12, size: 0x8, addend: 0x0, symName: __ZN8nlohmann16json_abi_v3_11_210basic_jsonINSt3__13mapENS2_6vectorENS2_12basic_stringIcNS2_11char_traitsIcEENS2_9allocatorIcEEEEbxydS8_NS0_14adl_serializerENS4_IhNS8_IhEEEEE11set_parentsEv, symObjAddr: 0x1663C, symBinAddr: 0x10001F764, symSize: 0x10 }
  - { offsetInCU: 0x4FF37, offset: 0x4FF37, size: 0x8, addend: 0x0, symName: __ZNSt3__14pairIbPN8nlohmann16json_abi_v3_11_210basic_jsonINS_3mapENS_6vectorENS_12basic_stringIcNS_11char_traitsIcEENS_9allocatorIcEEEEbxydS9_NS2_14adl_serializerENS5_IhNS9_IhEEEEEEEC2B7v160006IbSG_LPv0EEEOT_OT0_, symObjAddr: 0x1664C, symBinAddr: 0x10001F774, symSize: 0x38 }
  - { offsetInCU: 0x4FF93, offset: 0x4FF93, size: 0x8, addend: 0x0, symName: __ZNSt3__16vectorIN8nlohmann16json_abi_v3_11_210basic_jsonINS_3mapES0_NS_12basic_stringIcNS_11char_traitsIcEENS_9allocatorIcEEEEbxydS8_NS2_14adl_serializerENS0_IhNS8_IhEEEEEENS8_ISE_EEE9__end_capB7v160006Ev, symObjAddr: 0x16684, symBinAddr: 0x10001F7AC, symSize: 0x28 }
  - { offsetInCU: 0x4FFB7, offset: 0x4FFB7, size: 0x8, addend: 0x0, symName: __ZNSt3__16vectorIN8nlohmann16json_abi_v3_11_210basic_jsonINS_3mapES0_NS_12basic_stringIcNS_11char_traitsIcEENS_9allocatorIcEEEEbxydS8_NS2_14adl_serializerENS0_IhNS8_IhEEEEEENS8_ISE_EEE22__construct_one_at_endB7v160006IJSE_EEEvDpOT_, symObjAddr: 0x166AC, symBinAddr: 0x10001F7D4, symSize: 0x90 }
  - { offsetInCU: 0x50005, offset: 0x50005, size: 0x8, addend: 0x0, symName: __ZNSt3__16vectorIN8nlohmann16json_abi_v3_11_210basic_jsonINS_3mapES0_NS_12basic_stringIcNS_11char_traitsIcEENS_9allocatorIcEEEEbxydS8_NS2_14adl_serializerENS0_IhNS8_IhEEEEEENS8_ISE_EEE24__emplace_back_slow_pathIJSE_EEEvDpOT_, symObjAddr: 0x1673C, symBinAddr: 0x10001F864, symSize: 0xD8 }
  - { offsetInCU: 0x50063, offset: 0x50063, size: 0x8, addend: 0x0, symName: __ZNSt3__117__compressed_pairIPN8nlohmann16json_abi_v3_11_210basic_jsonINS_3mapENS_6vectorENS_12basic_stringIcNS_11char_traitsIcEENS_9allocatorIcEEEEbxydS9_NS2_14adl_serializerENS5_IhNS9_IhEEEEEENS9_ISF_EEE5firstB7v160006Ev, symObjAddr: 0x16814, symBinAddr: 0x10001F93C, symSize: 0x24 }
  - { offsetInCU: 0x50088, offset: 0x50088, size: 0x8, addend: 0x0, symName: __ZNSt3__122__compressed_pair_elemIPN8nlohmann16json_abi_v3_11_210basic_jsonINS_3mapENS_6vectorENS_12basic_stringIcNS_11char_traitsIcEENS_9allocatorIcEEEEbxydS9_NS2_14adl_serializerENS5_IhNS9_IhEEEEEELi0ELb0EE5__getB7v160006Ev, symObjAddr: 0x16838, symBinAddr: 0x10001F960, symSize: 0x14 }
  - { offsetInCU: 0x500C6, offset: 0x500C6, size: 0x8, addend: 0x0, symName: __ZNSt3__16vectorIN8nlohmann16json_abi_v3_11_210basic_jsonINS_3mapES0_NS_12basic_stringIcNS_11char_traitsIcEENS_9allocatorIcEEEEbxydS8_NS2_14adl_serializerENS0_IhNS8_IhEEEEEENS8_ISE_EEE21_ConstructTransactionC1B7v160006ERSG_m, symObjAddr: 0x1684C, symBinAddr: 0x10001F974, symSize: 0x3C }
  - { offsetInCU: 0x5010D, offset: 0x5010D, size: 0x8, addend: 0x0, symName: __ZNSt3__116allocator_traitsINS_9allocatorIN8nlohmann16json_abi_v3_11_210basic_jsonINS_3mapENS_6vectorENS_12basic_stringIcNS_11char_traitsIcEENS1_IcEEEEbxydS1_NS3_14adl_serializerENS6_IhNS1_IhEEEEEEEEE9constructB7v160006ISF_JSF_EvEEvRSG_PT_DpOT0_, symObjAddr: 0x16888, symBinAddr: 0x10001F9B0, symSize: 0x34 }
  - { offsetInCU: 0x50164, offset: 0x50164, size: 0x8, addend: 0x0, symName: __ZNSt3__16vectorIN8nlohmann16json_abi_v3_11_210basic_jsonINS_3mapES0_NS_12basic_stringIcNS_11char_traitsIcEENS_9allocatorIcEEEEbxydS8_NS2_14adl_serializerENS0_IhNS8_IhEEEEEENS8_ISE_EEE7__allocB7v160006Ev, symObjAddr: 0x168BC, symBinAddr: 0x10001F9E4, symSize: 0x28 }
  - { offsetInCU: 0x50189, offset: 0x50189, size: 0x8, addend: 0x0, symName: __ZNSt3__16vectorIN8nlohmann16json_abi_v3_11_210basic_jsonINS_3mapES0_NS_12basic_stringIcNS_11char_traitsIcEENS_9allocatorIcEEEEbxydS8_NS2_14adl_serializerENS0_IhNS8_IhEEEEEENS8_ISE_EEE21_ConstructTransactionD1B7v160006Ev, symObjAddr: 0x168F8, symBinAddr: 0x10001FA20, symSize: 0x2C }
  - { offsetInCU: 0x501B2, offset: 0x501B2, size: 0x8, addend: 0x0, symName: __ZNSt3__16vectorIN8nlohmann16json_abi_v3_11_210basic_jsonINS_3mapES0_NS_12basic_stringIcNS_11char_traitsIcEENS_9allocatorIcEEEEbxydS8_NS2_14adl_serializerENS0_IhNS8_IhEEEEEENS8_ISE_EEE21_ConstructTransactionC2B7v160006ERSG_m, symObjAddr: 0x16924, symBinAddr: 0x10001FA4C, symSize: 0x44 }
  - { offsetInCU: 0x501F8, offset: 0x501F8, size: 0x8, addend: 0x0, symName: __ZNSt3__19allocatorIN8nlohmann16json_abi_v3_11_210basic_jsonINS_3mapENS_6vectorENS_12basic_stringIcNS_11char_traitsIcEENS0_IcEEEEbxydS0_NS2_14adl_serializerENS5_IhNS0_IhEEEEEEE9constructB7v160006ISE_JSE_EEEvPT_DpOT0_, symObjAddr: 0x16968, symBinAddr: 0x10001FA90, symSize: 0x30 }
  - { offsetInCU: 0x5024C, offset: 0x5024C, size: 0x8, addend: 0x0, symName: __ZNSt3__117__compressed_pairIPN8nlohmann16json_abi_v3_11_210basic_jsonINS_3mapENS_6vectorENS_12basic_stringIcNS_11char_traitsIcEENS_9allocatorIcEEEEbxydS9_NS2_14adl_serializerENS5_IhNS9_IhEEEEEENS9_ISF_EEE6secondB7v160006Ev, symObjAddr: 0x16998, symBinAddr: 0x10001FAC0, symSize: 0x24 }
  - { offsetInCU: 0x50271, offset: 0x50271, size: 0x8, addend: 0x0, symName: __ZNSt3__122__compressed_pair_elemINS_9allocatorIN8nlohmann16json_abi_v3_11_210basic_jsonINS_3mapENS_6vectorENS_12basic_stringIcNS_11char_traitsIcEENS1_IcEEEEbxydS1_NS3_14adl_serializerENS6_IhNS1_IhEEEEEEEELi1ELb1EE5__getB7v160006Ev, symObjAddr: 0x169BC, symBinAddr: 0x10001FAE4, symSize: 0x14 }
  - { offsetInCU: 0x50296, offset: 0x50296, size: 0x8, addend: 0x0, symName: __ZNSt3__16vectorIN8nlohmann16json_abi_v3_11_210basic_jsonINS_3mapES0_NS_12basic_stringIcNS_11char_traitsIcEENS_9allocatorIcEEEEbxydS8_NS2_14adl_serializerENS0_IhNS8_IhEEEEEENS8_ISE_EEE21_ConstructTransactionD2B7v160006Ev, symObjAddr: 0x169D0, symBinAddr: 0x10001FAF8, symSize: 0x20 }
  - { offsetInCU: 0x502BF, offset: 0x502BF, size: 0x8, addend: 0x0, symName: __ZNKSt3__16vectorIN8nlohmann16json_abi_v3_11_210basic_jsonINS_3mapES0_NS_12basic_stringIcNS_11char_traitsIcEENS_9allocatorIcEEEEbxydS8_NS2_14adl_serializerENS0_IhNS8_IhEEEEEENS8_ISE_EEE11__recommendB7v160006Em, symObjAddr: 0x169F0, symBinAddr: 0x10001FB18, symSize: 0xB4 }
  - { offsetInCU: 0x50313, offset: 0x50313, size: 0x8, addend: 0x0, symName: __ZNKSt3__16vectorIN8nlohmann16json_abi_v3_11_210basic_jsonINS_3mapES0_NS_12basic_stringIcNS_11char_traitsIcEENS_9allocatorIcEEEEbxydS8_NS2_14adl_serializerENS0_IhNS8_IhEEEEEENS8_ISE_EEE4sizeB7v160006Ev, symObjAddr: 0x16AA4, symBinAddr: 0x10001FBCC, symSize: 0x28 }
  - { offsetInCU: 0x50338, offset: 0x50338, size: 0x8, addend: 0x0, symName: __ZNSt3__114__split_bufferIN8nlohmann16json_abi_v3_11_210basic_jsonINS_3mapENS_6vectorENS_12basic_stringIcNS_11char_traitsIcEENS_9allocatorIcEEEEbxydS9_NS2_14adl_serializerENS5_IhNS9_IhEEEEEERNS9_ISF_EEEC1EmmSH_, symObjAddr: 0x16ACC, symBinAddr: 0x10001FBF4, symSize: 0x44 }
  - { offsetInCU: 0x5038D, offset: 0x5038D, size: 0x8, addend: 0x0, symName: __ZNSt3__114__split_bufferIN8nlohmann16json_abi_v3_11_210basic_jsonINS_3mapENS_6vectorENS_12basic_stringIcNS_11char_traitsIcEENS_9allocatorIcEEEEbxydS9_NS2_14adl_serializerENS5_IhNS9_IhEEEEEERNS9_ISF_EEED1Ev, symObjAddr: 0x16C28, symBinAddr: 0x10001FD50, symSize: 0x2C }
  - { offsetInCU: 0x503B8, offset: 0x503B8, size: 0x8, addend: 0x0, symName: __ZNKSt3__16vectorIN8nlohmann16json_abi_v3_11_210basic_jsonINS_3mapES0_NS_12basic_stringIcNS_11char_traitsIcEENS_9allocatorIcEEEEbxydS8_NS2_14adl_serializerENS0_IhNS8_IhEEEEEENS8_ISE_EEE8max_sizeEv, symObjAddr: 0x16C54, symBinAddr: 0x10001FD7C, symSize: 0x60 }
  - { offsetInCU: 0x503DE, offset: 0x503DE, size: 0x8, addend: 0x0, symName: __ZNKSt3__16vectorIN8nlohmann16json_abi_v3_11_210basic_jsonINS_3mapES0_NS_12basic_stringIcNS_11char_traitsIcEENS_9allocatorIcEEEEbxydS8_NS2_14adl_serializerENS0_IhNS8_IhEEEEEENS8_ISE_EEE20__throw_length_errorB7v160006Ev, symObjAddr: 0x16CB4, symBinAddr: 0x10001FDDC, symSize: 0x1C }
  - { offsetInCU: 0x50402, offset: 0x50402, size: 0x8, addend: 0x0, symName: __ZNKSt3__16vectorIN8nlohmann16json_abi_v3_11_210basic_jsonINS_3mapES0_NS_12basic_stringIcNS_11char_traitsIcEENS_9allocatorIcEEEEbxydS8_NS2_14adl_serializerENS0_IhNS8_IhEEEEEENS8_ISE_EEE8capacityB7v160006Ev, symObjAddr: 0x16CD0, symBinAddr: 0x10001FDF8, symSize: 0x40 }
  - { offsetInCU: 0x50431, offset: 0x50431, size: 0x8, addend: 0x0, symName: __ZNSt3__116allocator_traitsINS_9allocatorIN8nlohmann16json_abi_v3_11_210basic_jsonINS_3mapENS_6vectorENS_12basic_stringIcNS_11char_traitsIcEENS1_IcEEEEbxydS1_NS3_14adl_serializerENS6_IhNS1_IhEEEEEEEEE8max_sizeB7v160006ISG_vEEmRKSG_, symObjAddr: 0x16D10, symBinAddr: 0x10001FE38, symSize: 0x24 }
  - { offsetInCU: 0x5045F, offset: 0x5045F, size: 0x8, addend: 0x0, symName: __ZNKSt3__16vectorIN8nlohmann16json_abi_v3_11_210basic_jsonINS_3mapES0_NS_12basic_stringIcNS_11char_traitsIcEENS_9allocatorIcEEEEbxydS8_NS2_14adl_serializerENS0_IhNS8_IhEEEEEENS8_ISE_EEE7__allocB7v160006Ev, symObjAddr: 0x16D34, symBinAddr: 0x10001FE5C, symSize: 0x28 }
  - { offsetInCU: 0x50484, offset: 0x50484, size: 0x8, addend: 0x0, symName: __ZNKSt3__19allocatorIN8nlohmann16json_abi_v3_11_210basic_jsonINS_3mapENS_6vectorENS_12basic_stringIcNS_11char_traitsIcEENS0_IcEEEEbxydS0_NS2_14adl_serializerENS5_IhNS0_IhEEEEEEE8max_sizeB7v160006Ev, symObjAddr: 0x16D5C, symBinAddr: 0x10001FE84, symSize: 0x14 }
  - { offsetInCU: 0x504A8, offset: 0x504A8, size: 0x8, addend: 0x0, symName: __ZNKSt3__117__compressed_pairIPN8nlohmann16json_abi_v3_11_210basic_jsonINS_3mapENS_6vectorENS_12basic_stringIcNS_11char_traitsIcEENS_9allocatorIcEEEEbxydS9_NS2_14adl_serializerENS5_IhNS9_IhEEEEEENS9_ISF_EEE6secondB7v160006Ev, symObjAddr: 0x16D70, symBinAddr: 0x10001FE98, symSize: 0x24 }
  - { offsetInCU: 0x504CD, offset: 0x504CD, size: 0x8, addend: 0x0, symName: __ZNKSt3__122__compressed_pair_elemINS_9allocatorIN8nlohmann16json_abi_v3_11_210basic_jsonINS_3mapENS_6vectorENS_12basic_stringIcNS_11char_traitsIcEENS1_IcEEEEbxydS1_NS3_14adl_serializerENS6_IhNS1_IhEEEEEEEELi1ELb1EE5__getB7v160006Ev, symObjAddr: 0x16D94, symBinAddr: 0x10001FEBC, symSize: 0x14 }
  - { offsetInCU: 0x504F1, offset: 0x504F1, size: 0x8, addend: 0x0, symName: __ZNKSt3__16vectorIN8nlohmann16json_abi_v3_11_210basic_jsonINS_3mapES0_NS_12basic_stringIcNS_11char_traitsIcEENS_9allocatorIcEEEEbxydS8_NS2_14adl_serializerENS0_IhNS8_IhEEEEEENS8_ISE_EEE9__end_capB7v160006Ev, symObjAddr: 0x16DA8, symBinAddr: 0x10001FED0, symSize: 0x28 }
  - { offsetInCU: 0x50515, offset: 0x50515, size: 0x8, addend: 0x0, symName: __ZNKSt3__117__compressed_pairIPN8nlohmann16json_abi_v3_11_210basic_jsonINS_3mapENS_6vectorENS_12basic_stringIcNS_11char_traitsIcEENS_9allocatorIcEEEEbxydS9_NS2_14adl_serializerENS5_IhNS9_IhEEEEEENS9_ISF_EEE5firstB7v160006Ev, symObjAddr: 0x16DD0, symBinAddr: 0x10001FEF8, symSize: 0x24 }
  - { offsetInCU: 0x5053A, offset: 0x5053A, size: 0x8, addend: 0x0, symName: __ZNKSt3__122__compressed_pair_elemIPN8nlohmann16json_abi_v3_11_210basic_jsonINS_3mapENS_6vectorENS_12basic_stringIcNS_11char_traitsIcEENS_9allocatorIcEEEEbxydS9_NS2_14adl_serializerENS5_IhNS9_IhEEEEEELi0ELb0EE5__getB7v160006Ev, symObjAddr: 0x16DF4, symBinAddr: 0x10001FF1C, symSize: 0x14 }
  - { offsetInCU: 0x5055F, offset: 0x5055F, size: 0x8, addend: 0x0, symName: __ZNSt3__114__split_bufferIN8nlohmann16json_abi_v3_11_210basic_jsonINS_3mapENS_6vectorENS_12basic_stringIcNS_11char_traitsIcEENS_9allocatorIcEEEEbxydS9_NS2_14adl_serializerENS5_IhNS9_IhEEEEEERNS9_ISF_EEEC2EmmSH_, symObjAddr: 0x16E08, symBinAddr: 0x10001FF30, symSize: 0xD4 }
  - { offsetInCU: 0x505D2, offset: 0x505D2, size: 0x8, addend: 0x0, symName: __ZNSt3__117__compressed_pairIPN8nlohmann16json_abi_v3_11_210basic_jsonINS_3mapENS_6vectorENS_12basic_stringIcNS_11char_traitsIcEENS_9allocatorIcEEEEbxydS9_NS2_14adl_serializerENS5_IhNS9_IhEEEEEERNS9_ISF_EEEC1B7v160006IDnSI_EEOT_OT0_, symObjAddr: 0x16EDC, symBinAddr: 0x100020004, symSize: 0x3C }
  - { offsetInCU: 0x50628, offset: 0x50628, size: 0x8, addend: 0x0, symName: __ZNSt3__114__split_bufferIN8nlohmann16json_abi_v3_11_210basic_jsonINS_3mapENS_6vectorENS_12basic_stringIcNS_11char_traitsIcEENS_9allocatorIcEEEEbxydS9_NS2_14adl_serializerENS5_IhNS9_IhEEEEEERNS9_ISF_EEE7__allocB7v160006Ev, symObjAddr: 0x16F58, symBinAddr: 0x100020080, symSize: 0x28 }
  - { offsetInCU: 0x5064C, offset: 0x5064C, size: 0x8, addend: 0x0, symName: __ZNSt3__114__split_bufferIN8nlohmann16json_abi_v3_11_210basic_jsonINS_3mapENS_6vectorENS_12basic_stringIcNS_11char_traitsIcEENS_9allocatorIcEEEEbxydS9_NS2_14adl_serializerENS5_IhNS9_IhEEEEEERNS9_ISF_EEE9__end_capB7v160006Ev, symObjAddr: 0x16F80, symBinAddr: 0x1000200A8, symSize: 0x28 }
  - { offsetInCU: 0x50671, offset: 0x50671, size: 0x8, addend: 0x0, symName: __ZNSt3__117__compressed_pairIPN8nlohmann16json_abi_v3_11_210basic_jsonINS_3mapENS_6vectorENS_12basic_stringIcNS_11char_traitsIcEENS_9allocatorIcEEEEbxydS9_NS2_14adl_serializerENS5_IhNS9_IhEEEEEERNS9_ISF_EEEC2B7v160006IDnSI_EEOT_OT0_, symObjAddr: 0x16FA8, symBinAddr: 0x1000200D0, symSize: 0x48 }
  - { offsetInCU: 0x506C8, offset: 0x506C8, size: 0x8, addend: 0x0, symName: __ZNSt3__122__compressed_pair_elemIRNS_9allocatorIN8nlohmann16json_abi_v3_11_210basic_jsonINS_3mapENS_6vectorENS_12basic_stringIcNS_11char_traitsIcEENS1_IcEEEEbxydS1_NS3_14adl_serializerENS6_IhNS1_IhEEEEEEEELi1ELb0EEC2B7v160006ISH_vEEOT_, symObjAddr: 0x16FF0, symBinAddr: 0x100020118, symSize: 0x20 }
  - { offsetInCU: 0x50709, offset: 0x50709, size: 0x8, addend: 0x0, symName: __ZNSt3__19allocatorIN8nlohmann16json_abi_v3_11_210basic_jsonINS_3mapENS_6vectorENS_12basic_stringIcNS_11char_traitsIcEENS0_IcEEEEbxydS0_NS2_14adl_serializerENS5_IhNS0_IhEEEEEEE8allocateB7v160006Em, symObjAddr: 0x17010, symBinAddr: 0x100020138, symSize: 0x58 }
  - { offsetInCU: 0x5073B, offset: 0x5073B, size: 0x8, addend: 0x0, symName: __ZNSt3__117__compressed_pairIPN8nlohmann16json_abi_v3_11_210basic_jsonINS_3mapENS_6vectorENS_12basic_stringIcNS_11char_traitsIcEENS_9allocatorIcEEEEbxydS9_NS2_14adl_serializerENS5_IhNS9_IhEEEEEERNS9_ISF_EEE6secondB7v160006Ev, symObjAddr: 0x17068, symBinAddr: 0x100020190, symSize: 0x28 }
  - { offsetInCU: 0x50760, offset: 0x50760, size: 0x8, addend: 0x0, symName: __ZNSt3__122__compressed_pair_elemIRNS_9allocatorIN8nlohmann16json_abi_v3_11_210basic_jsonINS_3mapENS_6vectorENS_12basic_stringIcNS_11char_traitsIcEENS1_IcEEEEbxydS1_NS3_14adl_serializerENS6_IhNS1_IhEEEEEEEELi1ELb0EE5__getB7v160006Ev, symObjAddr: 0x17090, symBinAddr: 0x1000201B8, symSize: 0x18 }
  - { offsetInCU: 0x50784, offset: 0x50784, size: 0x8, addend: 0x0, symName: __ZNSt3__117__compressed_pairIPN8nlohmann16json_abi_v3_11_210basic_jsonINS_3mapENS_6vectorENS_12basic_stringIcNS_11char_traitsIcEENS_9allocatorIcEEEEbxydS9_NS2_14adl_serializerENS5_IhNS9_IhEEEEEERNS9_ISF_EEE5firstB7v160006Ev, symObjAddr: 0x170A8, symBinAddr: 0x1000201D0, symSize: 0x24 }
  - { offsetInCU: 0x507A8, offset: 0x507A8, size: 0x8, addend: 0x0, symName: __ZNKSt3__16vectorIN8nlohmann16json_abi_v3_11_210basic_jsonINS_3mapES0_NS_12basic_stringIcNS_11char_traitsIcEENS_9allocatorIcEEEEbxydS8_NS2_14adl_serializerENS0_IhNS8_IhEEEEEENS8_ISE_EEE17__annotate_deleteB7v160006Ev, symObjAddr: 0x170CC, symBinAddr: 0x1000201F4, symSize: 0xB8 }
  - { offsetInCU: 0x507CD, offset: 0x507CD, size: 0x8, addend: 0x0, symName: __ZNSt3__116reverse_iteratorIPN8nlohmann16json_abi_v3_11_210basic_jsonINS_3mapENS_6vectorENS_12basic_stringIcNS_11char_traitsIcEENS_9allocatorIcEEEEbxydS9_NS2_14adl_serializerENS5_IhNS9_IhEEEEEEEC1B7v160006ESG_, symObjAddr: 0x172B0, symBinAddr: 0x1000203D8, symSize: 0x34 }
  - { offsetInCU: 0x50804, offset: 0x50804, size: 0x8, addend: 0x0, symName: __ZNKSt3__116reverse_iteratorIPN8nlohmann16json_abi_v3_11_210basic_jsonINS_3mapENS_6vectorENS_12basic_stringIcNS_11char_traitsIcEENS_9allocatorIcEEEEbxydS9_NS2_14adl_serializerENS5_IhNS9_IhEEEEEEE4baseB7v160006Ev, symObjAddr: 0x172E4, symBinAddr: 0x10002040C, symSize: 0x18 }
  - { offsetInCU: 0x50828, offset: 0x50828, size: 0x8, addend: 0x0, symName: __ZNKSt3__16vectorIN8nlohmann16json_abi_v3_11_210basic_jsonINS_3mapES0_NS_12basic_stringIcNS_11char_traitsIcEENS_9allocatorIcEEEEbxydS8_NS2_14adl_serializerENS0_IhNS8_IhEEEEEENS8_ISE_EEE14__annotate_newB7v160006Em, symObjAddr: 0x17338, symBinAddr: 0x100020460, symSize: 0xAC }
  - { offsetInCU: 0x5085C, offset: 0x5085C, size: 0x8, addend: 0x0, symName: __ZNKSt3__16vectorIN8nlohmann16json_abi_v3_11_210basic_jsonINS_3mapES0_NS_12basic_stringIcNS_11char_traitsIcEENS_9allocatorIcEEEEbxydS8_NS2_14adl_serializerENS0_IhNS8_IhEEEEEENS8_ISE_EEE31__annotate_contiguous_containerB7v160006EPKvSI_SI_SI_, symObjAddr: 0x173F4, symBinAddr: 0x10002051C, symSize: 0x20 }
  - { offsetInCU: 0x508AC, offset: 0x508AC, size: 0x8, addend: 0x0, symName: __ZNKSt3__16vectorIN8nlohmann16json_abi_v3_11_210basic_jsonINS_3mapES0_NS_12basic_stringIcNS_11char_traitsIcEENS_9allocatorIcEEEEbxydS8_NS2_14adl_serializerENS0_IhNS8_IhEEEEEENS8_ISE_EEE4dataB7v160006Ev, symObjAddr: 0x17414, symBinAddr: 0x10002053C, symSize: 0x28 }
  - { offsetInCU: 0x508D1, offset: 0x508D1, size: 0x8, addend: 0x0, symName: __ZNSt3__129_AllocatorDestroyRangeReverseINS_9allocatorIN8nlohmann16json_abi_v3_11_210basic_jsonINS_3mapENS_6vectorENS_12basic_stringIcNS_11char_traitsIcEENS1_IcEEEEbxydS1_NS3_14adl_serializerENS6_IhNS1_IhEEEEEEEENS_16reverse_iteratorIPSF_EEEC1B7v160006ERSG_RSJ_SM_, symObjAddr: 0x17488, symBinAddr: 0x1000205B0, symSize: 0x44 }
  - { offsetInCU: 0x50927, offset: 0x50927, size: 0x8, addend: 0x0, symName: __ZNKSt3__116reverse_iteratorIPN8nlohmann16json_abi_v3_11_210basic_jsonINS_3mapENS_6vectorENS_12basic_stringIcNS_11char_traitsIcEENS_9allocatorIcEEEEbxydS9_NS2_14adl_serializerENS5_IhNS9_IhEEEEEEEdeB7v160006Ev, symObjAddr: 0x17538, symBinAddr: 0x100020660, symSize: 0x28 }
  - { offsetInCU: 0x5095B, offset: 0x5095B, size: 0x8, addend: 0x0, symName: __ZNSt3__116reverse_iteratorIPN8nlohmann16json_abi_v3_11_210basic_jsonINS_3mapENS_6vectorENS_12basic_stringIcNS_11char_traitsIcEENS_9allocatorIcEEEEbxydS9_NS2_14adl_serializerENS5_IhNS9_IhEEEEEEEppB7v160006Ev, symObjAddr: 0x17560, symBinAddr: 0x100020688, symSize: 0x20 }
  - { offsetInCU: 0x50980, offset: 0x50980, size: 0x8, addend: 0x0, symName: __ZNSt3__128__exception_guard_exceptionsINS_29_AllocatorDestroyRangeReverseINS_9allocatorIN8nlohmann16json_abi_v3_11_210basic_jsonINS_3mapENS_6vectorENS_12basic_stringIcNS_11char_traitsIcEENS2_IcEEEEbxydS2_NS4_14adl_serializerENS7_IhNS2_IhEEEEEEEENS_16reverse_iteratorIPSG_EEEEE10__completeB7v160006Ev, symObjAddr: 0x17580, symBinAddr: 0x1000206A8, symSize: 0x1C }
  - { offsetInCU: 0x509A5, offset: 0x509A5, size: 0x8, addend: 0x0, symName: __ZNSt3__128__exception_guard_exceptionsINS_29_AllocatorDestroyRangeReverseINS_9allocatorIN8nlohmann16json_abi_v3_11_210basic_jsonINS_3mapENS_6vectorENS_12basic_stringIcNS_11char_traitsIcEENS2_IcEEEEbxydS2_NS4_14adl_serializerENS7_IhNS2_IhEEEEEEEENS_16reverse_iteratorIPSG_EEEEED1B7v160006Ev, symObjAddr: 0x1759C, symBinAddr: 0x1000206C4, symSize: 0x2C }
  - { offsetInCU: 0x509CE, offset: 0x509CE, size: 0x8, addend: 0x0, symName: __ZNSt3__128__exception_guard_exceptionsINS_29_AllocatorDestroyRangeReverseINS_9allocatorIN8nlohmann16json_abi_v3_11_210basic_jsonINS_3mapENS_6vectorENS_12basic_stringIcNS_11char_traitsIcEENS2_IcEEEEbxydS2_NS4_14adl_serializerENS7_IhNS2_IhEEEEEEEENS_16reverse_iteratorIPSG_EEEEEC1B7v160006ESL_, symObjAddr: 0x175C8, symBinAddr: 0x1000206F0, symSize: 0x34 }
  - { offsetInCU: 0x50A06, offset: 0x50A06, size: 0x8, addend: 0x0, symName: __ZNSt3__128__exception_guard_exceptionsINS_29_AllocatorDestroyRangeReverseINS_9allocatorIN8nlohmann16json_abi_v3_11_210basic_jsonINS_3mapENS_6vectorENS_12basic_stringIcNS_11char_traitsIcEENS2_IcEEEEbxydS2_NS4_14adl_serializerENS7_IhNS2_IhEEEEEEEENS_16reverse_iteratorIPSG_EEEEEC2B7v160006ESL_, symObjAddr: 0x175FC, symBinAddr: 0x100020724, symSize: 0x30 }
  - { offsetInCU: 0x50A3E, offset: 0x50A3E, size: 0x8, addend: 0x0, symName: __ZNSt3__129_AllocatorDestroyRangeReverseINS_9allocatorIN8nlohmann16json_abi_v3_11_210basic_jsonINS_3mapENS_6vectorENS_12basic_stringIcNS_11char_traitsIcEENS1_IcEEEEbxydS1_NS3_14adl_serializerENS6_IhNS1_IhEEEEEEEENS_16reverse_iteratorIPSF_EEEC2B7v160006ERSG_RSJ_SM_, symObjAddr: 0x1762C, symBinAddr: 0x100020754, symSize: 0x38 }
  - { offsetInCU: 0x50A99, offset: 0x50A99, size: 0x8, addend: 0x0, symName: __ZNSt3__119__to_address_helperINS_16reverse_iteratorIPN8nlohmann16json_abi_v3_11_210basic_jsonINS_3mapENS_6vectorENS_12basic_stringIcNS_11char_traitsIcEENS_9allocatorIcEEEEbxydSA_NS3_14adl_serializerENS6_IhNSA_IhEEEEEEEEvE6__callB7v160006ERKSI_, symObjAddr: 0x17664, symBinAddr: 0x10002078C, symSize: 0x38 }
  - { offsetInCU: 0x50ABB, offset: 0x50ABB, size: 0x8, addend: 0x0, symName: __ZNKSt3__116reverse_iteratorIPN8nlohmann16json_abi_v3_11_210basic_jsonINS_3mapENS_6vectorENS_12basic_stringIcNS_11char_traitsIcEENS_9allocatorIcEEEEbxydS9_NS2_14adl_serializerENS5_IhNS9_IhEEEEEEEptB7v160006Ev, symObjAddr: 0x1769C, symBinAddr: 0x1000207C4, symSize: 0x24 }
  - { offsetInCU: 0x50AE0, offset: 0x50AE0, size: 0x8, addend: 0x0, symName: __ZNSt3__128__exception_guard_exceptionsINS_29_AllocatorDestroyRangeReverseINS_9allocatorIN8nlohmann16json_abi_v3_11_210basic_jsonINS_3mapENS_6vectorENS_12basic_stringIcNS_11char_traitsIcEENS2_IcEEEEbxydS2_NS4_14adl_serializerENS7_IhNS2_IhEEEEEEEENS_16reverse_iteratorIPSG_EEEEED2B7v160006Ev, symObjAddr: 0x176C0, symBinAddr: 0x1000207E8, symSize: 0x50 }
  - { offsetInCU: 0x50B08, offset: 0x50B08, size: 0x8, addend: 0x0, symName: __ZNKSt3__129_AllocatorDestroyRangeReverseINS_9allocatorIN8nlohmann16json_abi_v3_11_210basic_jsonINS_3mapENS_6vectorENS_12basic_stringIcNS_11char_traitsIcEENS1_IcEEEEbxydS1_NS3_14adl_serializerENS6_IhNS1_IhEEEEEEEENS_16reverse_iteratorIPSF_EEEclB7v160006Ev, symObjAddr: 0x17710, symBinAddr: 0x100020838, symSize: 0xB4 }
  - { offsetInCU: 0x50B2E, offset: 0x50B2E, size: 0x8, addend: 0x0, symName: __ZNSt3__116reverse_iteratorINS0_IPN8nlohmann16json_abi_v3_11_210basic_jsonINS_3mapENS_6vectorENS_12basic_stringIcNS_11char_traitsIcEENS_9allocatorIcEEEEbxydS9_NS2_14adl_serializerENS5_IhNS9_IhEEEEEEEEEC1B7v160006ESH_, symObjAddr: 0x17834, symBinAddr: 0x10002095C, symSize: 0x3C }
  - { offsetInCU: 0x50B65, offset: 0x50B65, size: 0x8, addend: 0x0, symName: __ZNSt3__116allocator_traitsINS_9allocatorIN8nlohmann16json_abi_v3_11_210basic_jsonINS_3mapENS_6vectorENS_12basic_stringIcNS_11char_traitsIcEENS1_IcEEEEbxydS1_NS3_14adl_serializerENS6_IhNS1_IhEEEEEEEEE7destroyB7v160006ISF_vEEvRSG_PT_, symObjAddr: 0x178D0, symBinAddr: 0x1000209F8, symSize: 0x2C }
  - { offsetInCU: 0x50BA2, offset: 0x50BA2, size: 0x8, addend: 0x0, symName: __ZNSt3__116reverse_iteratorINS0_IPN8nlohmann16json_abi_v3_11_210basic_jsonINS_3mapENS_6vectorENS_12basic_stringIcNS_11char_traitsIcEENS_9allocatorIcEEEEbxydS9_NS2_14adl_serializerENS5_IhNS9_IhEEEEEEEEEppB7v160006Ev, symObjAddr: 0x17920, symBinAddr: 0x100020A48, symSize: 0x30 }
  - { offsetInCU: 0x50BC7, offset: 0x50BC7, size: 0x8, addend: 0x0, symName: __ZNKSt3__116reverse_iteratorINS0_IPN8nlohmann16json_abi_v3_11_210basic_jsonINS_3mapENS_6vectorENS_12basic_stringIcNS_11char_traitsIcEENS_9allocatorIcEEEEbxydS9_NS2_14adl_serializerENS5_IhNS9_IhEEEEEEEEE4baseB7v160006Ev, symObjAddr: 0x17950, symBinAddr: 0x100020A78, symSize: 0x24 }
  - { offsetInCU: 0x50BEB, offset: 0x50BEB, size: 0x8, addend: 0x0, symName: __ZNSt3__19allocatorIN8nlohmann16json_abi_v3_11_210basic_jsonINS_3mapENS_6vectorENS_12basic_stringIcNS_11char_traitsIcEENS0_IcEEEEbxydS0_NS2_14adl_serializerENS5_IhNS0_IhEEEEEEE7destroyB7v160006EPSE_, symObjAddr: 0x17974, symBinAddr: 0x100020A9C, symSize: 0x28 }
  - { offsetInCU: 0x50C23, offset: 0x50C23, size: 0x8, addend: 0x0, symName: __ZNSt3__119__to_address_helperINS_16reverse_iteratorINS1_IPN8nlohmann16json_abi_v3_11_210basic_jsonINS_3mapENS_6vectorENS_12basic_stringIcNS_11char_traitsIcEENS_9allocatorIcEEEEbxydSA_NS3_14adl_serializerENS6_IhNSA_IhEEEEEEEEEEvE6__callB7v160006ERKSJ_, symObjAddr: 0x1799C, symBinAddr: 0x100020AC4, symSize: 0x38 }
  - { offsetInCU: 0x50C45, offset: 0x50C45, size: 0x8, addend: 0x0, symName: __ZNKSt3__116reverse_iteratorINS0_IPN8nlohmann16json_abi_v3_11_210basic_jsonINS_3mapENS_6vectorENS_12basic_stringIcNS_11char_traitsIcEENS_9allocatorIcEEEEbxydS9_NS2_14adl_serializerENS5_IhNS9_IhEEEEEEEEEptB7v160006Ev, symObjAddr: 0x179D4, symBinAddr: 0x100020AFC, symSize: 0x24 }
  - { offsetInCU: 0x50C69, offset: 0x50C69, size: 0x8, addend: 0x0, symName: __ZNKSt3__116reverse_iteratorINS0_IPN8nlohmann16json_abi_v3_11_210basic_jsonINS_3mapENS_6vectorENS_12basic_stringIcNS_11char_traitsIcEENS_9allocatorIcEEEEbxydS9_NS2_14adl_serializerENS5_IhNS9_IhEEEEEEEEEdeB7v160006Ev, symObjAddr: 0x179F8, symBinAddr: 0x100020B20, symSize: 0x34 }
  - { offsetInCU: 0x50C9D, offset: 0x50C9D, size: 0x8, addend: 0x0, symName: __ZNSt3__116reverse_iteratorIPN8nlohmann16json_abi_v3_11_210basic_jsonINS_3mapENS_6vectorENS_12basic_stringIcNS_11char_traitsIcEENS_9allocatorIcEEEEbxydS9_NS2_14adl_serializerENS5_IhNS9_IhEEEEEEEmmB7v160006Ev, symObjAddr: 0x17A2C, symBinAddr: 0x100020B54, symSize: 0x20 }
  - { offsetInCU: 0x50CC2, offset: 0x50CC2, size: 0x8, addend: 0x0, symName: __ZNSt3__116reverse_iteratorINS0_IPN8nlohmann16json_abi_v3_11_210basic_jsonINS_3mapENS_6vectorENS_12basic_stringIcNS_11char_traitsIcEENS_9allocatorIcEEEEbxydS9_NS2_14adl_serializerENS5_IhNS9_IhEEEEEEEEEC2B7v160006ESH_, symObjAddr: 0x17A4C, symBinAddr: 0x100020B74, symSize: 0x2C }
  - { offsetInCU: 0x50CF9, offset: 0x50CF9, size: 0x8, addend: 0x0, symName: __ZNSt3__116reverse_iteratorIPN8nlohmann16json_abi_v3_11_210basic_jsonINS_3mapENS_6vectorENS_12basic_stringIcNS_11char_traitsIcEENS_9allocatorIcEEEEbxydS9_NS2_14adl_serializerENS5_IhNS9_IhEEEEEEEC2B7v160006ESG_, symObjAddr: 0x17A78, symBinAddr: 0x100020BA0, symSize: 0x28 }
  - { offsetInCU: 0x50D30, offset: 0x50D30, size: 0x8, addend: 0x0, symName: __ZNSt3__114__split_bufferIN8nlohmann16json_abi_v3_11_210basic_jsonINS_3mapENS_6vectorENS_12basic_stringIcNS_11char_traitsIcEENS_9allocatorIcEEEEbxydS9_NS2_14adl_serializerENS5_IhNS9_IhEEEEEERNS9_ISF_EEED2Ev, symObjAddr: 0x17AA0, symBinAddr: 0x100020BC8, symSize: 0x8C }
  - { offsetInCU: 0x50D5A, offset: 0x50D5A, size: 0x8, addend: 0x0, symName: __ZNSt3__114__split_bufferIN8nlohmann16json_abi_v3_11_210basic_jsonINS_3mapENS_6vectorENS_12basic_stringIcNS_11char_traitsIcEENS_9allocatorIcEEEEbxydS9_NS2_14adl_serializerENS5_IhNS9_IhEEEEEERNS9_ISF_EEE5clearB7v160006Ev, symObjAddr: 0x17B2C, symBinAddr: 0x100020C54, symSize: 0x28 }
  - { offsetInCU: 0x50D7F, offset: 0x50D7F, size: 0x8, addend: 0x0, symName: __ZNSt3__116allocator_traitsINS_9allocatorIN8nlohmann16json_abi_v3_11_210basic_jsonINS_3mapENS_6vectorENS_12basic_stringIcNS_11char_traitsIcEENS1_IcEEEEbxydS1_NS3_14adl_serializerENS6_IhNS1_IhEEEEEEEEE10deallocateB7v160006ERSG_PSF_m, symObjAddr: 0x17B54, symBinAddr: 0x100020C7C, symSize: 0x34 }
  - { offsetInCU: 0x50DC0, offset: 0x50DC0, size: 0x8, addend: 0x0, symName: __ZNKSt3__114__split_bufferIN8nlohmann16json_abi_v3_11_210basic_jsonINS_3mapENS_6vectorENS_12basic_stringIcNS_11char_traitsIcEENS_9allocatorIcEEEEbxydS9_NS2_14adl_serializerENS5_IhNS9_IhEEEEEERNS9_ISF_EEE8capacityB7v160006Ev, symObjAddr: 0x17B88, symBinAddr: 0x100020CB0, symSize: 0x40 }
  - { offsetInCU: 0x50DE4, offset: 0x50DE4, size: 0x8, addend: 0x0, symName: __ZNSt3__114__split_bufferIN8nlohmann16json_abi_v3_11_210basic_jsonINS_3mapENS_6vectorENS_12basic_stringIcNS_11char_traitsIcEENS_9allocatorIcEEEEbxydS9_NS2_14adl_serializerENS5_IhNS9_IhEEEEEERNS9_ISF_EEE17__destruct_at_endB7v160006EPSF_, symObjAddr: 0x17BC8, symBinAddr: 0x100020CF0, symSize: 0x2C }
  - { offsetInCU: 0x50E17, offset: 0x50E17, size: 0x8, addend: 0x0, symName: __ZNSt3__114__split_bufferIN8nlohmann16json_abi_v3_11_210basic_jsonINS_3mapENS_6vectorENS_12basic_stringIcNS_11char_traitsIcEENS_9allocatorIcEEEEbxydS9_NS2_14adl_serializerENS5_IhNS9_IhEEEEEERNS9_ISF_EEE17__destruct_at_endB7v160006EPSF_NS_17integral_constantIbLb0EEE, symObjAddr: 0x17BF4, symBinAddr: 0x100020D1C, symSize: 0x80 }
  - { offsetInCU: 0x50E56, offset: 0x50E56, size: 0x8, addend: 0x0, symName: __ZNSt3__19allocatorIN8nlohmann16json_abi_v3_11_210basic_jsonINS_3mapENS_6vectorENS_12basic_stringIcNS_11char_traitsIcEENS0_IcEEEEbxydS0_NS2_14adl_serializerENS5_IhNS0_IhEEEEEEE10deallocateB7v160006EPSE_m, symObjAddr: 0x17C74, symBinAddr: 0x100020D9C, symSize: 0x40 }
  - { offsetInCU: 0x50E96, offset: 0x50E96, size: 0x8, addend: 0x0, symName: __ZNKSt3__114__split_bufferIN8nlohmann16json_abi_v3_11_210basic_jsonINS_3mapENS_6vectorENS_12basic_stringIcNS_11char_traitsIcEENS_9allocatorIcEEEEbxydS9_NS2_14adl_serializerENS5_IhNS9_IhEEEEEERNS9_ISF_EEE9__end_capB7v160006Ev, symObjAddr: 0x17CB4, symBinAddr: 0x100020DDC, symSize: 0x28 }
  - { offsetInCU: 0x50EBA, offset: 0x50EBA, size: 0x8, addend: 0x0, symName: __ZNKSt3__117__compressed_pairIPN8nlohmann16json_abi_v3_11_210basic_jsonINS_3mapENS_6vectorENS_12basic_stringIcNS_11char_traitsIcEENS_9allocatorIcEEEEbxydS9_NS2_14adl_serializerENS5_IhNS9_IhEEEEEERNS9_ISF_EEE5firstB7v160006Ev, symObjAddr: 0x17CDC, symBinAddr: 0x100020E04, symSize: 0x24 }
  - { offsetInCU: 0x50EDF, offset: 0x50EDF, size: 0x8, addend: 0x0, symName: __ZNSt3__14pairIbPN8nlohmann16json_abi_v3_11_210basic_jsonINS_3mapENS_6vectorENS_12basic_stringIcNS_11char_traitsIcEENS_9allocatorIcEEEEbxydS9_NS2_14adl_serializerENS5_IhNS9_IhEEEEEEEC2B7v160006IbRSG_LPv0EEEOT_OT0_, symObjAddr: 0x17D00, symBinAddr: 0x100020E28, symSize: 0x38 }
  - { offsetInCU: 0x50F3B, offset: 0x50F3B, size: 0x8, addend: 0x0, symName: __ZNSt3__16vectorIPN8nlohmann16json_abi_v3_11_210basic_jsonINS_3mapES0_NS_12basic_stringIcNS_11char_traitsIcEENS_9allocatorIcEEEEbxydS8_NS2_14adl_serializerENS0_IhNS8_IhEEEEEENS8_ISF_EEE9__end_capB7v160006Ev, symObjAddr: 0x17D38, symBinAddr: 0x100020E60, symSize: 0x28 }
  - { offsetInCU: 0x50F5F, offset: 0x50F5F, size: 0x8, addend: 0x0, symName: __ZNSt3__16vectorIPN8nlohmann16json_abi_v3_11_210basic_jsonINS_3mapES0_NS_12basic_stringIcNS_11char_traitsIcEENS_9allocatorIcEEEEbxydS8_NS2_14adl_serializerENS0_IhNS8_IhEEEEEENS8_ISF_EEE22__construct_one_at_endB7v160006IJRKSF_EEEvDpOT_, symObjAddr: 0x17D60, symBinAddr: 0x100020E88, symSize: 0x90 }
  - { offsetInCU: 0x50FAD, offset: 0x50FAD, size: 0x8, addend: 0x0, symName: __ZNSt3__16vectorIPN8nlohmann16json_abi_v3_11_210basic_jsonINS_3mapES0_NS_12basic_stringIcNS_11char_traitsIcEENS_9allocatorIcEEEEbxydS8_NS2_14adl_serializerENS0_IhNS8_IhEEEEEENS8_ISF_EEE21__push_back_slow_pathIRKSF_EEvOT_, symObjAddr: 0x17DF0, symBinAddr: 0x100020F18, symSize: 0xD8 }
  - { offsetInCU: 0x51009, offset: 0x51009, size: 0x8, addend: 0x0, symName: __ZNSt3__117__compressed_pairIPPN8nlohmann16json_abi_v3_11_210basic_jsonINS_3mapENS_6vectorENS_12basic_stringIcNS_11char_traitsIcEENS_9allocatorIcEEEEbxydS9_NS2_14adl_serializerENS5_IhNS9_IhEEEEEENS9_ISG_EEE5firstB7v160006Ev, symObjAddr: 0x17EC8, symBinAddr: 0x100020FF0, symSize: 0x24 }
  - { offsetInCU: 0x5102E, offset: 0x5102E, size: 0x8, addend: 0x0, symName: __ZNSt3__122__compressed_pair_elemIPPN8nlohmann16json_abi_v3_11_210basic_jsonINS_3mapENS_6vectorENS_12basic_stringIcNS_11char_traitsIcEENS_9allocatorIcEEEEbxydS9_NS2_14adl_serializerENS5_IhNS9_IhEEEEEELi0ELb0EE5__getB7v160006Ev, symObjAddr: 0x17EEC, symBinAddr: 0x100021014, symSize: 0x14 }
  - { offsetInCU: 0x5106C, offset: 0x5106C, size: 0x8, addend: 0x0, symName: __ZNSt3__16vectorIPN8nlohmann16json_abi_v3_11_210basic_jsonINS_3mapES0_NS_12basic_stringIcNS_11char_traitsIcEENS_9allocatorIcEEEEbxydS8_NS2_14adl_serializerENS0_IhNS8_IhEEEEEENS8_ISF_EEE21_ConstructTransactionC1B7v160006ERSH_m, symObjAddr: 0x17F00, symBinAddr: 0x100021028, symSize: 0x3C }
  - { offsetInCU: 0x510B3, offset: 0x510B3, size: 0x8, addend: 0x0, symName: __ZNSt3__116allocator_traitsINS_9allocatorIPN8nlohmann16json_abi_v3_11_210basic_jsonINS_3mapENS_6vectorENS_12basic_stringIcNS_11char_traitsIcEENS1_IcEEEEbxydS1_NS3_14adl_serializerENS6_IhNS1_IhEEEEEEEEE9constructB7v160006ISG_JRKSG_EvEEvRSH_PT_DpOT0_, symObjAddr: 0x17F3C, symBinAddr: 0x100021064, symSize: 0x34 }
  - { offsetInCU: 0x5110B, offset: 0x5110B, size: 0x8, addend: 0x0, symName: __ZNSt3__16vectorIPN8nlohmann16json_abi_v3_11_210basic_jsonINS_3mapES0_NS_12basic_stringIcNS_11char_traitsIcEENS_9allocatorIcEEEEbxydS8_NS2_14adl_serializerENS0_IhNS8_IhEEEEEENS8_ISF_EEE21_ConstructTransactionD1B7v160006Ev, symObjAddr: 0x17F70, symBinAddr: 0x100021098, symSize: 0x2C }
  - { offsetInCU: 0x51134, offset: 0x51134, size: 0x8, addend: 0x0, symName: __ZNSt3__16vectorIPN8nlohmann16json_abi_v3_11_210basic_jsonINS_3mapES0_NS_12basic_stringIcNS_11char_traitsIcEENS_9allocatorIcEEEEbxydS8_NS2_14adl_serializerENS0_IhNS8_IhEEEEEENS8_ISF_EEE21_ConstructTransactionC2B7v160006ERSH_m, symObjAddr: 0x17F9C, symBinAddr: 0x1000210C4, symSize: 0x44 }
  - { offsetInCU: 0x5117B, offset: 0x5117B, size: 0x8, addend: 0x0, symName: __ZNSt3__19allocatorIPN8nlohmann16json_abi_v3_11_210basic_jsonINS_3mapENS_6vectorENS_12basic_stringIcNS_11char_traitsIcEENS0_IcEEEEbxydS0_NS2_14adl_serializerENS5_IhNS0_IhEEEEEEE9constructB7v160006ISF_JRKSF_EEEvPT_DpOT0_, symObjAddr: 0x17FE0, symBinAddr: 0x100021108, symSize: 0x28 }
  - { offsetInCU: 0x511D0, offset: 0x511D0, size: 0x8, addend: 0x0, symName: __ZNSt3__16vectorIPN8nlohmann16json_abi_v3_11_210basic_jsonINS_3mapES0_NS_12basic_stringIcNS_11char_traitsIcEENS_9allocatorIcEEEEbxydS8_NS2_14adl_serializerENS0_IhNS8_IhEEEEEENS8_ISF_EEE21_ConstructTransactionD2B7v160006Ev, symObjAddr: 0x18008, symBinAddr: 0x100021130, symSize: 0x20 }
  - { offsetInCU: 0x511F9, offset: 0x511F9, size: 0x8, addend: 0x0, symName: __ZNKSt3__16vectorIPN8nlohmann16json_abi_v3_11_210basic_jsonINS_3mapES0_NS_12basic_stringIcNS_11char_traitsIcEENS_9allocatorIcEEEEbxydS8_NS2_14adl_serializerENS0_IhNS8_IhEEEEEENS8_ISF_EEE11__recommendB7v160006Em, symObjAddr: 0x18028, symBinAddr: 0x100021150, symSize: 0xB4 }
  - { offsetInCU: 0x5124D, offset: 0x5124D, size: 0x8, addend: 0x0, symName: __ZNSt3__114__split_bufferIPN8nlohmann16json_abi_v3_11_210basic_jsonINS_3mapENS_6vectorENS_12basic_stringIcNS_11char_traitsIcEENS_9allocatorIcEEEEbxydS9_NS2_14adl_serializerENS5_IhNS9_IhEEEEEERNS9_ISG_EEEC1EmmSI_, symObjAddr: 0x180DC, symBinAddr: 0x100021204, symSize: 0x44 }
  - { offsetInCU: 0x512A2, offset: 0x512A2, size: 0x8, addend: 0x0, symName: __ZNSt3__114__split_bufferIPN8nlohmann16json_abi_v3_11_210basic_jsonINS_3mapENS_6vectorENS_12basic_stringIcNS_11char_traitsIcEENS_9allocatorIcEEEEbxydS9_NS2_14adl_serializerENS5_IhNS9_IhEEEEEERNS9_ISG_EEED1Ev, symObjAddr: 0x18238, symBinAddr: 0x100021360, symSize: 0x2C }
  - { offsetInCU: 0x512CD, offset: 0x512CD, size: 0x8, addend: 0x0, symName: __ZNKSt3__16vectorIPN8nlohmann16json_abi_v3_11_210basic_jsonINS_3mapES0_NS_12basic_stringIcNS_11char_traitsIcEENS_9allocatorIcEEEEbxydS8_NS2_14adl_serializerENS0_IhNS8_IhEEEEEENS8_ISF_EEE8max_sizeEv, symObjAddr: 0x18264, symBinAddr: 0x10002138C, symSize: 0x60 }
  - { offsetInCU: 0x512F3, offset: 0x512F3, size: 0x8, addend: 0x0, symName: __ZNKSt3__16vectorIPN8nlohmann16json_abi_v3_11_210basic_jsonINS_3mapES0_NS_12basic_stringIcNS_11char_traitsIcEENS_9allocatorIcEEEEbxydS8_NS2_14adl_serializerENS0_IhNS8_IhEEEEEENS8_ISF_EEE20__throw_length_errorB7v160006Ev, symObjAddr: 0x182C4, symBinAddr: 0x1000213EC, symSize: 0x1C }
  - { offsetInCU: 0x51322, offset: 0x51322, size: 0x8, addend: 0x0, symName: __ZNSt3__116allocator_traitsINS_9allocatorIPN8nlohmann16json_abi_v3_11_210basic_jsonINS_3mapENS_6vectorENS_12basic_stringIcNS_11char_traitsIcEENS1_IcEEEEbxydS1_NS3_14adl_serializerENS6_IhNS1_IhEEEEEEEEE8max_sizeB7v160006ISH_vEEmRKSH_, symObjAddr: 0x182E0, symBinAddr: 0x100021408, symSize: 0x24 }
  - { offsetInCU: 0x51350, offset: 0x51350, size: 0x8, addend: 0x0, symName: __ZNKSt3__16vectorIPN8nlohmann16json_abi_v3_11_210basic_jsonINS_3mapES0_NS_12basic_stringIcNS_11char_traitsIcEENS_9allocatorIcEEEEbxydS8_NS2_14adl_serializerENS0_IhNS8_IhEEEEEENS8_ISF_EEE7__allocB7v160006Ev, symObjAddr: 0x18304, symBinAddr: 0x10002142C, symSize: 0x28 }
  - { offsetInCU: 0x51375, offset: 0x51375, size: 0x8, addend: 0x0, symName: __ZNKSt3__19allocatorIPN8nlohmann16json_abi_v3_11_210basic_jsonINS_3mapENS_6vectorENS_12basic_stringIcNS_11char_traitsIcEENS0_IcEEEEbxydS0_NS2_14adl_serializerENS5_IhNS0_IhEEEEEEE8max_sizeB7v160006Ev, symObjAddr: 0x1832C, symBinAddr: 0x100021454, symSize: 0x14 }
  - { offsetInCU: 0x51399, offset: 0x51399, size: 0x8, addend: 0x0, symName: __ZNKSt3__117__compressed_pairIPPN8nlohmann16json_abi_v3_11_210basic_jsonINS_3mapENS_6vectorENS_12basic_stringIcNS_11char_traitsIcEENS_9allocatorIcEEEEbxydS9_NS2_14adl_serializerENS5_IhNS9_IhEEEEEENS9_ISG_EEE6secondB7v160006Ev, symObjAddr: 0x18340, symBinAddr: 0x100021468, symSize: 0x24 }
  - { offsetInCU: 0x513BE, offset: 0x513BE, size: 0x8, addend: 0x0, symName: __ZNKSt3__122__compressed_pair_elemINS_9allocatorIPN8nlohmann16json_abi_v3_11_210basic_jsonINS_3mapENS_6vectorENS_12basic_stringIcNS_11char_traitsIcEENS1_IcEEEEbxydS1_NS3_14adl_serializerENS6_IhNS1_IhEEEEEEEELi1ELb1EE5__getB7v160006Ev, symObjAddr: 0x18364, symBinAddr: 0x10002148C, symSize: 0x14 }
  - { offsetInCU: 0x513E3, offset: 0x513E3, size: 0x8, addend: 0x0, symName: __ZNSt3__114__split_bufferIPN8nlohmann16json_abi_v3_11_210basic_jsonINS_3mapENS_6vectorENS_12basic_stringIcNS_11char_traitsIcEENS_9allocatorIcEEEEbxydS9_NS2_14adl_serializerENS5_IhNS9_IhEEEEEERNS9_ISG_EEEC2EmmSI_, symObjAddr: 0x18378, symBinAddr: 0x1000214A0, symSize: 0xD4 }
  - { offsetInCU: 0x51456, offset: 0x51456, size: 0x8, addend: 0x0, symName: __ZNSt3__117__compressed_pairIPPN8nlohmann16json_abi_v3_11_210basic_jsonINS_3mapENS_6vectorENS_12basic_stringIcNS_11char_traitsIcEENS_9allocatorIcEEEEbxydS9_NS2_14adl_serializerENS5_IhNS9_IhEEEEEERNS9_ISG_EEEC1B7v160006IDnSJ_EEOT_OT0_, symObjAddr: 0x1844C, symBinAddr: 0x100021574, symSize: 0x3C }
  - { offsetInCU: 0x514AC, offset: 0x514AC, size: 0x8, addend: 0x0, symName: __ZNSt3__114__split_bufferIPN8nlohmann16json_abi_v3_11_210basic_jsonINS_3mapENS_6vectorENS_12basic_stringIcNS_11char_traitsIcEENS_9allocatorIcEEEEbxydS9_NS2_14adl_serializerENS5_IhNS9_IhEEEEEERNS9_ISG_EEE7__allocB7v160006Ev, symObjAddr: 0x184C8, symBinAddr: 0x1000215F0, symSize: 0x28 }
  - { offsetInCU: 0x514D0, offset: 0x514D0, size: 0x8, addend: 0x0, symName: __ZNSt3__114__split_bufferIPN8nlohmann16json_abi_v3_11_210basic_jsonINS_3mapENS_6vectorENS_12basic_stringIcNS_11char_traitsIcEENS_9allocatorIcEEEEbxydS9_NS2_14adl_serializerENS5_IhNS9_IhEEEEEERNS9_ISG_EEE9__end_capB7v160006Ev, symObjAddr: 0x184F0, symBinAddr: 0x100021618, symSize: 0x28 }
  - { offsetInCU: 0x514F5, offset: 0x514F5, size: 0x8, addend: 0x0, symName: __ZNSt3__117__compressed_pairIPPN8nlohmann16json_abi_v3_11_210basic_jsonINS_3mapENS_6vectorENS_12basic_stringIcNS_11char_traitsIcEENS_9allocatorIcEEEEbxydS9_NS2_14adl_serializerENS5_IhNS9_IhEEEEEERNS9_ISG_EEEC2B7v160006IDnSJ_EEOT_OT0_, symObjAddr: 0x18518, symBinAddr: 0x100021640, symSize: 0x48 }
  - { offsetInCU: 0x5154C, offset: 0x5154C, size: 0x8, addend: 0x0, symName: __ZNSt3__122__compressed_pair_elemIRNS_9allocatorIPN8nlohmann16json_abi_v3_11_210basic_jsonINS_3mapENS_6vectorENS_12basic_stringIcNS_11char_traitsIcEENS1_IcEEEEbxydS1_NS3_14adl_serializerENS6_IhNS1_IhEEEEEEEELi1ELb0EEC2B7v160006ISI_vEEOT_, symObjAddr: 0x18560, symBinAddr: 0x100021688, symSize: 0x20 }
  - { offsetInCU: 0x5158D, offset: 0x5158D, size: 0x8, addend: 0x0, symName: __ZNSt3__19allocatorIPN8nlohmann16json_abi_v3_11_210basic_jsonINS_3mapENS_6vectorENS_12basic_stringIcNS_11char_traitsIcEENS0_IcEEEEbxydS0_NS2_14adl_serializerENS5_IhNS0_IhEEEEEEE8allocateB7v160006Em, symObjAddr: 0x18580, symBinAddr: 0x1000216A8, symSize: 0x58 }
  - { offsetInCU: 0x515BF, offset: 0x515BF, size: 0x8, addend: 0x0, symName: __ZNSt3__117__compressed_pairIPPN8nlohmann16json_abi_v3_11_210basic_jsonINS_3mapENS_6vectorENS_12basic_stringIcNS_11char_traitsIcEENS_9allocatorIcEEEEbxydS9_NS2_14adl_serializerENS5_IhNS9_IhEEEEEERNS9_ISG_EEE6secondB7v160006Ev, symObjAddr: 0x185D8, symBinAddr: 0x100021700, symSize: 0x28 }
  - { offsetInCU: 0x515E4, offset: 0x515E4, size: 0x8, addend: 0x0, symName: __ZNSt3__122__compressed_pair_elemIRNS_9allocatorIPN8nlohmann16json_abi_v3_11_210basic_jsonINS_3mapENS_6vectorENS_12basic_stringIcNS_11char_traitsIcEENS1_IcEEEEbxydS1_NS3_14adl_serializerENS6_IhNS1_IhEEEEEEEELi1ELb0EE5__getB7v160006Ev, symObjAddr: 0x18600, symBinAddr: 0x100021728, symSize: 0x18 }
  - { offsetInCU: 0x51608, offset: 0x51608, size: 0x8, addend: 0x0, symName: __ZNSt3__117__compressed_pairIPPN8nlohmann16json_abi_v3_11_210basic_jsonINS_3mapENS_6vectorENS_12basic_stringIcNS_11char_traitsIcEENS_9allocatorIcEEEEbxydS9_NS2_14adl_serializerENS5_IhNS9_IhEEEEEERNS9_ISG_EEE5firstB7v160006Ev, symObjAddr: 0x18618, symBinAddr: 0x100021740, symSize: 0x24 }
  - { offsetInCU: 0x5162D, offset: 0x5162D, size: 0x8, addend: 0x0, symName: __ZNSt3__116reverse_iteratorIPPN8nlohmann16json_abi_v3_11_210basic_jsonINS_3mapENS_6vectorENS_12basic_stringIcNS_11char_traitsIcEENS_9allocatorIcEEEEbxydS9_NS2_14adl_serializerENS5_IhNS9_IhEEEEEEEC1B7v160006ESH_, symObjAddr: 0x186B4, symBinAddr: 0x1000217DC, symSize: 0x34 }
  - { offsetInCU: 0x51664, offset: 0x51664, size: 0x8, addend: 0x0, symName: __ZNKSt3__116reverse_iteratorIPPN8nlohmann16json_abi_v3_11_210basic_jsonINS_3mapENS_6vectorENS_12basic_stringIcNS_11char_traitsIcEENS_9allocatorIcEEEEbxydS9_NS2_14adl_serializerENS5_IhNS9_IhEEEEEEE4baseB7v160006Ev, symObjAddr: 0x186E8, symBinAddr: 0x100021810, symSize: 0x18 }
  - { offsetInCU: 0x51688, offset: 0x51688, size: 0x8, addend: 0x0, symName: __ZNKSt3__16vectorIPN8nlohmann16json_abi_v3_11_210basic_jsonINS_3mapES0_NS_12basic_stringIcNS_11char_traitsIcEENS_9allocatorIcEEEEbxydS8_NS2_14adl_serializerENS0_IhNS8_IhEEEEEENS8_ISF_EEE14__annotate_newB7v160006Em, symObjAddr: 0x1873C, symBinAddr: 0x100021864, symSize: 0xAC }
  - { offsetInCU: 0x516D5, offset: 0x516D5, size: 0x8, addend: 0x0, symName: __ZNKSt3__111__move_loopINS_17_ClassicAlgPolicyEEclB7v160006INS_16reverse_iteratorIPPN8nlohmann16json_abi_v3_11_210basic_jsonINS_3mapENS_6vectorENS_12basic_stringIcNS_11char_traitsIcEENS_9allocatorIcEEEEbxydSD_NS6_14adl_serializerENS9_IhNSD_IhEEEEEEEESM_SM_EENS_4pairIT_T1_EESO_T0_SP_, symObjAddr: 0x18AE8, symBinAddr: 0x100021C10, symSize: 0xA0 }
  - { offsetInCU: 0x5173F, offset: 0x5173F, size: 0x8, addend: 0x0, symName: __ZNSt3__18_IterOpsINS_17_ClassicAlgPolicyEE11__iter_moveB7v160006IRNS_16reverse_iteratorIPPN8nlohmann16json_abi_v3_11_210basic_jsonINS_3mapENS_6vectorENS_12basic_stringIcNS_11char_traitsIcEENS_9allocatorIcEEEEbxydSD_NS6_14adl_serializerENS9_IhNSD_IhEEEEEEEEEENS_9enable_ifIXsr12is_referenceIDTdeclsr3stdE7declvalIRT_EEEEE5valueEDTclsr3stdE4movedeclsr3stdE7declvalISQ_EEEEE4typeEOSP_, symObjAddr: 0x18D1C, symBinAddr: 0x100021E44, symSize: 0x28 }
  - { offsetInCU: 0x5176B, offset: 0x5176B, size: 0x8, addend: 0x0, symName: __ZNKSt3__116reverse_iteratorIPPN8nlohmann16json_abi_v3_11_210basic_jsonINS_3mapENS_6vectorENS_12basic_stringIcNS_11char_traitsIcEENS_9allocatorIcEEEEbxydS9_NS2_14adl_serializerENS5_IhNS9_IhEEEEEEEdeB7v160006Ev, symObjAddr: 0x18D44, symBinAddr: 0x100021E6C, symSize: 0x28 }
  - { offsetInCU: 0x5179F, offset: 0x5179F, size: 0x8, addend: 0x0, symName: __ZNSt3__116reverse_iteratorIPPN8nlohmann16json_abi_v3_11_210basic_jsonINS_3mapENS_6vectorENS_12basic_stringIcNS_11char_traitsIcEENS_9allocatorIcEEEEbxydS9_NS2_14adl_serializerENS5_IhNS9_IhEEEEEEEppB7v160006Ev, symObjAddr: 0x18D6C, symBinAddr: 0x100021E94, symSize: 0x20 }
  - { offsetInCU: 0x517C4, offset: 0x517C4, size: 0x8, addend: 0x0, symName: __ZNSt3__18_IterOpsINS_17_ClassicAlgPolicyEE25__validate_iter_referenceB7v160006IRNS_16reverse_iteratorIPPN8nlohmann16json_abi_v3_11_210basic_jsonINS_3mapENS_6vectorENS_12basic_stringIcNS_11char_traitsIcEENS_9allocatorIcEEEEbxydSD_NS6_14adl_serializerENS9_IhNSD_IhEEEEEEEEEEvv, symObjAddr: 0x18D8C, symBinAddr: 0x100021EB4, symSize: 0x4 }
  - { offsetInCU: 0x517E2, offset: 0x517E2, size: 0x8, addend: 0x0, symName: __ZNSt3__118__unwrap_iter_implINS_16reverse_iteratorIPPN8nlohmann16json_abi_v3_11_210basic_jsonINS_3mapENS_6vectorENS_12basic_stringIcNS_11char_traitsIcEENS_9allocatorIcEEEEbxydSA_NS3_14adl_serializerENS6_IhNSA_IhEEEEEEEELb0EE8__unwrapB7v160006ESJ_, symObjAddr: 0x18D90, symBinAddr: 0x100021EB8, symSize: 0x24 }
  - { offsetInCU: 0x5180B, offset: 0x5180B, size: 0x8, addend: 0x0, symName: __ZNSt3__14pairINS_16reverse_iteratorIPPN8nlohmann16json_abi_v3_11_210basic_jsonINS_3mapENS_6vectorENS_12basic_stringIcNS_11char_traitsIcEENS_9allocatorIcEEEEbxydSA_NS3_14adl_serializerENS6_IhNSA_IhEEEEEEEESJ_EC1B7v160006ISJ_SJ_LPv0EEEOT_OT0_, symObjAddr: 0x18DB4, symBinAddr: 0x100021EDC, symSize: 0x3C }
  - { offsetInCU: 0x51868, offset: 0x51868, size: 0x8, addend: 0x0, symName: __ZNSt3__14pairINS_16reverse_iteratorIPPN8nlohmann16json_abi_v3_11_210basic_jsonINS_3mapENS_6vectorENS_12basic_stringIcNS_11char_traitsIcEENS_9allocatorIcEEEEbxydSA_NS3_14adl_serializerENS6_IhNSA_IhEEEEEEEESJ_EC2B7v160006ISJ_SJ_LPv0EEEOT_OT0_, symObjAddr: 0x18DF0, symBinAddr: 0x100021F18, symSize: 0x34 }
  - { offsetInCU: 0x518C5, offset: 0x518C5, size: 0x8, addend: 0x0, symName: __ZNSt3__118__unwrap_iter_implINS_16reverse_iteratorIPPN8nlohmann16json_abi_v3_11_210basic_jsonINS_3mapENS_6vectorENS_12basic_stringIcNS_11char_traitsIcEENS_9allocatorIcEEEEbxydSA_NS3_14adl_serializerENS6_IhNSA_IhEEEEEEEELb0EE8__rewrapB7v160006ESJ_SJ_, symObjAddr: 0x18E24, symBinAddr: 0x100021F4C, symSize: 0x2C }
  - { offsetInCU: 0x518F3, offset: 0x518F3, size: 0x8, addend: 0x0, symName: __ZNSt3__116reverse_iteratorIPPN8nlohmann16json_abi_v3_11_210basic_jsonINS_3mapENS_6vectorENS_12basic_stringIcNS_11char_traitsIcEENS_9allocatorIcEEEEbxydS9_NS2_14adl_serializerENS5_IhNS9_IhEEEEEEEC2B7v160006ESH_, symObjAddr: 0x18E50, symBinAddr: 0x100021F78, symSize: 0x28 }
  - { offsetInCU: 0x5192A, offset: 0x5192A, size: 0x8, addend: 0x0, symName: __ZNSt3__114__split_bufferIPN8nlohmann16json_abi_v3_11_210basic_jsonINS_3mapENS_6vectorENS_12basic_stringIcNS_11char_traitsIcEENS_9allocatorIcEEEEbxydS9_NS2_14adl_serializerENS5_IhNS9_IhEEEEEERNS9_ISG_EEED2Ev, symObjAddr: 0x18E78, symBinAddr: 0x100021FA0, symSize: 0x8C }
  - { offsetInCU: 0x51954, offset: 0x51954, size: 0x8, addend: 0x0, symName: __ZNSt3__114__split_bufferIPN8nlohmann16json_abi_v3_11_210basic_jsonINS_3mapENS_6vectorENS_12basic_stringIcNS_11char_traitsIcEENS_9allocatorIcEEEEbxydS9_NS2_14adl_serializerENS5_IhNS9_IhEEEEEERNS9_ISG_EEE5clearB7v160006Ev, symObjAddr: 0x18F04, symBinAddr: 0x10002202C, symSize: 0x28 }
  - { offsetInCU: 0x51978, offset: 0x51978, size: 0x8, addend: 0x0, symName: __ZNKSt3__114__split_bufferIPN8nlohmann16json_abi_v3_11_210basic_jsonINS_3mapENS_6vectorENS_12basic_stringIcNS_11char_traitsIcEENS_9allocatorIcEEEEbxydS9_NS2_14adl_serializerENS5_IhNS9_IhEEEEEERNS9_ISG_EEE8capacityB7v160006Ev, symObjAddr: 0x18F2C, symBinAddr: 0x100022054, symSize: 0x40 }
  - { offsetInCU: 0x5199C, offset: 0x5199C, size: 0x8, addend: 0x0, symName: __ZNSt3__114__split_bufferIPN8nlohmann16json_abi_v3_11_210basic_jsonINS_3mapENS_6vectorENS_12basic_stringIcNS_11char_traitsIcEENS_9allocatorIcEEEEbxydS9_NS2_14adl_serializerENS5_IhNS9_IhEEEEEERNS9_ISG_EEE17__destruct_at_endB7v160006EPSG_, symObjAddr: 0x18F6C, symBinAddr: 0x100022094, symSize: 0x2C }
  - { offsetInCU: 0x519CF, offset: 0x519CF, size: 0x8, addend: 0x0, symName: __ZNSt3__114__split_bufferIPN8nlohmann16json_abi_v3_11_210basic_jsonINS_3mapENS_6vectorENS_12basic_stringIcNS_11char_traitsIcEENS_9allocatorIcEEEEbxydS9_NS2_14adl_serializerENS5_IhNS9_IhEEEEEERNS9_ISG_EEE17__destruct_at_endB7v160006EPSG_NS_17integral_constantIbLb0EEE, symObjAddr: 0x18F98, symBinAddr: 0x1000220C0, symSize: 0x80 }
  - { offsetInCU: 0x51A0E, offset: 0x51A0E, size: 0x8, addend: 0x0, symName: __ZNKSt3__114__split_bufferIPN8nlohmann16json_abi_v3_11_210basic_jsonINS_3mapENS_6vectorENS_12basic_stringIcNS_11char_traitsIcEENS_9allocatorIcEEEEbxydS9_NS2_14adl_serializerENS5_IhNS9_IhEEEEEERNS9_ISG_EEE9__end_capB7v160006Ev, symObjAddr: 0x19018, symBinAddr: 0x100022140, symSize: 0x28 }
  - { offsetInCU: 0x51A32, offset: 0x51A32, size: 0x8, addend: 0x0, symName: __ZNKSt3__117__compressed_pairIPPN8nlohmann16json_abi_v3_11_210basic_jsonINS_3mapENS_6vectorENS_12basic_stringIcNS_11char_traitsIcEENS_9allocatorIcEEEEbxydS9_NS2_14adl_serializerENS5_IhNS9_IhEEEEEERNS9_ISG_EEE5firstB7v160006Ev, symObjAddr: 0x19040, symBinAddr: 0x100022168, symSize: 0x24 }
  - { offsetInCU: 0x51A56, offset: 0x51A56, size: 0x8, addend: 0x0, symName: __ZNKSt3__13mapINS_12basic_stringIcNS_11char_traitsIcEENS_9allocatorIcEEEEN8nlohmann16json_abi_v3_11_210basic_jsonIS0_NS_6vectorES6_bxydS4_NS8_14adl_serializerENSA_IhNS4_IhEEEEEENS_4lessIvEENS4_INS_4pairIKS6_SE_EEEEE8max_sizeB7v160006Ev, symObjAddr: 0x19064, symBinAddr: 0x10002218C, symSize: 0x24 }
  - { offsetInCU: 0x51A7A, offset: 0x51A7A, size: 0x8, addend: 0x0, symName: __ZNK8nlohmann16json_abi_v3_11_210basic_jsonINSt3__13mapENS2_6vectorENS2_12basic_stringIcNS2_11char_traitsIcEENS2_9allocatorIcEEEEbxydS8_NS0_14adl_serializerENS4_IhNS8_IhEEEEE4sizeEv, symObjAddr: 0x19088, symBinAddr: 0x1000221B0, symSize: 0xA4 }
  - { offsetInCU: 0x51A9E, offset: 0x51A9E, size: 0x8, addend: 0x0, symName: __ZNKSt3__16__treeINS_12__value_typeINS_12basic_stringIcNS_11char_traitsIcEENS_9allocatorIcEEEEN8nlohmann16json_abi_v3_11_210basic_jsonINS_3mapENS_6vectorES7_bxydS5_NS9_14adl_serializerENSC_IhNS5_IhEEEEEEEENS_19__map_value_compareIS7_SH_NS_4lessIvEELb1EEENS5_ISH_EEE8max_sizeB7v160006Ev, symObjAddr: 0x19154, symBinAddr: 0x10002227C, symSize: 0x60 }
  - { offsetInCU: 0x51ACD, offset: 0x51ACD, size: 0x8, addend: 0x0, symName: __ZNSt3__116allocator_traitsINS_9allocatorINS_11__tree_nodeINS_12__value_typeINS_12basic_stringIcNS_11char_traitsIcEENS1_IcEEEEN8nlohmann16json_abi_v3_11_210basic_jsonINS_3mapENS_6vectorES8_bxydS1_NSA_14adl_serializerENSD_IhNS1_IhEEEEEEEEPvEEEEE8max_sizeB7v160006ISL_vEEmRKSL_, symObjAddr: 0x191B4, symBinAddr: 0x1000222DC, symSize: 0x24 }
  - { offsetInCU: 0x51AFB, offset: 0x51AFB, size: 0x8, addend: 0x0, symName: __ZNKSt3__16__treeINS_12__value_typeINS_12basic_stringIcNS_11char_traitsIcEENS_9allocatorIcEEEEN8nlohmann16json_abi_v3_11_210basic_jsonINS_3mapENS_6vectorES7_bxydS5_NS9_14adl_serializerENSC_IhNS5_IhEEEEEEEENS_19__map_value_compareIS7_SH_NS_4lessIvEELb1EEENS5_ISH_EEE12__node_allocB7v160006Ev, symObjAddr: 0x191D8, symBinAddr: 0x100022300, symSize: 0x28 }
  - { offsetInCU: 0x51B20, offset: 0x51B20, size: 0x8, addend: 0x0, symName: __ZNKSt3__19allocatorINS_11__tree_nodeINS_12__value_typeINS_12basic_stringIcNS_11char_traitsIcEENS0_IcEEEEN8nlohmann16json_abi_v3_11_210basic_jsonINS_3mapENS_6vectorES7_bxydS0_NS9_14adl_serializerENSC_IhNS0_IhEEEEEEEEPvEEE8max_sizeB7v160006Ev, symObjAddr: 0x19200, symBinAddr: 0x100022328, symSize: 0x20 }
  - { offsetInCU: 0x51B44, offset: 0x51B44, size: 0x8, addend: 0x0, symName: __ZNKSt3__117__compressed_pairINS_15__tree_end_nodeIPNS_16__tree_node_baseIPvEEEENS_9allocatorINS_11__tree_nodeINS_12__value_typeINS_12basic_stringIcNS_11char_traitsIcEENS7_IcEEEEN8nlohmann16json_abi_v3_11_210basic_jsonINS_3mapENS_6vectorESE_bxydS7_NSG_14adl_serializerENSJ_IhNS7_IhEEEEEEEES3_EEEEE6secondB7v160006Ev, symObjAddr: 0x19220, symBinAddr: 0x100022348, symSize: 0x24 }
  - { offsetInCU: 0x51B69, offset: 0x51B69, size: 0x8, addend: 0x0, symName: __ZNKSt3__122__compressed_pair_elemINS_9allocatorINS_11__tree_nodeINS_12__value_typeINS_12basic_stringIcNS_11char_traitsIcEENS1_IcEEEEN8nlohmann16json_abi_v3_11_210basic_jsonINS_3mapENS_6vectorES8_bxydS1_NSA_14adl_serializerENSD_IhNS1_IhEEEEEEEEPvEEEELi1ELb1EE5__getB7v160006Ev, symObjAddr: 0x19244, symBinAddr: 0x10002236C, symSize: 0x14 }
  - { offsetInCU: 0x51B8D, offset: 0x51B8D, size: 0x8, addend: 0x0, symName: __ZNKSt3__13mapINS_12basic_stringIcNS_11char_traitsIcEENS_9allocatorIcEEEEN8nlohmann16json_abi_v3_11_210basic_jsonIS0_NS_6vectorES6_bxydS4_NS8_14adl_serializerENSA_IhNS4_IhEEEEEENS_4lessIvEENS4_INS_4pairIKS6_SE_EEEEE4sizeB7v160006Ev, symObjAddr: 0x19258, symBinAddr: 0x100022380, symSize: 0x28 }
  - { offsetInCU: 0x51BB1, offset: 0x51BB1, size: 0x8, addend: 0x0, symName: __ZNKSt3__16__treeINS_12__value_typeINS_12basic_stringIcNS_11char_traitsIcEENS_9allocatorIcEEEEN8nlohmann16json_abi_v3_11_210basic_jsonINS_3mapENS_6vectorES7_bxydS5_NS9_14adl_serializerENSC_IhNS5_IhEEEEEEEENS_19__map_value_compareIS7_SH_NS_4lessIvEELb1EEENS5_ISH_EEE4sizeB7v160006Ev, symObjAddr: 0x19280, symBinAddr: 0x1000223A8, symSize: 0x28 }
  - { offsetInCU: 0x51BD5, offset: 0x51BD5, size: 0x8, addend: 0x0, symName: __ZNKSt3__117__compressed_pairImNS_19__map_value_compareINS_12basic_stringIcNS_11char_traitsIcEENS_9allocatorIcEEEENS_12__value_typeIS7_N8nlohmann16json_abi_v3_11_210basic_jsonINS_3mapENS_6vectorES7_bxydS5_NSA_14adl_serializerENSD_IhNS5_IhEEEEEEEENS_4lessIvEELb1EEEE5firstB7v160006Ev, symObjAddr: 0x192A8, symBinAddr: 0x1000223D0, symSize: 0x24 }
  - { offsetInCU: 0x51BFA, offset: 0x51BFA, size: 0x8, addend: 0x0, symName: __ZN8nlohmann16json_abi_v3_11_26detail9exception11diagnosticsINS0_10basic_jsonINSt3__13mapENS5_6vectorENS5_12basic_stringIcNS5_11char_traitsIcEENS5_9allocatorIcEEEEbxydSB_NS0_14adl_serializerENS7_IhNSB_IhEEEEEEEESD_PKT_, symObjAddr: 0x192CC, symBinAddr: 0x1000223F4, symSize: 0x3C }
  - { offsetInCU: 0x51C27, offset: 0x51C27, size: 0x8, addend: 0x0, symName: __ZN8nlohmann16json_abi_v3_11_26detail12out_of_rangeC1EiPKc, symObjAddr: 0x19308, symBinAddr: 0x100022430, symSize: 0x3C }
  - { offsetInCU: 0x51C6E, offset: 0x51C6E, size: 0x8, addend: 0x0, symName: __ZN8nlohmann16json_abi_v3_11_26detail12out_of_rangeC2EiPKc, symObjAddr: 0x19344, symBinAddr: 0x10002246C, symSize: 0x54 }
  - { offsetInCU: 0x51CB5, offset: 0x51CB5, size: 0x8, addend: 0x0, symName: __ZN8nlohmann16json_abi_v3_11_26detail12out_of_rangeD0Ev, symObjAddr: 0x19398, symBinAddr: 0x1000224C0, symSize: 0x30 }
  - { offsetInCU: 0x51CE1, offset: 0x51CE1, size: 0x8, addend: 0x0, symName: __ZN8nlohmann16json_abi_v3_11_210basic_jsonINSt3__13mapENS2_6vectorENS2_12basic_stringIcNS2_11char_traitsIcEENS2_9allocatorIcEEEEbxydS8_NS0_14adl_serializerENS4_IhNS8_IhEEEEEC1ERKSE_, symObjAddr: 0x19478, symBinAddr: 0x1000225A0, symSize: 0x34 }
  - { offsetInCU: 0x51D19, offset: 0x51D19, size: 0x8, addend: 0x0, symName: __ZNSt3__16vectorIPN8nlohmann16json_abi_v3_11_210basic_jsonINS_3mapES0_NS_12basic_stringIcNS_11char_traitsIcEENS_9allocatorIcEEEEbxydS8_NS2_14adl_serializerENS0_IhNS8_IhEEEEEENS8_ISF_EEE8pop_backEv, symObjAddr: 0x194AC, symBinAddr: 0x1000225D4, symSize: 0x2C }
  - { offsetInCU: 0x51D3F, offset: 0x51D3F, size: 0x8, addend: 0x0, symName: __ZNK8nlohmann16json_abi_v3_11_210basic_jsonINSt3__13mapENS2_6vectorENS2_12basic_stringIcNS2_11char_traitsIcEENS2_9allocatorIcEEEEbxydS8_NS0_14adl_serializerENS4_IhNS8_IhEEEEE13is_structuredEv, symObjAddr: 0x194D8, symBinAddr: 0x100022600, symSize: 0x50 }
  - { offsetInCU: 0x51D63, offset: 0x51D63, size: 0x8, addend: 0x0, symName: __ZN8nlohmann16json_abi_v3_11_210basic_jsonINSt3__13mapENS2_6vectorENS2_12basic_stringIcNS2_11char_traitsIcEENS2_9allocatorIcEEEEbxydS8_NS0_14adl_serializerENS4_IhNS8_IhEEEEE5beginEv, symObjAddr: 0x19528, symBinAddr: 0x100022650, symSize: 0x40 }
  - { offsetInCU: 0x51D97, offset: 0x51D97, size: 0x8, addend: 0x0, symName: __ZNK8nlohmann16json_abi_v3_11_26detail9iter_implINS0_10basic_jsonINSt3__13mapENS4_6vectorENS4_12basic_stringIcNS4_11char_traitsIcEENS4_9allocatorIcEEEEbxydSA_NS0_14adl_serializerENS6_IhNSA_IhEEEEEEEneISH_LDn0EEEbRKT_, symObjAddr: 0x19568, symBinAddr: 0x100022690, symSize: 0x34 }
  - { offsetInCU: 0x51DD9, offset: 0x51DD9, size: 0x8, addend: 0x0, symName: __ZN8nlohmann16json_abi_v3_11_210basic_jsonINSt3__13mapENS2_6vectorENS2_12basic_stringIcNS2_11char_traitsIcEENS2_9allocatorIcEEEEbxydS8_NS0_14adl_serializerENS4_IhNS8_IhEEEEE3endEv, symObjAddr: 0x1959C, symBinAddr: 0x1000226C4, symSize: 0x40 }
  - { offsetInCU: 0x51E0D, offset: 0x51E0D, size: 0x8, addend: 0x0, symName: __ZNK8nlohmann16json_abi_v3_11_26detail9iter_implINS0_10basic_jsonINSt3__13mapENS4_6vectorENS4_12basic_stringIcNS4_11char_traitsIcEENS4_9allocatorIcEEEEbxydSA_NS0_14adl_serializerENS6_IhNSA_IhEEEEEEEptEv, symObjAddr: 0x195DC, symBinAddr: 0x100022704, symSize: 0x270 }
  - { offsetInCU: 0x51E31, offset: 0x51E31, size: 0x8, addend: 0x0, symName: __ZN8nlohmann16json_abi_v3_11_210basic_jsonINSt3__13mapENS2_6vectorENS2_12basic_stringIcNS2_11char_traitsIcEENS2_9allocatorIcEEEEbxydS8_NS0_14adl_serializerENS4_IhNS8_IhEEEEE5eraseINS0_6detail9iter_implISE_EELi0EEET_SJ_, symObjAddr: 0x19874, symBinAddr: 0x10002299C, symSize: 0x434 }
  - { offsetInCU: 0x51EC3, offset: 0x51EC3, size: 0x8, addend: 0x0, symName: __ZN8nlohmann16json_abi_v3_11_26detail9iter_implINS0_10basic_jsonINSt3__13mapENS4_6vectorENS4_12basic_stringIcNS4_11char_traitsIcEENS4_9allocatorIcEEEEbxydSA_NS0_14adl_serializerENS6_IhNSA_IhEEEEEEEC1ERKSH_, symObjAddr: 0x19CD0, symBinAddr: 0x100022DF8, symSize: 0x34 }
  - { offsetInCU: 0x51EFA, offset: 0x51EFA, size: 0x8, addend: 0x0, symName: __ZN8nlohmann16json_abi_v3_11_26detail9iter_implINS0_10basic_jsonINSt3__13mapENS4_6vectorENS4_12basic_stringIcNS4_11char_traitsIcEENS4_9allocatorIcEEEEbxydSA_NS0_14adl_serializerENS6_IhNSA_IhEEEEEEEppEv, symObjAddr: 0x19D04, symBinAddr: 0x100022E2C, symSize: 0xE0 }
  - { offsetInCU: 0x51F1F, offset: 0x51F1F, size: 0x8, addend: 0x0, symName: __ZN8nlohmann16json_abi_v3_11_210basic_jsonINSt3__13mapENS2_6vectorENS2_12basic_stringIcNS2_11char_traitsIcEENS2_9allocatorIcEEEEbxydS8_NS0_14adl_serializerENS4_IhNS8_IhEEEEEC2ERKSE_, symObjAddr: 0x19E0C, symBinAddr: 0x100022F34, symSize: 0x1B8 }
  - { offsetInCU: 0x51F57, offset: 0x51F57, size: 0x8, addend: 0x0, symName: __ZN8nlohmann16json_abi_v3_11_210basic_jsonINSt3__13mapENS2_6vectorENS2_12basic_stringIcNS2_11char_traitsIcEENS2_9allocatorIcEEEEbxydS8_NS0_14adl_serializerENS4_IhNS8_IhEEEEE10json_valueC1ERKNS3_ISA_SE_NS2_4lessIvEENS8_INS2_4pairIKSA_SE_EEEEEE, symObjAddr: 0x19FEC, symBinAddr: 0x100023114, symSize: 0x34 }
  - { offsetInCU: 0x51F8F, offset: 0x51F8F, size: 0x8, addend: 0x0, symName: __ZN8nlohmann16json_abi_v3_11_210basic_jsonINSt3__13mapENS2_6vectorENS2_12basic_stringIcNS2_11char_traitsIcEENS2_9allocatorIcEEEEbxydS8_NS0_14adl_serializerENS4_IhNS8_IhEEEEE10json_valueC1ERKNS4_ISE_NS8_ISE_EEEE, symObjAddr: 0x1A020, symBinAddr: 0x100023148, symSize: 0x34 }
  - { offsetInCU: 0x51FC7, offset: 0x51FC7, size: 0x8, addend: 0x0, symName: __ZN8nlohmann16json_abi_v3_11_210basic_jsonINSt3__13mapENS2_6vectorENS2_12basic_stringIcNS2_11char_traitsIcEENS2_9allocatorIcEEEEbxydS8_NS0_14adl_serializerENS4_IhNS8_IhEEEEE10json_valueC1ERKSA_, symObjAddr: 0x1A054, symBinAddr: 0x10002317C, symSize: 0x34 }
  - { offsetInCU: 0x51FFF, offset: 0x51FFF, size: 0x8, addend: 0x0, symName: __ZN8nlohmann16json_abi_v3_11_210basic_jsonINSt3__13mapENS2_6vectorENS2_12basic_stringIcNS2_11char_traitsIcEENS2_9allocatorIcEEEEbxydS8_NS0_14adl_serializerENS4_IhNS8_IhEEEEE10json_valueC1Eb, symObjAddr: 0x1A088, symBinAddr: 0x1000231B0, symSize: 0x40 }
  - { offsetInCU: 0x52037, offset: 0x52037, size: 0x8, addend: 0x0, symName: __ZN8nlohmann16json_abi_v3_11_210basic_jsonINSt3__13mapENS2_6vectorENS2_12basic_stringIcNS2_11char_traitsIcEENS2_9allocatorIcEEEEbxydS8_NS0_14adl_serializerENS4_IhNS8_IhEEEEE10json_valueC1Ex, symObjAddr: 0x1A0C8, symBinAddr: 0x1000231F0, symSize: 0x34 }
  - { offsetInCU: 0x5206F, offset: 0x5206F, size: 0x8, addend: 0x0, symName: __ZN8nlohmann16json_abi_v3_11_210basic_jsonINSt3__13mapENS2_6vectorENS2_12basic_stringIcNS2_11char_traitsIcEENS2_9allocatorIcEEEEbxydS8_NS0_14adl_serializerENS4_IhNS8_IhEEEEE10json_valueC1Ey, symObjAddr: 0x1A0FC, symBinAddr: 0x100023224, symSize: 0x34 }
  - { offsetInCU: 0x520A7, offset: 0x520A7, size: 0x8, addend: 0x0, symName: __ZN8nlohmann16json_abi_v3_11_210basic_jsonINSt3__13mapENS2_6vectorENS2_12basic_stringIcNS2_11char_traitsIcEENS2_9allocatorIcEEEEbxydS8_NS0_14adl_serializerENS4_IhNS8_IhEEEEE10json_valueC1Ed, symObjAddr: 0x1A130, symBinAddr: 0x100023258, symSize: 0x34 }
  - { offsetInCU: 0x520DF, offset: 0x520DF, size: 0x8, addend: 0x0, symName: __ZN8nlohmann16json_abi_v3_11_210basic_jsonINSt3__13mapENS2_6vectorENS2_12basic_stringIcNS2_11char_traitsIcEENS2_9allocatorIcEEEEbxydS8_NS0_14adl_serializerENS4_IhNS8_IhEEEEE10json_valueC1ERKNS0_27byte_container_with_subtypeISD_EE, symObjAddr: 0x1A164, symBinAddr: 0x10002328C, symSize: 0x34 }
  - { offsetInCU: 0x52117, offset: 0x52117, size: 0x8, addend: 0x0, symName: __ZN8nlohmann16json_abi_v3_11_210basic_jsonINSt3__13mapENS2_6vectorENS2_12basic_stringIcNS2_11char_traitsIcEENS2_9allocatorIcEEEEbxydS8_NS0_14adl_serializerENS4_IhNS8_IhEEEEE10json_valueC2ERKNS3_ISA_SE_NS2_4lessIvEENS8_INS2_4pairIKSA_SE_EEEEEE, symObjAddr: 0x1A198, symBinAddr: 0x1000232C0, symSize: 0x3C }
  - { offsetInCU: 0x5214F, offset: 0x5214F, size: 0x8, addend: 0x0, symName: __ZN8nlohmann16json_abi_v3_11_210basic_jsonINSt3__13mapENS2_6vectorENS2_12basic_stringIcNS2_11char_traitsIcEENS2_9allocatorIcEEEEbxydS8_NS0_14adl_serializerENS4_IhNS8_IhEEEEE6createINS3_ISA_SE_NS2_4lessIvEENS8_INS2_4pairIKSA_SE_EEEEEEJRKSM_EEEPT_DpOT0_, symObjAddr: 0x1A1D4, symBinAddr: 0x1000232FC, symSize: 0xF4 }
  - { offsetInCU: 0x52242, offset: 0x52242, size: 0x8, addend: 0x0, symName: __ZNSt3__110unique_ptrINS_3mapINS_12basic_stringIcNS_11char_traitsIcEENS_9allocatorIcEEEEN8nlohmann16json_abi_v3_11_210basic_jsonIS1_NS_6vectorES7_bxydS5_NS9_14adl_serializerENSB_IhNS5_IhEEEEEENS_4lessIvEENS5_INS_4pairIKS7_SF_EEEEEEZNSF_6createISM_JRKSM_EEEPT_DpOT0_EUlPSM_E_EC1B7v160006ILb1EvEESV_NS_16__dependent_typeINS_27__unique_ptr_deleter_sfinaeISW_EEXT_EE15__lval_ref_typeE, symObjAddr: 0x1A2C8, symBinAddr: 0x1000233F0, symSize: 0x3C }
  - { offsetInCU: 0x52293, offset: 0x52293, size: 0x8, addend: 0x0, symName: __ZNSt3__116allocator_traitsINS_9allocatorINS_3mapINS_12basic_stringIcNS_11char_traitsIcEENS1_IcEEEEN8nlohmann16json_abi_v3_11_210basic_jsonIS2_NS_6vectorES7_bxydS1_NS9_14adl_serializerENSB_IhNS1_IhEEEEEENS_4lessIvEENS1_INS_4pairIKS7_SF_EEEEEEEEE9constructB7v160006ISM_JRKSM_EvEEvRSN_PT_DpOT0_, symObjAddr: 0x1A304, symBinAddr: 0x10002342C, symSize: 0x34 }
  - { offsetInCU: 0x522EA, offset: 0x522EA, size: 0x8, addend: 0x0, symName: __ZNKSt3__110unique_ptrINS_3mapINS_12basic_stringIcNS_11char_traitsIcEENS_9allocatorIcEEEEN8nlohmann16json_abi_v3_11_210basic_jsonIS1_NS_6vectorES7_bxydS5_NS9_14adl_serializerENSB_IhNS5_IhEEEEEENS_4lessIvEENS5_INS_4pairIKS7_SF_EEEEEEZNSF_6createISM_JRKSM_EEEPT_DpOT0_EUlPSM_E_E3getB7v160006Ev, symObjAddr: 0x1A338, symBinAddr: 0x100023460, symSize: 0x28 }
  - { offsetInCU: 0x5230E, offset: 0x5230E, size: 0x8, addend: 0x0, symName: __ZNSt3__110unique_ptrINS_3mapINS_12basic_stringIcNS_11char_traitsIcEENS_9allocatorIcEEEEN8nlohmann16json_abi_v3_11_210basic_jsonIS1_NS_6vectorES7_bxydS5_NS9_14adl_serializerENSB_IhNS5_IhEEEEEENS_4lessIvEENS5_INS_4pairIKS7_SF_EEEEEEZNSF_6createISM_JRKSM_EEEPT_DpOT0_EUlPSM_E_E7releaseB7v160006Ev, symObjAddr: 0x1A38C, symBinAddr: 0x1000234B4, symSize: 0x44 }
  - { offsetInCU: 0x52342, offset: 0x52342, size: 0x8, addend: 0x0, symName: __ZNSt3__110unique_ptrINS_3mapINS_12basic_stringIcNS_11char_traitsIcEENS_9allocatorIcEEEEN8nlohmann16json_abi_v3_11_210basic_jsonIS1_NS_6vectorES7_bxydS5_NS9_14adl_serializerENSB_IhNS5_IhEEEEEENS_4lessIvEENS5_INS_4pairIKS7_SF_EEEEEEZNSF_6createISM_JRKSM_EEEPT_DpOT0_EUlPSM_E_ED1B7v160006Ev, symObjAddr: 0x1A3D0, symBinAddr: 0x1000234F8, symSize: 0x2C }
  - { offsetInCU: 0x5236B, offset: 0x5236B, size: 0x8, addend: 0x0, symName: __ZNSt3__110unique_ptrINS_3mapINS_12basic_stringIcNS_11char_traitsIcEENS_9allocatorIcEEEEN8nlohmann16json_abi_v3_11_210basic_jsonIS1_NS_6vectorES7_bxydS5_NS9_14adl_serializerENSB_IhNS5_IhEEEEEENS_4lessIvEENS5_INS_4pairIKS7_SF_EEEEEEZNSF_6createISM_JRKSM_EEEPT_DpOT0_EUlPSM_E_EC2B7v160006ILb1EvEESV_NS_16__dependent_typeINS_27__unique_ptr_deleter_sfinaeISW_EEXT_EE15__lval_ref_typeE, symObjAddr: 0x1A3FC, symBinAddr: 0x100023524, symSize: 0x48 }
  - { offsetInCU: 0x523BC, offset: 0x523BC, size: 0x8, addend: 0x0, symName: __ZNSt3__117__compressed_pairIPNS_3mapINS_12basic_stringIcNS_11char_traitsIcEENS_9allocatorIcEEEEN8nlohmann16json_abi_v3_11_210basic_jsonIS1_NS_6vectorES7_bxydS5_NS9_14adl_serializerENSB_IhNS5_IhEEEEEENS_4lessIvEENS5_INS_4pairIKS7_SF_EEEEEEZNSF_6createISM_JRKSM_EEEPT_DpOT0_EUlSN_E_EC1B7v160006IRSN_RKSW_EEOSR_OT0_, symObjAddr: 0x1A444, symBinAddr: 0x10002356C, symSize: 0x3C }
  - { offsetInCU: 0x52413, offset: 0x52413, size: 0x8, addend: 0x0, symName: __ZNSt3__117__compressed_pairIPNS_3mapINS_12basic_stringIcNS_11char_traitsIcEENS_9allocatorIcEEEEN8nlohmann16json_abi_v3_11_210basic_jsonIS1_NS_6vectorES7_bxydS5_NS9_14adl_serializerENSB_IhNS5_IhEEEEEENS_4lessIvEENS5_INS_4pairIKS7_SF_EEEEEEZNSF_6createISM_JRKSM_EEEPT_DpOT0_EUlSN_E_EC2B7v160006IRSN_RKSW_EEOSR_OT0_, symObjAddr: 0x1A480, symBinAddr: 0x1000235A8, symSize: 0x48 }
  - { offsetInCU: 0x5246A, offset: 0x5246A, size: 0x8, addend: 0x0, symName: __ZNSt3__122__compressed_pair_elemIZN8nlohmann16json_abi_v3_11_210basic_jsonINS_3mapENS_6vectorENS_12basic_stringIcNS_11char_traitsIcEENS_9allocatorIcEEEEbxydS9_NS2_14adl_serializerENS5_IhNS9_IhEEEEE6createINS4_ISB_SF_NS_4lessIvEENS9_INS_4pairIKSB_SF_EEEEEEJRKSN_EEEPT_DpOT0_EUlPSN_E_Li1ELb0EEC2B7v160006IRKSW_vEEOSQ_, symObjAddr: 0x1A4C8, symBinAddr: 0x1000235F0, symSize: 0x24 }
  - { offsetInCU: 0x524AB, offset: 0x524AB, size: 0x8, addend: 0x0, symName: __ZNSt3__19allocatorINS_3mapINS_12basic_stringIcNS_11char_traitsIcEENS0_IcEEEEN8nlohmann16json_abi_v3_11_210basic_jsonIS1_NS_6vectorES6_bxydS0_NS8_14adl_serializerENSA_IhNS0_IhEEEEEENS_4lessIvEENS0_INS_4pairIKS6_SE_EEEEEEE9constructB7v160006ISL_JRKSL_EEEvPT_DpOT0_, symObjAddr: 0x1A4EC, symBinAddr: 0x100023614, symSize: 0x30 }
  - { offsetInCU: 0x52500, offset: 0x52500, size: 0x8, addend: 0x0, symName: __ZNSt3__13mapINS_12basic_stringIcNS_11char_traitsIcEENS_9allocatorIcEEEEN8nlohmann16json_abi_v3_11_210basic_jsonIS0_NS_6vectorES6_bxydS4_NS8_14adl_serializerENSA_IhNS4_IhEEEEEENS_4lessIvEENS4_INS_4pairIKS6_SE_EEEEEC1B7v160006ERKSL_, symObjAddr: 0x1A51C, symBinAddr: 0x100023644, symSize: 0x34 }
  - { offsetInCU: 0x52538, offset: 0x52538, size: 0x8, addend: 0x0, symName: __ZNSt3__13mapINS_12basic_stringIcNS_11char_traitsIcEENS_9allocatorIcEEEEN8nlohmann16json_abi_v3_11_210basic_jsonIS0_NS_6vectorES6_bxydS4_NS8_14adl_serializerENSA_IhNS4_IhEEEEEENS_4lessIvEENS4_INS_4pairIKS6_SE_EEEEEC2B7v160006ERKSL_, symObjAddr: 0x1A550, symBinAddr: 0x100023678, symSize: 0x88 }
  - { offsetInCU: 0x52570, offset: 0x52570, size: 0x8, addend: 0x0, symName: __ZNSt3__16__treeINS_12__value_typeINS_12basic_stringIcNS_11char_traitsIcEENS_9allocatorIcEEEEN8nlohmann16json_abi_v3_11_210basic_jsonINS_3mapENS_6vectorES7_bxydS5_NS9_14adl_serializerENSC_IhNS5_IhEEEEEEEENS_19__map_value_compareIS7_SH_NS_4lessIvEELb1EEENS5_ISH_EEEC1ERKSN_, symObjAddr: 0x1A5D8, symBinAddr: 0x100023700, symSize: 0x34 }
  - { offsetInCU: 0x525A9, offset: 0x525A9, size: 0x8, addend: 0x0, symName: __ZNSt3__13mapINS_12basic_stringIcNS_11char_traitsIcEENS_9allocatorIcEEEEN8nlohmann16json_abi_v3_11_210basic_jsonIS0_NS_6vectorES6_bxydS4_NS8_14adl_serializerENSA_IhNS4_IhEEEEEENS_4lessIvEENS4_INS_4pairIKS6_SE_EEEEE6insertB7v160006INS_20__map_const_iteratorINS_21__tree_const_iteratorINS_12__value_typeIS6_SE_EEPNS_11__tree_nodeISQ_PvEElEEEEEEvT_SX_, symObjAddr: 0x1A60C, symBinAddr: 0x100023734, symSize: 0x8C }
  - { offsetInCU: 0x52612, offset: 0x52612, size: 0x8, addend: 0x0, symName: __ZNKSt3__13mapINS_12basic_stringIcNS_11char_traitsIcEENS_9allocatorIcEEEEN8nlohmann16json_abi_v3_11_210basic_jsonIS0_NS_6vectorES6_bxydS4_NS8_14adl_serializerENSA_IhNS4_IhEEEEEENS_4lessIvEENS4_INS_4pairIKS6_SE_EEEEE5beginB7v160006Ev, symObjAddr: 0x1A698, symBinAddr: 0x1000237C0, symSize: 0x38 }
  - { offsetInCU: 0x52636, offset: 0x52636, size: 0x8, addend: 0x0, symName: __ZNKSt3__13mapINS_12basic_stringIcNS_11char_traitsIcEENS_9allocatorIcEEEEN8nlohmann16json_abi_v3_11_210basic_jsonIS0_NS_6vectorES6_bxydS4_NS8_14adl_serializerENSA_IhNS4_IhEEEEEENS_4lessIvEENS4_INS_4pairIKS6_SE_EEEEE3endB7v160006Ev, symObjAddr: 0x1A6D0, symBinAddr: 0x1000237F8, symSize: 0x38 }
  - { offsetInCU: 0x5265B, offset: 0x5265B, size: 0x8, addend: 0x0, symName: __ZNSt3__16__treeINS_12__value_typeINS_12basic_stringIcNS_11char_traitsIcEENS_9allocatorIcEEEEN8nlohmann16json_abi_v3_11_210basic_jsonINS_3mapENS_6vectorES7_bxydS5_NS9_14adl_serializerENSC_IhNS5_IhEEEEEEEENS_19__map_value_compareIS7_SH_NS_4lessIvEELb1EEENS5_ISH_EEED1Ev, symObjAddr: 0x1A708, symBinAddr: 0x100023830, symSize: 0x2C }
  - { offsetInCU: 0x52686, offset: 0x52686, size: 0x8, addend: 0x0, symName: __ZNSt3__16__treeINS_12__value_typeINS_12basic_stringIcNS_11char_traitsIcEENS_9allocatorIcEEEEN8nlohmann16json_abi_v3_11_210basic_jsonINS_3mapENS_6vectorES7_bxydS5_NS9_14adl_serializerENSC_IhNS5_IhEEEEEEEENS_19__map_value_compareIS7_SH_NS_4lessIvEELb1EEENS5_ISH_EEEC2ERKSN_, symObjAddr: 0x1A734, symBinAddr: 0x10002385C, symSize: 0x9C }
  - { offsetInCU: 0x526C0, offset: 0x526C0, size: 0x8, addend: 0x0, symName: __ZNSt3__116allocator_traitsINS_9allocatorINS_11__tree_nodeINS_12__value_typeINS_12basic_stringIcNS_11char_traitsIcEENS1_IcEEEEN8nlohmann16json_abi_v3_11_210basic_jsonINS_3mapENS_6vectorES8_bxydS1_NSA_14adl_serializerENSD_IhNS1_IhEEEEEEEEPvEEEEE37select_on_container_copy_constructionB7v160006ISL_vvEESL_RKSL_, symObjAddr: 0x1A7D0, symBinAddr: 0x1000238F8, symSize: 0x10 }
  - { offsetInCU: 0x526F7, offset: 0x526F7, size: 0x8, addend: 0x0, symName: __ZNSt3__117__compressed_pairINS_15__tree_end_nodeIPNS_16__tree_node_baseIPvEEEENS_9allocatorINS_11__tree_nodeINS_12__value_typeINS_12basic_stringIcNS_11char_traitsIcEENS7_IcEEEEN8nlohmann16json_abi_v3_11_210basic_jsonINS_3mapENS_6vectorESE_bxydS7_NSG_14adl_serializerENSJ_IhNS7_IhEEEEEEEES3_EEEEEC1B7v160006INS_18__default_init_tagESQ_EEOT_OT0_, symObjAddr: 0x1A7E0, symBinAddr: 0x100023908, symSize: 0x3C }
  - { offsetInCU: 0x5274D, offset: 0x5274D, size: 0x8, addend: 0x0, symName: __ZNKSt3__16__treeINS_12__value_typeINS_12basic_stringIcNS_11char_traitsIcEENS_9allocatorIcEEEEN8nlohmann16json_abi_v3_11_210basic_jsonINS_3mapENS_6vectorES7_bxydS5_NS9_14adl_serializerENSC_IhNS5_IhEEEEEEEENS_19__map_value_compareIS7_SH_NS_4lessIvEELb1EEENS5_ISH_EEE10value_compB7v160006Ev, symObjAddr: 0x1A81C, symBinAddr: 0x100023944, symSize: 0x28 }
  - { offsetInCU: 0x52772, offset: 0x52772, size: 0x8, addend: 0x0, symName: __ZNSt3__117__compressed_pairINS_15__tree_end_nodeIPNS_16__tree_node_baseIPvEEEENS_9allocatorINS_11__tree_nodeINS_12__value_typeINS_12basic_stringIcNS_11char_traitsIcEENS7_IcEEEEN8nlohmann16json_abi_v3_11_210basic_jsonINS_3mapENS_6vectorESE_bxydS7_NSG_14adl_serializerENSJ_IhNS7_IhEEEEEEEES3_EEEEEC2B7v160006INS_18__default_init_tagESQ_EEOT_OT0_, symObjAddr: 0x1A844, symBinAddr: 0x10002396C, symSize: 0x40 }
  - { offsetInCU: 0x527C9, offset: 0x527C9, size: 0x8, addend: 0x0, symName: __ZNSt3__122__compressed_pair_elemINS_15__tree_end_nodeIPNS_16__tree_node_baseIPvEEEELi0ELb0EEC2B7v160006ENS_18__default_init_tagE, symObjAddr: 0x1A884, symBinAddr: 0x1000239AC, symSize: 0x2C }
  - { offsetInCU: 0x527FD, offset: 0x527FD, size: 0x8, addend: 0x0, symName: __ZNSt3__122__compressed_pair_elemINS_9allocatorINS_11__tree_nodeINS_12__value_typeINS_12basic_stringIcNS_11char_traitsIcEENS1_IcEEEEN8nlohmann16json_abi_v3_11_210basic_jsonINS_3mapENS_6vectorES8_bxydS1_NSA_14adl_serializerENSD_IhNS1_IhEEEEEEEEPvEEEELi1ELb1EEC2B7v160006ISL_vEEOT_, symObjAddr: 0x1A8B0, symBinAddr: 0x1000239D8, symSize: 0x18 }
  - { offsetInCU: 0x5283E, offset: 0x5283E, size: 0x8, addend: 0x0, symName: __ZNKSt3__117__compressed_pairImNS_19__map_value_compareINS_12basic_stringIcNS_11char_traitsIcEENS_9allocatorIcEEEENS_12__value_typeIS7_N8nlohmann16json_abi_v3_11_210basic_jsonINS_3mapENS_6vectorES7_bxydS5_NSA_14adl_serializerENSD_IhNS5_IhEEEEEEEENS_4lessIvEELb1EEEE6secondB7v160006Ev, symObjAddr: 0x1A8C8, symBinAddr: 0x1000239F0, symSize: 0x24 }
  - { offsetInCU: 0x52863, offset: 0x52863, size: 0x8, addend: 0x0, symName: __ZNKSt3__122__compressed_pair_elemINS_19__map_value_compareINS_12basic_stringIcNS_11char_traitsIcEENS_9allocatorIcEEEENS_12__value_typeIS7_N8nlohmann16json_abi_v3_11_210basic_jsonINS_3mapENS_6vectorES7_bxydS5_NSA_14adl_serializerENSD_IhNS5_IhEEEEEEEENS_4lessIvEELb1EEELi1ELb1EE5__getB7v160006Ev, symObjAddr: 0x1A8EC, symBinAddr: 0x100023A14, symSize: 0x14 }
  - { offsetInCU: 0x52887, offset: 0x52887, size: 0x8, addend: 0x0, symName: __ZNKSt3__13mapINS_12basic_stringIcNS_11char_traitsIcEENS_9allocatorIcEEEEN8nlohmann16json_abi_v3_11_210basic_jsonIS0_NS_6vectorES6_bxydS4_NS8_14adl_serializerENSA_IhNS4_IhEEEEEENS_4lessIvEENS4_INS_4pairIKS6_SE_EEEEE4cendB7v160006Ev, symObjAddr: 0x1A900, symBinAddr: 0x100023A28, symSize: 0x2C }
  - { offsetInCU: 0x528AB, offset: 0x528AB, size: 0x8, addend: 0x0, symName: __ZNSt3__13mapINS_12basic_stringIcNS_11char_traitsIcEENS_9allocatorIcEEEEN8nlohmann16json_abi_v3_11_210basic_jsonIS0_NS_6vectorES6_bxydS4_NS8_14adl_serializerENSA_IhNS4_IhEEEEEENS_4lessIvEENS4_INS_4pairIKS6_SE_EEEEE6insertB7v160006ENS_20__map_const_iteratorINS_21__tree_const_iteratorINS_12__value_typeIS6_SE_EEPNS_11__tree_nodeISP_PvEElEEEERKSJ_, symObjAddr: 0x1A95C, symBinAddr: 0x100023A84, symSize: 0x50 }
  - { offsetInCU: 0x528EE, offset: 0x528EE, size: 0x8, addend: 0x0, symName: __ZNSt3__120__map_const_iteratorINS_21__tree_const_iteratorINS_12__value_typeINS_12basic_stringIcNS_11char_traitsIcEENS_9allocatorIcEEEEN8nlohmann16json_abi_v3_11_210basic_jsonINS_3mapENS_6vectorES8_bxydS6_NSA_14adl_serializerENSD_IhNS6_IhEEEEEEEEPNS_11__tree_nodeISI_PvEElEEEC1B7v160006ESN_, symObjAddr: 0x1A9AC, symBinAddr: 0x100023AD4, symSize: 0x34 }
  - { offsetInCU: 0x52925, offset: 0x52925, size: 0x8, addend: 0x0, symName: __ZNKSt3__120__map_const_iteratorINS_21__tree_const_iteratorINS_12__value_typeINS_12basic_stringIcNS_11char_traitsIcEENS_9allocatorIcEEEEN8nlohmann16json_abi_v3_11_210basic_jsonINS_3mapENS_6vectorES8_bxydS6_NSA_14adl_serializerENSD_IhNS6_IhEEEEEEEEPNS_11__tree_nodeISI_PvEElEEEdeB7v160006Ev, symObjAddr: 0x1A9E0, symBinAddr: 0x100023B08, symSize: 0x28 }
  - { offsetInCU: 0x52949, offset: 0x52949, size: 0x8, addend: 0x0, symName: __ZNSt3__120__map_const_iteratorINS_21__tree_const_iteratorINS_12__value_typeINS_12basic_stringIcNS_11char_traitsIcEENS_9allocatorIcEEEEN8nlohmann16json_abi_v3_11_210basic_jsonINS_3mapENS_6vectorES8_bxydS6_NSA_14adl_serializerENSD_IhNS6_IhEEEEEEEEPNS_11__tree_nodeISI_PvEElEEEppB7v160006Ev, symObjAddr: 0x1AA08, symBinAddr: 0x100023B30, symSize: 0x2C }
  - { offsetInCU: 0x5296D, offset: 0x5296D, size: 0x8, addend: 0x0, symName: __ZNSt3__16__treeINS_12__value_typeINS_12basic_stringIcNS_11char_traitsIcEENS_9allocatorIcEEEEN8nlohmann16json_abi_v3_11_210basic_jsonINS_3mapENS_6vectorES7_bxydS5_NS9_14adl_serializerENSC_IhNS5_IhEEEEEEEENS_19__map_value_compareIS7_SH_NS_4lessIvEELb1EEENS5_ISH_EEE15__insert_uniqueB7v160006ENS_21__tree_const_iteratorISH_PNS_11__tree_nodeISH_PvEElEERKNS_4pairIKS7_SG_EE, symObjAddr: 0x1AA98, symBinAddr: 0x100023BC0, symSize: 0x64 }
  - { offsetInCU: 0x529B0, offset: 0x529B0, size: 0x8, addend: 0x0, symName: __ZNSt3__114__map_iteratorINS_15__tree_iteratorINS_12__value_typeINS_12basic_stringIcNS_11char_traitsIcEENS_9allocatorIcEEEEN8nlohmann16json_abi_v3_11_210basic_jsonINS_3mapENS_6vectorES8_bxydS6_NSA_14adl_serializerENSD_IhNS6_IhEEEEEEEEPNS_11__tree_nodeISI_PvEElEEEC1B7v160006ESN_, symObjAddr: 0x1AAFC, symBinAddr: 0x100023C24, symSize: 0x34 }
  - { offsetInCU: 0x529E8, offset: 0x529E8, size: 0x8, addend: 0x0, symName: __ZNSt3__16__treeINS_12__value_typeINS_12basic_stringIcNS_11char_traitsIcEENS_9allocatorIcEEEEN8nlohmann16json_abi_v3_11_210basic_jsonINS_3mapENS_6vectorES7_bxydS5_NS9_14adl_serializerENSC_IhNS5_IhEEEEEEEENS_19__map_value_compareIS7_SH_NS_4lessIvEELb1EEENS5_ISH_EEE30__emplace_hint_unique_key_argsIS7_JRKNS_4pairIKS7_SG_EEEEENSP_INS_15__tree_iteratorISH_PNS_11__tree_nodeISH_PvEElEEbEENS_21__tree_const_iteratorISH_SY_lEERKT_DpOT0_, symObjAddr: 0x1AB30, symBinAddr: 0x100023C58, symSize: 0x104 }
  - { offsetInCU: 0x52AB4, offset: 0x52AB4, size: 0x8, addend: 0x0, symName: __ZNSt3__122__tree_key_value_typesINS_12__value_typeINS_12basic_stringIcNS_11char_traitsIcEENS_9allocatorIcEEEEN8nlohmann16json_abi_v3_11_210basic_jsonINS_3mapENS_6vectorES7_bxydS5_NS9_14adl_serializerENSC_IhNS5_IhEEEEEEEEE9__get_keyB7v160006IKNS_4pairIKS7_SG_EEEENS_9enable_ifIXsr17__is_same_uncvrefIT_SM_EE5valueERSL_E4typeERSP_, symObjAddr: 0x1AC34, symBinAddr: 0x100023D5C, symSize: 0x14 }
  - { offsetInCU: 0x52AE1, offset: 0x52AE1, size: 0x8, addend: 0x0, symName: __ZNSt3__16__treeINS_12__value_typeINS_12basic_stringIcNS_11char_traitsIcEENS_9allocatorIcEEEEN8nlohmann16json_abi_v3_11_210basic_jsonINS_3mapENS_6vectorES7_bxydS5_NS9_14adl_serializerENSC_IhNS5_IhEEEEEEEENS_19__map_value_compareIS7_SH_NS_4lessIvEELb1EEENS5_ISH_EEE12__find_equalIS7_EERPNS_16__tree_node_baseIPvEENS_21__tree_const_iteratorISH_PNS_11__tree_nodeISH_SQ_EElEERPNS_15__tree_end_nodeISS_EEST_RKT_, symObjAddr: 0x1AC48, symBinAddr: 0x100023D70, symSize: 0x304 }
  - { offsetInCU: 0x52B8B, offset: 0x52B8B, size: 0x8, addend: 0x0, symName: __ZNSt3__16__treeINS_12__value_typeINS_12basic_stringIcNS_11char_traitsIcEENS_9allocatorIcEEEEN8nlohmann16json_abi_v3_11_210basic_jsonINS_3mapENS_6vectorES7_bxydS5_NS9_14adl_serializerENSC_IhNS5_IhEEEEEEEENS_19__map_value_compareIS7_SH_NS_4lessIvEELb1EEENS5_ISH_EEE16__construct_nodeIJRKNS_4pairIKS7_SG_EEEEENS_10unique_ptrINS_11__tree_nodeISH_PvEENS_22__tree_node_destructorINS5_ISX_EEEEEEDpOT_, symObjAddr: 0x1AF4C, symBinAddr: 0x100024074, symSize: 0x110 }
  - { offsetInCU: 0x52BEB, offset: 0x52BEB, size: 0x8, addend: 0x0, symName: __ZNSt3__16__treeINS_12__value_typeINS_12basic_stringIcNS_11char_traitsIcEENS_9allocatorIcEEEEN8nlohmann16json_abi_v3_11_210basic_jsonINS_3mapENS_6vectorES7_bxydS5_NS9_14adl_serializerENSC_IhNS5_IhEEEEEEEENS_19__map_value_compareIS7_SH_NS_4lessIvEELb1EEENS5_ISH_EEE16__insert_node_atEPNS_15__tree_end_nodeIPNS_16__tree_node_baseIPvEEEERSS_SS_, symObjAddr: 0x1B05C, symBinAddr: 0x100024184, symSize: 0xCC }
  - { offsetInCU: 0x52C3E, offset: 0x52C3E, size: 0x8, addend: 0x0, symName: __ZNKSt3__110unique_ptrINS_11__tree_nodeINS_12__value_typeINS_12basic_stringIcNS_11char_traitsIcEENS_9allocatorIcEEEEN8nlohmann16json_abi_v3_11_210basic_jsonINS_3mapENS_6vectorES8_bxydS6_NSA_14adl_serializerENSD_IhNS6_IhEEEEEEEEPvEENS_22__tree_node_destructorINS6_ISK_EEEEE3getB7v160006Ev, symObjAddr: 0x1B128, symBinAddr: 0x100024250, symSize: 0x28 }
  - { offsetInCU: 0x52C62, offset: 0x52C62, size: 0x8, addend: 0x0, symName: __ZNSt3__110unique_ptrINS_11__tree_nodeINS_12__value_typeINS_12basic_stringIcNS_11char_traitsIcEENS_9allocatorIcEEEEN8nlohmann16json_abi_v3_11_210basic_jsonINS_3mapENS_6vectorES8_bxydS6_NSA_14adl_serializerENSD_IhNS6_IhEEEEEEEEPvEENS_22__tree_node_destructorINS6_ISK_EEEEE7releaseB7v160006Ev, symObjAddr: 0x1B150, symBinAddr: 0x100024278, symSize: 0x44 }
  - { offsetInCU: 0x52C96, offset: 0x52C96, size: 0x8, addend: 0x0, symName: __ZNSt3__110unique_ptrINS_11__tree_nodeINS_12__value_typeINS_12basic_stringIcNS_11char_traitsIcEENS_9allocatorIcEEEEN8nlohmann16json_abi_v3_11_210basic_jsonINS_3mapENS_6vectorES8_bxydS6_NSA_14adl_serializerENSD_IhNS6_IhEEEEEEEEPvEENS_22__tree_node_destructorINS6_ISK_EEEEED1B7v160006Ev, symObjAddr: 0x1B194, symBinAddr: 0x1000242BC, symSize: 0x2C }
  - { offsetInCU: 0x52CBF, offset: 0x52CBF, size: 0x8, addend: 0x0, symName: __ZNSt3__115__tree_iteratorINS_12__value_typeINS_12basic_stringIcNS_11char_traitsIcEENS_9allocatorIcEEEEN8nlohmann16json_abi_v3_11_210basic_jsonINS_3mapENS_6vectorES7_bxydS5_NS9_14adl_serializerENSC_IhNS5_IhEEEEEEEEPNS_11__tree_nodeISH_PvEElEC1B7v160006ESL_, symObjAddr: 0x1B1C0, symBinAddr: 0x1000242E8, symSize: 0x34 }
  - { offsetInCU: 0x52CFD, offset: 0x52CFD, size: 0x8, addend: 0x0, symName: __ZNSt3__14pairINS_15__tree_iteratorINS_12__value_typeINS_12basic_stringIcNS_11char_traitsIcEENS_9allocatorIcEEEEN8nlohmann16json_abi_v3_11_210basic_jsonINS_3mapENS_6vectorES8_bxydS6_NSA_14adl_serializerENSD_IhNS6_IhEEEEEEEEPNS_11__tree_nodeISI_PvEElEEbEC1B7v160006ISN_RbLSK_0EEEOT_OT0_, symObjAddr: 0x1B1F4, symBinAddr: 0x10002431C, symSize: 0x3C }
  - { offsetInCU: 0x52D59, offset: 0x52D59, size: 0x8, addend: 0x0, symName: __ZNSt3__16__treeINS_12__value_typeINS_12basic_stringIcNS_11char_traitsIcEENS_9allocatorIcEEEEN8nlohmann16json_abi_v3_11_210basic_jsonINS_3mapENS_6vectorES7_bxydS5_NS9_14adl_serializerENSC_IhNS5_IhEEEEEEEENS_19__map_value_compareIS7_SH_NS_4lessIvEELb1EEENS5_ISH_EEE3endB7v160006Ev, symObjAddr: 0x1B230, symBinAddr: 0x100024358, symSize: 0x34 }
  - { offsetInCU: 0x52D7E, offset: 0x52D7E, size: 0x8, addend: 0x0, symName: __ZNSt3__121__tree_const_iteratorINS_12__value_typeINS_12basic_stringIcNS_11char_traitsIcEENS_9allocatorIcEEEEN8nlohmann16json_abi_v3_11_210basic_jsonINS_3mapENS_6vectorES7_bxydS5_NS9_14adl_serializerENSC_IhNS5_IhEEEEEEEEPNS_11__tree_nodeISH_PvEElEC1B7v160006ENS_15__tree_iteratorISH_SL_lEE, symObjAddr: 0x1B264, symBinAddr: 0x10002438C, symSize: 0x34 }
  - { offsetInCU: 0x52DB5, offset: 0x52DB5, size: 0x8, addend: 0x0, symName: __ZNSt3__16__treeINS_12__value_typeINS_12basic_stringIcNS_11char_traitsIcEENS_9allocatorIcEEEEN8nlohmann16json_abi_v3_11_210basic_jsonINS_3mapENS_6vectorES7_bxydS5_NS9_14adl_serializerENSC_IhNS5_IhEEEEEEEENS_19__map_value_compareIS7_SH_NS_4lessIvEELb1EEENS5_ISH_EEE10value_compB7v160006Ev, symObjAddr: 0x1B298, symBinAddr: 0x1000243C0, symSize: 0x28 }
  - { offsetInCU: 0x52DD9, offset: 0x52DD9, size: 0x8, addend: 0x0, symName: __ZNKSt3__119__map_value_compareINS_12basic_stringIcNS_11char_traitsIcEENS_9allocatorIcEEEENS_12__value_typeIS6_N8nlohmann16json_abi_v3_11_210basic_jsonINS_3mapENS_6vectorES6_bxydS4_NS9_14adl_serializerENSC_IhNS4_IhEEEEEEEENS_4lessIvEELb1EEclB7v160006ERKS6_RKSH_, symObjAddr: 0x1B2C0, symBinAddr: 0x1000243E8, symSize: 0x50 }
  - { offsetInCU: 0x52E1B, offset: 0x52E1B, size: 0x8, addend: 0x0, symName: __ZNKSt3__121__tree_const_iteratorINS_12__value_typeINS_12basic_stringIcNS_11char_traitsIcEENS_9allocatorIcEEEEN8nlohmann16json_abi_v3_11_210basic_jsonINS_3mapENS_6vectorES7_bxydS5_NS9_14adl_serializerENSC_IhNS5_IhEEEEEEEEPNS_11__tree_nodeISH_PvEElEdeB7v160006Ev, symObjAddr: 0x1B310, symBinAddr: 0x100024438, symSize: 0x28 }
  - { offsetInCU: 0x52E3F, offset: 0x52E3F, size: 0x8, addend: 0x0, symName: __ZNSt3__16__treeINS_12__value_typeINS_12basic_stringIcNS_11char_traitsIcEENS_9allocatorIcEEEEN8nlohmann16json_abi_v3_11_210basic_jsonINS_3mapENS_6vectorES7_bxydS5_NS9_14adl_serializerENSC_IhNS5_IhEEEEEEEENS_19__map_value_compareIS7_SH_NS_4lessIvEELb1EEENS5_ISH_EEE5beginB7v160006Ev, symObjAddr: 0x1B338, symBinAddr: 0x100024460, symSize: 0x34 }
  - { offsetInCU: 0x52E63, offset: 0x52E63, size: 0x8, addend: 0x0, symName: __ZNKSt3__119__map_value_compareINS_12basic_stringIcNS_11char_traitsIcEENS_9allocatorIcEEEENS_12__value_typeIS6_N8nlohmann16json_abi_v3_11_210basic_jsonINS_3mapENS_6vectorES6_bxydS4_NS9_14adl_serializerENSC_IhNS4_IhEEEEEEEENS_4lessIvEELb1EEclB7v160006ERKSH_RKS6_, symObjAddr: 0x1B36C, symBinAddr: 0x100024494, symSize: 0x48 }
  - { offsetInCU: 0x52EA5, offset: 0x52EA5, size: 0x8, addend: 0x0, symName: __ZNSt3__121__tree_const_iteratorINS_12__value_typeINS_12basic_stringIcNS_11char_traitsIcEENS_9allocatorIcEEEEN8nlohmann16json_abi_v3_11_210basic_jsonINS_3mapENS_6vectorES7_bxydS5_NS9_14adl_serializerENSC_IhNS5_IhEEEEEEEEPNS_11__tree_nodeISH_PvEElEmmB7v160006Ev, symObjAddr: 0x1B3B4, symBinAddr: 0x1000244DC, symSize: 0x38 }
  - { offsetInCU: 0x52ECA, offset: 0x52ECA, size: 0x8, addend: 0x0, symName: __ZNSt3__16__treeINS_12__value_typeINS_12basic_stringIcNS_11char_traitsIcEENS_9allocatorIcEEEEN8nlohmann16json_abi_v3_11_210basic_jsonINS_3mapENS_6vectorES7_bxydS5_NS9_14adl_serializerENSC_IhNS5_IhEEEEEEEENS_19__map_value_compareIS7_SH_NS_4lessIvEELb1EEENS5_ISH_EEE12__find_equalIS7_EERPNS_16__tree_node_baseIPvEERPNS_15__tree_end_nodeISS_EERKT_, symObjAddr: 0x1B3EC, symBinAddr: 0x100024514, symSize: 0x184 }
  - { offsetInCU: 0x52F36, offset: 0x52F36, size: 0x8, addend: 0x0, symName: __ZNKSt3__121__tree_const_iteratorINS_12__value_typeINS_12basic_stringIcNS_11char_traitsIcEENS_9allocatorIcEEEEN8nlohmann16json_abi_v3_11_210basic_jsonINS_3mapENS_6vectorES7_bxydS5_NS9_14adl_serializerENSC_IhNS5_IhEEEEEEEEPNS_11__tree_nodeISH_PvEElE8__get_npB7v160006Ev, symObjAddr: 0x1B5C0, symBinAddr: 0x1000246E8, symSize: 0x18 }
  - { offsetInCU: 0x52F5B, offset: 0x52F5B, size: 0x8, addend: 0x0, symName: __ZNSt3__115__tree_iteratorINS_12__value_typeINS_12basic_stringIcNS_11char_traitsIcEENS_9allocatorIcEEEEN8nlohmann16json_abi_v3_11_210basic_jsonINS_3mapENS_6vectorES7_bxydS5_NS9_14adl_serializerENSC_IhNS5_IhEEEEEEEEPNS_11__tree_nodeISH_PvEElEC1B7v160006EPNS_15__tree_end_nodeIPNS_16__tree_node_baseISJ_EEEE, symObjAddr: 0x1B5D8, symBinAddr: 0x100024700, symSize: 0x34 }
  - { offsetInCU: 0x52F93, offset: 0x52F93, size: 0x8, addend: 0x0, symName: __ZNSt3__115__tree_iteratorINS_12__value_typeINS_12basic_stringIcNS_11char_traitsIcEENS_9allocatorIcEEEEN8nlohmann16json_abi_v3_11_210basic_jsonINS_3mapENS_6vectorES7_bxydS5_NS9_14adl_serializerENSC_IhNS5_IhEEEEEEEEPNS_11__tree_nodeISH_PvEElEC2B7v160006EPNS_15__tree_end_nodeIPNS_16__tree_node_baseISJ_EEEE, symObjAddr: 0x1B60C, symBinAddr: 0x100024734, symSize: 0x20 }
  - { offsetInCU: 0x52FCB, offset: 0x52FCB, size: 0x8, addend: 0x0, symName: __ZNSt3__121__tree_const_iteratorINS_12__value_typeINS_12basic_stringIcNS_11char_traitsIcEENS_9allocatorIcEEEEN8nlohmann16json_abi_v3_11_210basic_jsonINS_3mapENS_6vectorES7_bxydS5_NS9_14adl_serializerENSC_IhNS5_IhEEEEEEEEPNS_11__tree_nodeISH_PvEElEC2B7v160006ENS_15__tree_iteratorISH_SL_lEE, symObjAddr: 0x1B62C, symBinAddr: 0x100024754, symSize: 0x20 }
  - { offsetInCU: 0x53002, offset: 0x53002, size: 0x8, addend: 0x0, symName: __ZNSt3__117__compressed_pairImNS_19__map_value_compareINS_12basic_stringIcNS_11char_traitsIcEENS_9allocatorIcEEEENS_12__value_typeIS7_N8nlohmann16json_abi_v3_11_210basic_jsonINS_3mapENS_6vectorES7_bxydS5_NSA_14adl_serializerENSD_IhNS5_IhEEEEEEEENS_4lessIvEELb1EEEE6secondB7v160006Ev, symObjAddr: 0x1B64C, symBinAddr: 0x100024774, symSize: 0x24 }
  - { offsetInCU: 0x53027, offset: 0x53027, size: 0x8, addend: 0x0, symName: __ZNSt3__122__compressed_pair_elemINS_19__map_value_compareINS_12basic_stringIcNS_11char_traitsIcEENS_9allocatorIcEEEENS_12__value_typeIS7_N8nlohmann16json_abi_v3_11_210basic_jsonINS_3mapENS_6vectorES7_bxydS5_NSA_14adl_serializerENSD_IhNS5_IhEEEEEEEENS_4lessIvEELb1EEELi1ELb1EE5__getB7v160006Ev, symObjAddr: 0x1B670, symBinAddr: 0x100024798, symSize: 0x14 }
  - { offsetInCU: 0x53050, offset: 0x53050, size: 0x8, addend: 0x0, symName: __ZNKSt3__14lessIvEclB7v160006IRKNS_12basic_stringIcNS_11char_traitsIcEENS_9allocatorIcEEEESA_EEDTltclsr3stdE7forwardIT_Efp_Eclsr3stdE7forwardIT0_Efp0_EEOSB_OSC_, symObjAddr: 0x1B684, symBinAddr: 0x1000247AC, symSize: 0x34 }
  - { offsetInCU: 0x530A4, offset: 0x530A4, size: 0x8, addend: 0x0, symName: __ZNKSt3__112__value_typeINS_12basic_stringIcNS_11char_traitsIcEENS_9allocatorIcEEEEN8nlohmann16json_abi_v3_11_210basic_jsonINS_3mapENS_6vectorES6_bxydS4_NS8_14adl_serializerENSB_IhNS4_IhEEEEEEE11__get_valueB7v160006Ev, symObjAddr: 0x1B6B8, symBinAddr: 0x1000247E0, symSize: 0x24 }
  - { offsetInCU: 0x530C9, offset: 0x530C9, size: 0x8, addend: 0x0, symName: __ZNKSt3__112basic_stringIcNS_11char_traitsIcEENS_9allocatorIcEEE7compareB7v160006ERKS5_, symObjAddr: 0x1B714, symBinAddr: 0x10002483C, symSize: 0x4C }
  - { offsetInCU: 0x530FF, offset: 0x530FF, size: 0x8, addend: 0x0, symName: __ZNKSt3__112basic_stringIcNS_11char_traitsIcEENS_9allocatorIcEEE7compareINS_17basic_string_viewIcS2_EEEENS_9enable_ifIXsr33__can_be_converted_to_string_viewIcS2_T_EE5valueEiE4typeERKSA_, symObjAddr: 0x1B760, symBinAddr: 0x100024888, symSize: 0x12C }
  - { offsetInCU: 0x5317A, offset: 0x5317A, size: 0x8, addend: 0x0, symName: __ZNKSt3__112basic_stringIcNS_11char_traitsIcEENS_9allocatorIcEEEcvNS_17basic_string_viewIcS2_EEB7v160006Ev, symObjAddr: 0x1B88C, symBinAddr: 0x1000249B4, symSize: 0x50 }
  - { offsetInCU: 0x5319F, offset: 0x5319F, size: 0x8, addend: 0x0, symName: __ZNKSt3__117basic_string_viewIcNS_11char_traitsIcEEE4sizeB7v160006Ev, symObjAddr: 0x1B8DC, symBinAddr: 0x100024A04, symSize: 0x18 }
  - { offsetInCU: 0x531C4, offset: 0x531C4, size: 0x8, addend: 0x0, symName: __ZNSt3__111char_traitsIcE7compareEPKcS3_m, symObjAddr: 0x1B8F4, symBinAddr: 0x100024A1C, symSize: 0x6C }
  - { offsetInCU: 0x53203, offset: 0x53203, size: 0x8, addend: 0x0, symName: __ZNKSt3__117basic_string_viewIcNS_11char_traitsIcEEE4dataB7v160006Ev, symObjAddr: 0x1B960, symBinAddr: 0x100024A88, symSize: 0x18 }
  - { offsetInCU: 0x53228, offset: 0x53228, size: 0x8, addend: 0x0, symName: __ZNSt3__117basic_string_viewIcNS_11char_traitsIcEEEC1B7v160006EPKcm, symObjAddr: 0x1B9AC, symBinAddr: 0x100024AD4, symSize: 0x3C }
  - { offsetInCU: 0x5326F, offset: 0x5326F, size: 0x8, addend: 0x0, symName: __ZNSt3__117basic_string_viewIcNS_11char_traitsIcEEEC2B7v160006EPKcm, symObjAddr: 0x1B9E8, symBinAddr: 0x100024B10, symSize: 0x50 }
  - { offsetInCU: 0x532B6, offset: 0x532B6, size: 0x8, addend: 0x0, symName: __ZNKSt3__116__tree_node_baseIPvE15__parent_unsafeB7v160006Ev, symObjAddr: 0x1BB80, symBinAddr: 0x100024CA8, symSize: 0x18 }
  - { offsetInCU: 0x532DA, offset: 0x532DA, size: 0x8, addend: 0x0, symName: __ZNKSt3__16__treeINS_12__value_typeINS_12basic_stringIcNS_11char_traitsIcEENS_9allocatorIcEEEEN8nlohmann16json_abi_v3_11_210basic_jsonINS_3mapENS_6vectorES7_bxydS5_NS9_14adl_serializerENSC_IhNS5_IhEEEEEEEENS_19__map_value_compareIS7_SH_NS_4lessIvEELb1EEENS5_ISH_EEE6__rootB7v160006Ev, symObjAddr: 0x1BB98, symBinAddr: 0x100024CC0, symSize: 0x28 }
  - { offsetInCU: 0x532FE, offset: 0x532FE, size: 0x8, addend: 0x0, symName: __ZNKSt3__16__treeINS_12__value_typeINS_12basic_stringIcNS_11char_traitsIcEENS_9allocatorIcEEEEN8nlohmann16json_abi_v3_11_210basic_jsonINS_3mapENS_6vectorES7_bxydS5_NS9_14adl_serializerENSC_IhNS5_IhEEEEEEEENS_19__map_value_compareIS7_SH_NS_4lessIvEELb1EEENS5_ISH_EEE10__root_ptrEv, symObjAddr: 0x1BBC0, symBinAddr: 0x100024CE8, symSize: 0x24 }
  - { offsetInCU: 0x53322, offset: 0x53322, size: 0x8, addend: 0x0, symName: __ZNKSt3__16__treeINS_12__value_typeINS_12basic_stringIcNS_11char_traitsIcEENS_9allocatorIcEEEEN8nlohmann16json_abi_v3_11_210basic_jsonINS_3mapENS_6vectorES7_bxydS5_NS9_14adl_serializerENSC_IhNS5_IhEEEEEEEENS_19__map_value_compareIS7_SH_NS_4lessIvEELb1EEENS5_ISH_EEE10__end_nodeB7v160006Ev, symObjAddr: 0x1BBE4, symBinAddr: 0x100024D0C, symSize: 0x2C }
  - { offsetInCU: 0x53346, offset: 0x53346, size: 0x8, addend: 0x0, symName: __ZNKSt3__117__compressed_pairINS_15__tree_end_nodeIPNS_16__tree_node_baseIPvEEEENS_9allocatorINS_11__tree_nodeINS_12__value_typeINS_12basic_stringIcNS_11char_traitsIcEENS7_IcEEEEN8nlohmann16json_abi_v3_11_210basic_jsonINS_3mapENS_6vectorESE_bxydS7_NSG_14adl_serializerENSJ_IhNS7_IhEEEEEEEES3_EEEEE5firstB7v160006Ev, symObjAddr: 0x1BC10, symBinAddr: 0x100024D38, symSize: 0x24 }
  - { offsetInCU: 0x5336B, offset: 0x5336B, size: 0x8, addend: 0x0, symName: __ZNKSt3__122__compressed_pair_elemINS_15__tree_end_nodeIPNS_16__tree_node_baseIPvEEEELi0ELb0EE5__getB7v160006Ev, symObjAddr: 0x1BC34, symBinAddr: 0x100024D5C, symSize: 0x14 }
  - { offsetInCU: 0x5338F, offset: 0x5338F, size: 0x8, addend: 0x0, symName: __ZNSt3__121__tree_const_iteratorINS_12__value_typeINS_12basic_stringIcNS_11char_traitsIcEENS_9allocatorIcEEEEN8nlohmann16json_abi_v3_11_210basic_jsonINS_3mapENS_6vectorES7_bxydS5_NS9_14adl_serializerENSC_IhNS5_IhEEEEEEEEPNS_11__tree_nodeISH_PvEElEppB7v160006Ev, symObjAddr: 0x1BD50, symBinAddr: 0x100024E78, symSize: 0x38 }
  - { offsetInCU: 0x533B3, offset: 0x533B3, size: 0x8, addend: 0x0, symName: __ZNSt3__16__treeINS_12__value_typeINS_12basic_stringIcNS_11char_traitsIcEENS_9allocatorIcEEEEN8nlohmann16json_abi_v3_11_210basic_jsonINS_3mapENS_6vectorES7_bxydS5_NS9_14adl_serializerENSC_IhNS5_IhEEEEEEEENS_19__map_value_compareIS7_SH_NS_4lessIvEELb1EEENS5_ISH_EEE12__node_allocB7v160006Ev, symObjAddr: 0x1BE48, symBinAddr: 0x100024F70, symSize: 0x28 }
  - { offsetInCU: 0x533D8, offset: 0x533D8, size: 0x8, addend: 0x0, symName: __ZNSt3__116allocator_traitsINS_9allocatorINS_11__tree_nodeINS_12__value_typeINS_12basic_stringIcNS_11char_traitsIcEENS1_IcEEEEN8nlohmann16json_abi_v3_11_210basic_jsonINS_3mapENS_6vectorES8_bxydS1_NSA_14adl_serializerENSD_IhNS1_IhEEEEEEEEPvEEEEE8allocateB7v160006ERSL_m, symObjAddr: 0x1BE70, symBinAddr: 0x100024F98, symSize: 0x2C }
  - { offsetInCU: 0x5340B, offset: 0x5340B, size: 0x8, addend: 0x0, symName: __ZNSt3__122__tree_node_destructorINS_9allocatorINS_11__tree_nodeINS_12__value_typeINS_12basic_stringIcNS_11char_traitsIcEENS1_IcEEEEN8nlohmann16json_abi_v3_11_210basic_jsonINS_3mapENS_6vectorES8_bxydS1_NSA_14adl_serializerENSD_IhNS1_IhEEEEEEEEPvEEEEEC1B7v160006ERSL_b, symObjAddr: 0x1BE9C, symBinAddr: 0x100024FC4, symSize: 0x48 }
  - { offsetInCU: 0x53458, offset: 0x53458, size: 0x8, addend: 0x0, symName: __ZNSt3__110unique_ptrINS_11__tree_nodeINS_12__value_typeINS_12basic_stringIcNS_11char_traitsIcEENS_9allocatorIcEEEEN8nlohmann16json_abi_v3_11_210basic_jsonINS_3mapENS_6vectorES8_bxydS6_NSA_14adl_serializerENSD_IhNS6_IhEEEEEEEEPvEENS_22__tree_node_destructorINS6_ISK_EEEEEC1B7v160006ILb1EvEEPSK_NS_16__dependent_typeINS_27__unique_ptr_deleter_sfinaeISN_EEXT_EE20__good_rval_ref_typeE, symObjAddr: 0x1BEE4, symBinAddr: 0x10002500C, symSize: 0x3C }
  - { offsetInCU: 0x534A9, offset: 0x534A9, size: 0x8, addend: 0x0, symName: __ZNSt3__116allocator_traitsINS_9allocatorINS_11__tree_nodeINS_12__value_typeINS_12basic_stringIcNS_11char_traitsIcEENS1_IcEEEEN8nlohmann16json_abi_v3_11_210basic_jsonINS_3mapENS_6vectorES8_bxydS1_NSA_14adl_serializerENSD_IhNS1_IhEEEEEEEEPvEEEEE9constructB7v160006INS_4pairIKS8_SH_EEJRKSQ_EvEEvRSL_PT_DpOT0_, symObjAddr: 0x1BF20, symBinAddr: 0x100025048, symSize: 0x34 }
  - { offsetInCU: 0x53501, offset: 0x53501, size: 0x8, addend: 0x0, symName: __ZNSt3__122__tree_key_value_typesINS_12__value_typeINS_12basic_stringIcNS_11char_traitsIcEENS_9allocatorIcEEEEN8nlohmann16json_abi_v3_11_210basic_jsonINS_3mapENS_6vectorES7_bxydS5_NS9_14adl_serializerENSC_IhNS5_IhEEEEEEEEE9__get_ptrB7v160006ERSH_, symObjAddr: 0x1BF54, symBinAddr: 0x10002507C, symSize: 0x24 }
  - { offsetInCU: 0x53524, offset: 0x53524, size: 0x8, addend: 0x0, symName: __ZNKSt3__110unique_ptrINS_11__tree_nodeINS_12__value_typeINS_12basic_stringIcNS_11char_traitsIcEENS_9allocatorIcEEEEN8nlohmann16json_abi_v3_11_210basic_jsonINS_3mapENS_6vectorES8_bxydS6_NSA_14adl_serializerENSD_IhNS6_IhEEEEEEEEPvEENS_22__tree_node_destructorINS6_ISK_EEEEEptB7v160006Ev, symObjAddr: 0x1BF78, symBinAddr: 0x1000250A0, symSize: 0x28 }
  - { offsetInCU: 0x53548, offset: 0x53548, size: 0x8, addend: 0x0, symName: __ZNSt3__110unique_ptrINS_11__tree_nodeINS_12__value_typeINS_12basic_stringIcNS_11char_traitsIcEENS_9allocatorIcEEEEN8nlohmann16json_abi_v3_11_210basic_jsonINS_3mapENS_6vectorES8_bxydS6_NSA_14adl_serializerENSD_IhNS6_IhEEEEEEEEPvEENS_22__tree_node_destructorINS6_ISK_EEEEE11get_deleterB7v160006Ev, symObjAddr: 0x1BFA0, symBinAddr: 0x1000250C8, symSize: 0x24 }
  - { offsetInCU: 0x5356C, offset: 0x5356C, size: 0x8, addend: 0x0, symName: __ZNSt3__117__compressed_pairINS_15__tree_end_nodeIPNS_16__tree_node_baseIPvEEEENS_9allocatorINS_11__tree_nodeINS_12__value_typeINS_12basic_stringIcNS_11char_traitsIcEENS7_IcEEEEN8nlohmann16json_abi_v3_11_210basic_jsonINS_3mapENS_6vectorESE_bxydS7_NSG_14adl_serializerENSJ_IhNS7_IhEEEEEEEES3_EEEEE6secondB7v160006Ev, symObjAddr: 0x1BFC4, symBinAddr: 0x1000250EC, symSize: 0x24 }
  - { offsetInCU: 0x53591, offset: 0x53591, size: 0x8, addend: 0x0, symName: __ZNSt3__122__compressed_pair_elemINS_9allocatorINS_11__tree_nodeINS_12__value_typeINS_12basic_stringIcNS_11char_traitsIcEENS1_IcEEEEN8nlohmann16json_abi_v3_11_210basic_jsonINS_3mapENS_6vectorES8_bxydS1_NSA_14adl_serializerENSD_IhNS1_IhEEEEEEEEPvEEEELi1ELb1EE5__getB7v160006Ev, symObjAddr: 0x1BFE8, symBinAddr: 0x100025110, symSize: 0x14 }
  - { offsetInCU: 0x535B5, offset: 0x535B5, size: 0x8, addend: 0x0, symName: __ZNSt3__19allocatorINS_11__tree_nodeINS_12__value_typeINS_12basic_stringIcNS_11char_traitsIcEENS0_IcEEEEN8nlohmann16json_abi_v3_11_210basic_jsonINS_3mapENS_6vectorES7_bxydS0_NS9_14adl_serializerENSC_IhNS0_IhEEEEEEEEPvEEE8allocateB7v160006Em, symObjAddr: 0x1BFFC, symBinAddr: 0x100025124, symSize: 0x5C }
  - { offsetInCU: 0x535E8, offset: 0x535E8, size: 0x8, addend: 0x0, symName: __ZNSt3__122__tree_node_destructorINS_9allocatorINS_11__tree_nodeINS_12__value_typeINS_12basic_stringIcNS_11char_traitsIcEENS1_IcEEEEN8nlohmann16json_abi_v3_11_210basic_jsonINS_3mapENS_6vectorES8_bxydS1_NSA_14adl_serializerENSD_IhNS1_IhEEEEEEEEPvEEEEEC2B7v160006ERSL_b, symObjAddr: 0x1C058, symBinAddr: 0x100025180, symSize: 0x38 }
  - { offsetInCU: 0x5362F, offset: 0x5362F, size: 0x8, addend: 0x0, symName: __ZNSt3__110unique_ptrINS_11__tree_nodeINS_12__value_typeINS_12basic_stringIcNS_11char_traitsIcEENS_9allocatorIcEEEEN8nlohmann16json_abi_v3_11_210basic_jsonINS_3mapENS_6vectorES8_bxydS6_NSA_14adl_serializerENSD_IhNS6_IhEEEEEEEEPvEENS_22__tree_node_destructorINS6_ISK_EEEEEC2B7v160006ILb1EvEEPSK_NS_16__dependent_typeINS_27__unique_ptr_deleter_sfinaeISN_EEXT_EE20__good_rval_ref_typeE, symObjAddr: 0x1C090, symBinAddr: 0x1000251B8, symSize: 0x48 }
  - { offsetInCU: 0x53680, offset: 0x53680, size: 0x8, addend: 0x0, symName: __ZNSt3__117__compressed_pairIPNS_11__tree_nodeINS_12__value_typeINS_12basic_stringIcNS_11char_traitsIcEENS_9allocatorIcEEEEN8nlohmann16json_abi_v3_11_210basic_jsonINS_3mapENS_6vectorES8_bxydS6_NSA_14adl_serializerENSD_IhNS6_IhEEEEEEEEPvEENS_22__tree_node_destructorINS6_ISK_EEEEEC1B7v160006IRSL_SO_EEOT_OT0_, symObjAddr: 0x1C0D8, symBinAddr: 0x100025200, symSize: 0x3C }
  - { offsetInCU: 0x536D7, offset: 0x536D7, size: 0x8, addend: 0x0, symName: __ZNSt3__117__compressed_pairIPNS_11__tree_nodeINS_12__value_typeINS_12basic_stringIcNS_11char_traitsIcEENS_9allocatorIcEEEEN8nlohmann16json_abi_v3_11_210basic_jsonINS_3mapENS_6vectorES8_bxydS6_NSA_14adl_serializerENSD_IhNS6_IhEEEEEEEEPvEENS_22__tree_node_destructorINS6_ISK_EEEEEC2B7v160006IRSL_SO_EEOT_OT0_, symObjAddr: 0x1C114, symBinAddr: 0x10002523C, symSize: 0x48 }
  - { offsetInCU: 0x5372E, offset: 0x5372E, size: 0x8, addend: 0x0, symName: __ZNSt3__122__compressed_pair_elemIPNS_11__tree_nodeINS_12__value_typeINS_12basic_stringIcNS_11char_traitsIcEENS_9allocatorIcEEEEN8nlohmann16json_abi_v3_11_210basic_jsonINS_3mapENS_6vectorES8_bxydS6_NSA_14adl_serializerENSD_IhNS6_IhEEEEEEEEPvEELi0ELb0EEC2B7v160006IRSL_vEEOT_, symObjAddr: 0x1C15C, symBinAddr: 0x100025284, symSize: 0x24 }
  - { offsetInCU: 0x53770, offset: 0x53770, size: 0x8, addend: 0x0, symName: __ZNSt3__122__compressed_pair_elemINS_22__tree_node_destructorINS_9allocatorINS_11__tree_nodeINS_12__value_typeINS_12basic_stringIcNS_11char_traitsIcEENS2_IcEEEEN8nlohmann16json_abi_v3_11_210basic_jsonINS_3mapENS_6vectorES9_bxydS2_NSB_14adl_serializerENSE_IhNS2_IhEEEEEEEEPvEEEEEELi1ELb0EEC2B7v160006ISN_vEEOT_, symObjAddr: 0x1C180, symBinAddr: 0x1000252A8, symSize: 0x24 }
  - { offsetInCU: 0x537B1, offset: 0x537B1, size: 0x8, addend: 0x0, symName: __ZNSt3__19allocatorINS_11__tree_nodeINS_12__value_typeINS_12basic_stringIcNS_11char_traitsIcEENS0_IcEEEEN8nlohmann16json_abi_v3_11_210basic_jsonINS_3mapENS_6vectorES7_bxydS0_NS9_14adl_serializerENSC_IhNS0_IhEEEEEEEEPvEEE9constructB7v160006INS_4pairIKS7_SG_EEJRKSO_EEEvPT_DpOT0_, symObjAddr: 0x1C1A4, symBinAddr: 0x1000252CC, symSize: 0x30 }
  - { offsetInCU: 0x53806, offset: 0x53806, size: 0x8, addend: 0x0, symName: __ZNSt3__14pairIKNS_12basic_stringIcNS_11char_traitsIcEENS_9allocatorIcEEEEN8nlohmann16json_abi_v3_11_210basic_jsonINS_3mapENS_6vectorES6_bxydS4_NS9_14adl_serializerENSC_IhNS4_IhEEEEEEEC1ERKSH_, symObjAddr: 0x1C1D4, symBinAddr: 0x1000252FC, symSize: 0x34 }
  - { offsetInCU: 0x5383A, offset: 0x5383A, size: 0x8, addend: 0x0, symName: __ZNSt3__14pairIKNS_12basic_stringIcNS_11char_traitsIcEENS_9allocatorIcEEEEN8nlohmann16json_abi_v3_11_210basic_jsonINS_3mapENS_6vectorES6_bxydS4_NS9_14adl_serializerENSC_IhNS4_IhEEEEEEEC2ERKSH_, symObjAddr: 0x1C208, symBinAddr: 0x100025330, symSize: 0x70 }
  - { offsetInCU: 0x5386D, offset: 0x5386D, size: 0x8, addend: 0x0, symName: __ZNSt3__112__value_typeINS_12basic_stringIcNS_11char_traitsIcEENS_9allocatorIcEEEEN8nlohmann16json_abi_v3_11_210basic_jsonINS_3mapENS_6vectorES6_bxydS4_NS8_14adl_serializerENSB_IhNS4_IhEEEEEEE11__get_valueB7v160006Ev, symObjAddr: 0x1C278, symBinAddr: 0x1000253A0, symSize: 0x24 }
  - { offsetInCU: 0x53891, offset: 0x53891, size: 0x8, addend: 0x0, symName: __ZNKSt3__117__compressed_pairIPNS_11__tree_nodeINS_12__value_typeINS_12basic_stringIcNS_11char_traitsIcEENS_9allocatorIcEEEEN8nlohmann16json_abi_v3_11_210basic_jsonINS_3mapENS_6vectorES8_bxydS6_NSA_14adl_serializerENSD_IhNS6_IhEEEEEEEEPvEENS_22__tree_node_destructorINS6_ISK_EEEEE5firstB7v160006Ev, symObjAddr: 0x1C2D4, symBinAddr: 0x1000253FC, symSize: 0x24 }
  - { offsetInCU: 0x538B6, offset: 0x538B6, size: 0x8, addend: 0x0, symName: __ZNKSt3__122__compressed_pair_elemIPNS_11__tree_nodeINS_12__value_typeINS_12basic_stringIcNS_11char_traitsIcEENS_9allocatorIcEEEEN8nlohmann16json_abi_v3_11_210basic_jsonINS_3mapENS_6vectorES8_bxydS6_NSA_14adl_serializerENSD_IhNS6_IhEEEEEEEEPvEELi0ELb0EE5__getB7v160006Ev, symObjAddr: 0x1C2F8, symBinAddr: 0x100025420, symSize: 0x14 }
  - { offsetInCU: 0x538DA, offset: 0x538DA, size: 0x8, addend: 0x0, symName: __ZNSt3__117__compressed_pairIPNS_11__tree_nodeINS_12__value_typeINS_12basic_stringIcNS_11char_traitsIcEENS_9allocatorIcEEEEN8nlohmann16json_abi_v3_11_210basic_jsonINS_3mapENS_6vectorES8_bxydS6_NSA_14adl_serializerENSD_IhNS6_IhEEEEEEEEPvEENS_22__tree_node_destructorINS6_ISK_EEEEE6secondB7v160006Ev, symObjAddr: 0x1C30C, symBinAddr: 0x100025434, symSize: 0x28 }
  - { offsetInCU: 0x538FF, offset: 0x538FF, size: 0x8, addend: 0x0, symName: __ZNSt3__122__compressed_pair_elemINS_22__tree_node_destructorINS_9allocatorINS_11__tree_nodeINS_12__value_typeINS_12basic_stringIcNS_11char_traitsIcEENS2_IcEEEEN8nlohmann16json_abi_v3_11_210basic_jsonINS_3mapENS_6vectorES9_bxydS2_NSB_14adl_serializerENSE_IhNS2_IhEEEEEEEEPvEEEEEELi1ELb0EE5__getB7v160006Ev, symObjAddr: 0x1C334, symBinAddr: 0x10002545C, symSize: 0x14 }
  - { offsetInCU: 0x53923, offset: 0x53923, size: 0x8, addend: 0x0, symName: __ZNSt3__16__treeINS_12__value_typeINS_12basic_stringIcNS_11char_traitsIcEENS_9allocatorIcEEEEN8nlohmann16json_abi_v3_11_210basic_jsonINS_3mapENS_6vectorES7_bxydS5_NS9_14adl_serializerENSC_IhNS5_IhEEEEEEEENS_19__map_value_compareIS7_SH_NS_4lessIvEELb1EEENS5_ISH_EEE4sizeB7v160006Ev, symObjAddr: 0x1C5C4, symBinAddr: 0x1000256EC, symSize: 0x28 }
  - { offsetInCU: 0x53948, offset: 0x53948, size: 0x8, addend: 0x0, symName: __ZNSt3__116__tree_node_baseIPvE12__set_parentB7v160006EPS2_, symObjAddr: 0x1C790, symBinAddr: 0x1000258B8, symSize: 0x20 }
  - { offsetInCU: 0x5397B, offset: 0x5397B, size: 0x8, addend: 0x0, symName: __ZNSt3__117__compressed_pairImNS_19__map_value_compareINS_12basic_stringIcNS_11char_traitsIcEENS_9allocatorIcEEEENS_12__value_typeIS7_N8nlohmann16json_abi_v3_11_210basic_jsonINS_3mapENS_6vectorES7_bxydS5_NSA_14adl_serializerENSD_IhNS5_IhEEEEEEEENS_4lessIvEELb1EEEE5firstB7v160006Ev, symObjAddr: 0x1C7B0, symBinAddr: 0x1000258D8, symSize: 0x24 }
  - { offsetInCU: 0x5399F, offset: 0x5399F, size: 0x8, addend: 0x0, symName: __ZNSt3__117__compressed_pairIPNS_11__tree_nodeINS_12__value_typeINS_12basic_stringIcNS_11char_traitsIcEENS_9allocatorIcEEEEN8nlohmann16json_abi_v3_11_210basic_jsonINS_3mapENS_6vectorES8_bxydS6_NSA_14adl_serializerENSD_IhNS6_IhEEEEEEEEPvEENS_22__tree_node_destructorINS6_ISK_EEEEE5firstB7v160006Ev, symObjAddr: 0x1C7D4, symBinAddr: 0x1000258FC, symSize: 0x24 }
  - { offsetInCU: 0x539C4, offset: 0x539C4, size: 0x8, addend: 0x0, symName: __ZNSt3__122__compressed_pair_elemIPNS_11__tree_nodeINS_12__value_typeINS_12basic_stringIcNS_11char_traitsIcEENS_9allocatorIcEEEEN8nlohmann16json_abi_v3_11_210basic_jsonINS_3mapENS_6vectorES8_bxydS6_NSA_14adl_serializerENSD_IhNS6_IhEEEEEEEEPvEELi0ELb0EE5__getB7v160006Ev, symObjAddr: 0x1C7F8, symBinAddr: 0x100025920, symSize: 0x14 }
  - { offsetInCU: 0x539E9, offset: 0x539E9, size: 0x8, addend: 0x0, symName: __ZNSt3__110unique_ptrINS_11__tree_nodeINS_12__value_typeINS_12basic_stringIcNS_11char_traitsIcEENS_9allocatorIcEEEEN8nlohmann16json_abi_v3_11_210basic_jsonINS_3mapENS_6vectorES8_bxydS6_NSA_14adl_serializerENSD_IhNS6_IhEEEEEEEEPvEENS_22__tree_node_destructorINS6_ISK_EEEEED2B7v160006Ev, symObjAddr: 0x1C80C, symBinAddr: 0x100025934, symSize: 0x30 }
  - { offsetInCU: 0x53A11, offset: 0x53A11, size: 0x8, addend: 0x0, symName: __ZNSt3__110unique_ptrINS_11__tree_nodeINS_12__value_typeINS_12basic_stringIcNS_11char_traitsIcEENS_9allocatorIcEEEEN8nlohmann16json_abi_v3_11_210basic_jsonINS_3mapENS_6vectorES8_bxydS6_NSA_14adl_serializerENSD_IhNS6_IhEEEEEEEEPvEENS_22__tree_node_destructorINS6_ISK_EEEEE5resetB7v160006EPSK_, symObjAddr: 0x1C83C, symBinAddr: 0x100025964, symSize: 0x78 }
  - { offsetInCU: 0x53A53, offset: 0x53A53, size: 0x8, addend: 0x0, symName: __ZNSt3__122__tree_node_destructorINS_9allocatorINS_11__tree_nodeINS_12__value_typeINS_12basic_stringIcNS_11char_traitsIcEENS1_IcEEEEN8nlohmann16json_abi_v3_11_210basic_jsonINS_3mapENS_6vectorES8_bxydS1_NSA_14adl_serializerENSD_IhNS1_IhEEEEEEEEPvEEEEEclB7v160006EPSK_, symObjAddr: 0x1C8B4, symBinAddr: 0x1000259DC, symSize: 0x98 }
  - { offsetInCU: 0x53A87, offset: 0x53A87, size: 0x8, addend: 0x0, symName: __ZNSt3__116allocator_traitsINS_9allocatorINS_11__tree_nodeINS_12__value_typeINS_12basic_stringIcNS_11char_traitsIcEENS1_IcEEEEN8nlohmann16json_abi_v3_11_210basic_jsonINS_3mapENS_6vectorES8_bxydS1_NSA_14adl_serializerENSD_IhNS1_IhEEEEEEEEPvEEEEE7destroyB7v160006INS_4pairIKS8_SH_EEvvEEvRSL_PT_, symObjAddr: 0x1C94C, symBinAddr: 0x100025A74, symSize: 0x28 }
  - { offsetInCU: 0x53AC3, offset: 0x53AC3, size: 0x8, addend: 0x0, symName: __ZNSt3__116allocator_traitsINS_9allocatorINS_11__tree_nodeINS_12__value_typeINS_12basic_stringIcNS_11char_traitsIcEENS1_IcEEEEN8nlohmann16json_abi_v3_11_210basic_jsonINS_3mapENS_6vectorES8_bxydS1_NSA_14adl_serializerENSD_IhNS1_IhEEEEEEEEPvEEEEE10deallocateB7v160006ERSL_PSK_m, symObjAddr: 0x1C974, symBinAddr: 0x100025A9C, symSize: 0x34 }
  - { offsetInCU: 0x53B05, offset: 0x53B05, size: 0x8, addend: 0x0, symName: __ZNSt3__14pairIKNS_12basic_stringIcNS_11char_traitsIcEENS_9allocatorIcEEEEN8nlohmann16json_abi_v3_11_210basic_jsonINS_3mapENS_6vectorES6_bxydS4_NS9_14adl_serializerENSC_IhNS4_IhEEEEEEED1Ev, symObjAddr: 0x1C9A8, symBinAddr: 0x100025AD0, symSize: 0x2C }
  - { offsetInCU: 0x53B30, offset: 0x53B30, size: 0x8, addend: 0x0, symName: __ZNSt3__14pairIKNS_12basic_stringIcNS_11char_traitsIcEENS_9allocatorIcEEEEN8nlohmann16json_abi_v3_11_210basic_jsonINS_3mapENS_6vectorES6_bxydS4_NS9_14adl_serializerENSC_IhNS4_IhEEEEEEED2Ev, symObjAddr: 0x1C9D4, symBinAddr: 0x100025AFC, symSize: 0x38 }
  - { offsetInCU: 0x53B5A, offset: 0x53B5A, size: 0x8, addend: 0x0, symName: __ZNSt3__19allocatorINS_11__tree_nodeINS_12__value_typeINS_12basic_stringIcNS_11char_traitsIcEENS0_IcEEEEN8nlohmann16json_abi_v3_11_210basic_jsonINS_3mapENS_6vectorES7_bxydS0_NS9_14adl_serializerENSC_IhNS0_IhEEEEEEEEPvEEE10deallocateB7v160006EPSJ_m, symObjAddr: 0x1CA0C, symBinAddr: 0x100025B34, symSize: 0x44 }
  - { offsetInCU: 0x53B9B, offset: 0x53B9B, size: 0x8, addend: 0x0, symName: __ZNSt3__115__tree_iteratorINS_12__value_typeINS_12basic_stringIcNS_11char_traitsIcEENS_9allocatorIcEEEEN8nlohmann16json_abi_v3_11_210basic_jsonINS_3mapENS_6vectorES7_bxydS5_NS9_14adl_serializerENSC_IhNS5_IhEEEEEEEEPNS_11__tree_nodeISH_PvEElEC2B7v160006ESL_, symObjAddr: 0x1CA50, symBinAddr: 0x100025B78, symSize: 0x20 }
  - { offsetInCU: 0x53BD3, offset: 0x53BD3, size: 0x8, addend: 0x0, symName: __ZNSt3__14pairINS_15__tree_iteratorINS_12__value_typeINS_12basic_stringIcNS_11char_traitsIcEENS_9allocatorIcEEEEN8nlohmann16json_abi_v3_11_210basic_jsonINS_3mapENS_6vectorES8_bxydS6_NSA_14adl_serializerENSD_IhNS6_IhEEEEEEEEPNS_11__tree_nodeISI_PvEElEEbEC2B7v160006ISN_RbLSK_0EEEOT_OT0_, symObjAddr: 0x1CA70, symBinAddr: 0x100025B98, symSize: 0x38 }
  - { offsetInCU: 0x53C30, offset: 0x53C30, size: 0x8, addend: 0x0, symName: __ZNSt3__114__map_iteratorINS_15__tree_iteratorINS_12__value_typeINS_12basic_stringIcNS_11char_traitsIcEENS_9allocatorIcEEEEN8nlohmann16json_abi_v3_11_210basic_jsonINS_3mapENS_6vectorES8_bxydS6_NSA_14adl_serializerENSD_IhNS6_IhEEEEEEEEPNS_11__tree_nodeISI_PvEElEEEC2B7v160006ESN_, symObjAddr: 0x1CAA8, symBinAddr: 0x100025BD0, symSize: 0x20 }
  - { offsetInCU: 0x53C68, offset: 0x53C68, size: 0x8, addend: 0x0, symName: __ZNSt3__120__map_const_iteratorINS_21__tree_const_iteratorINS_12__value_typeINS_12basic_stringIcNS_11char_traitsIcEENS_9allocatorIcEEEEN8nlohmann16json_abi_v3_11_210basic_jsonINS_3mapENS_6vectorES8_bxydS6_NSA_14adl_serializerENSD_IhNS6_IhEEEEEEEEPNS_11__tree_nodeISI_PvEElEEEC2B7v160006ESN_, symObjAddr: 0x1CAC8, symBinAddr: 0x100025BF0, symSize: 0x20 }
  - { offsetInCU: 0x53C9F, offset: 0x53C9F, size: 0x8, addend: 0x0, symName: __ZNKSt3__121__tree_const_iteratorINS_12__value_typeINS_12basic_stringIcNS_11char_traitsIcEENS_9allocatorIcEEEEN8nlohmann16json_abi_v3_11_210basic_jsonINS_3mapENS_6vectorES7_bxydS5_NS9_14adl_serializerENSC_IhNS5_IhEEEEEEEEPNS_11__tree_nodeISH_PvEElEptB7v160006Ev, symObjAddr: 0x1CAE8, symBinAddr: 0x100025C10, symSize: 0x2C }
  - { offsetInCU: 0x53CC4, offset: 0x53CC4, size: 0x8, addend: 0x0, symName: __ZNSt3__114pointer_traitsIPKNS_12__value_typeINS_12basic_stringIcNS_11char_traitsIcEENS_9allocatorIcEEEEN8nlohmann16json_abi_v3_11_210basic_jsonINS_3mapENS_6vectorES7_bxydS5_NS9_14adl_serializerENSC_IhNS5_IhEEEEEEEEE10pointer_toB7v160006ERSI_, symObjAddr: 0x1CB14, symBinAddr: 0x100025C3C, symSize: 0x14 }
  - { offsetInCU: 0x53CE6, offset: 0x53CE6, size: 0x8, addend: 0x0, symName: __ZNKSt3__16__treeINS_12__value_typeINS_12basic_stringIcNS_11char_traitsIcEENS_9allocatorIcEEEEN8nlohmann16json_abi_v3_11_210basic_jsonINS_3mapENS_6vectorES7_bxydS5_NS9_14adl_serializerENSC_IhNS5_IhEEEEEEEENS_19__map_value_compareIS7_SH_NS_4lessIvEELb1EEENS5_ISH_EEE5beginB7v160006Ev, symObjAddr: 0x1CB28, symBinAddr: 0x100025C50, symSize: 0x34 }
  - { offsetInCU: 0x53D0B, offset: 0x53D0B, size: 0x8, addend: 0x0, symName: __ZNKSt3__16__treeINS_12__value_typeINS_12basic_stringIcNS_11char_traitsIcEENS_9allocatorIcEEEEN8nlohmann16json_abi_v3_11_210basic_jsonINS_3mapENS_6vectorES7_bxydS5_NS9_14adl_serializerENSC_IhNS5_IhEEEEEEEENS_19__map_value_compareIS7_SH_NS_4lessIvEELb1EEENS5_ISH_EEE12__begin_nodeB7v160006Ev, symObjAddr: 0x1CB5C, symBinAddr: 0x100025C84, symSize: 0x14 }
  - { offsetInCU: 0x53D30, offset: 0x53D30, size: 0x8, addend: 0x0, symName: __ZNSt3__121__tree_const_iteratorINS_12__value_typeINS_12basic_stringIcNS_11char_traitsIcEENS_9allocatorIcEEEEN8nlohmann16json_abi_v3_11_210basic_jsonINS_3mapENS_6vectorES7_bxydS5_NS9_14adl_serializerENSC_IhNS5_IhEEEEEEEEPNS_11__tree_nodeISH_PvEElEC1B7v160006EPNS_15__tree_end_nodeIPNS_16__tree_node_baseISJ_EEEE, symObjAddr: 0x1CB70, symBinAddr: 0x100025C98, symSize: 0x34 }
  - { offsetInCU: 0x53D68, offset: 0x53D68, size: 0x8, addend: 0x0, symName: __ZNSt3__121__tree_const_iteratorINS_12__value_typeINS_12basic_stringIcNS_11char_traitsIcEENS_9allocatorIcEEEEN8nlohmann16json_abi_v3_11_210basic_jsonINS_3mapENS_6vectorES7_bxydS5_NS9_14adl_serializerENSC_IhNS5_IhEEEEEEEEPNS_11__tree_nodeISH_PvEElEC2B7v160006EPNS_15__tree_end_nodeIPNS_16__tree_node_baseISJ_EEEE, symObjAddr: 0x1CBA4, symBinAddr: 0x100025CCC, symSize: 0x20 }
  - { offsetInCU: 0x53D9F, offset: 0x53D9F, size: 0x8, addend: 0x0, symName: __ZNKSt3__16__treeINS_12__value_typeINS_12basic_stringIcNS_11char_traitsIcEENS_9allocatorIcEEEEN8nlohmann16json_abi_v3_11_210basic_jsonINS_3mapENS_6vectorES7_bxydS5_NS9_14adl_serializerENSC_IhNS5_IhEEEEEEEENS_19__map_value_compareIS7_SH_NS_4lessIvEELb1EEENS5_ISH_EEE3endB7v160006Ev, symObjAddr: 0x1CBC4, symBinAddr: 0x100025CEC, symSize: 0x34 }
  - { offsetInCU: 0x53DC4, offset: 0x53DC4, size: 0x8, addend: 0x0, symName: __ZNSt3__16__treeINS_12__value_typeINS_12basic_stringIcNS_11char_traitsIcEENS_9allocatorIcEEEEN8nlohmann16json_abi_v3_11_210basic_jsonINS_3mapENS_6vectorES7_bxydS5_NS9_14adl_serializerENSC_IhNS5_IhEEEEEEEENS_19__map_value_compareIS7_SH_NS_4lessIvEELb1EEENS5_ISH_EEED2Ev, symObjAddr: 0x1CBF8, symBinAddr: 0x100025D20, symSize: 0x38 }
  - { offsetInCU: 0x53DEF, offset: 0x53DEF, size: 0x8, addend: 0x0, symName: __ZNSt3__16__treeINS_12__value_typeINS_12basic_stringIcNS_11char_traitsIcEENS_9allocatorIcEEEEN8nlohmann16json_abi_v3_11_210basic_jsonINS_3mapENS_6vectorES7_bxydS5_NS9_14adl_serializerENSC_IhNS5_IhEEEEEEEENS_19__map_value_compareIS7_SH_NS_4lessIvEELb1EEENS5_ISH_EEE7destroyEPNS_11__tree_nodeISH_PvEE, symObjAddr: 0x1CC30, symBinAddr: 0x100025D58, symSize: 0xA8 }
  - { offsetInCU: 0x53E3A, offset: 0x53E3A, size: 0x8, addend: 0x0, symName: __ZNKSt3__117__compressed_pairIPNS_3mapINS_12basic_stringIcNS_11char_traitsIcEENS_9allocatorIcEEEEN8nlohmann16json_abi_v3_11_210basic_jsonIS1_NS_6vectorES7_bxydS5_NS9_14adl_serializerENSB_IhNS5_IhEEEEEENS_4lessIvEENS5_INS_4pairIKS7_SF_EEEEEEZNSF_6createISM_JRKSM_EEEPT_DpOT0_EUlSN_E_E5firstB7v160006Ev, symObjAddr: 0x1CCD8, symBinAddr: 0x100025E00, symSize: 0x24 }
  - { offsetInCU: 0x53E5E, offset: 0x53E5E, size: 0x8, addend: 0x0, symName: __ZNKSt3__110unique_ptrINS_3mapINS_12basic_stringIcNS_11char_traitsIcEENS_9allocatorIcEEEEN8nlohmann16json_abi_v3_11_210basic_jsonIS1_NS_6vectorES7_bxydS5_NS9_14adl_serializerENSB_IhNS5_IhEEEEEENS_4lessIvEENS5_INS_4pairIKS7_SF_EEEEEEZNSF_6createISM_JRKSM_EEEPT_DpOT0_EUlPSM_E_EcvbB7v160006Ev, symObjAddr: 0x1CCFC, symBinAddr: 0x100025E24, symSize: 0x34 }
  - { offsetInCU: 0x53E82, offset: 0x53E82, size: 0x8, addend: 0x0, symName: __ZNSt3__117__compressed_pairIPNS_3mapINS_12basic_stringIcNS_11char_traitsIcEENS_9allocatorIcEEEEN8nlohmann16json_abi_v3_11_210basic_jsonIS1_NS_6vectorES7_bxydS5_NS9_14adl_serializerENSB_IhNS5_IhEEEEEENS_4lessIvEENS5_INS_4pairIKS7_SF_EEEEEEZNSF_6createISM_JRKSM_EEEPT_DpOT0_EUlSN_E_E5firstB7v160006Ev, symObjAddr: 0x1CD30, symBinAddr: 0x100025E58, symSize: 0x24 }
  - { offsetInCU: 0x53EA7, offset: 0x53EA7, size: 0x8, addend: 0x0, symName: __ZNSt3__110unique_ptrINS_3mapINS_12basic_stringIcNS_11char_traitsIcEENS_9allocatorIcEEEEN8nlohmann16json_abi_v3_11_210basic_jsonIS1_NS_6vectorES7_bxydS5_NS9_14adl_serializerENSB_IhNS5_IhEEEEEENS_4lessIvEENS5_INS_4pairIKS7_SF_EEEEEEZNSF_6createISM_JRKSM_EEEPT_DpOT0_EUlPSM_E_ED2B7v160006Ev, symObjAddr: 0x1CD54, symBinAddr: 0x100025E7C, symSize: 0x30 }
  - { offsetInCU: 0x53ECF, offset: 0x53ECF, size: 0x8, addend: 0x0, symName: __ZNSt3__110unique_ptrINS_3mapINS_12basic_stringIcNS_11char_traitsIcEENS_9allocatorIcEEEEN8nlohmann16json_abi_v3_11_210basic_jsonIS1_NS_6vectorES7_bxydS5_NS9_14adl_serializerENSB_IhNS5_IhEEEEEENS_4lessIvEENS5_INS_4pairIKS7_SF_EEEEEEZNSF_6createISM_JRKSM_EEEPT_DpOT0_EUlPSM_E_E5resetB7v160006ESV_, symObjAddr: 0x1CD84, symBinAddr: 0x100025EAC, symSize: 0x80 }
  - { offsetInCU: 0x53F11, offset: 0x53F11, size: 0x8, addend: 0x0, symName: __ZNSt3__117__compressed_pairIPNS_3mapINS_12basic_stringIcNS_11char_traitsIcEENS_9allocatorIcEEEEN8nlohmann16json_abi_v3_11_210basic_jsonIS1_NS_6vectorES7_bxydS5_NS9_14adl_serializerENSB_IhNS5_IhEEEEEENS_4lessIvEENS5_INS_4pairIKS7_SF_EEEEEEZNSF_6createISM_JRKSM_EEEPT_DpOT0_EUlSN_E_E6secondB7v160006Ev, symObjAddr: 0x1CE04, symBinAddr: 0x100025F2C, symSize: 0x28 }
  - { offsetInCU: 0x53F3B, offset: 0x53F3B, size: 0x8, addend: 0x0, symName: __ZZN8nlohmann16json_abi_v3_11_210basic_jsonINSt3__13mapENS2_6vectorENS2_12basic_stringIcNS2_11char_traitsIcEENS2_9allocatorIcEEEEbxydS8_NS0_14adl_serializerENS4_IhNS8_IhEEEEE6createINS3_ISA_SE_NS2_4lessIvEENS8_INS2_4pairIKSA_SE_EEEEEEJRKSM_EEEPT_DpOT0_ENKUlPSM_E_clESU_, symObjAddr: 0x1CE2C, symBinAddr: 0x100025F54, symSize: 0x34 }
  - { offsetInCU: 0x53F73, offset: 0x53F73, size: 0x8, addend: 0x0, symName: __ZNSt3__122__compressed_pair_elemIZN8nlohmann16json_abi_v3_11_210basic_jsonINS_3mapENS_6vectorENS_12basic_stringIcNS_11char_traitsIcEENS_9allocatorIcEEEEbxydS9_NS2_14adl_serializerENS5_IhNS9_IhEEEEE6createINS4_ISB_SF_NS_4lessIvEENS9_INS_4pairIKSB_SF_EEEEEEJRKSN_EEEPT_DpOT0_EUlPSN_E_Li1ELb0EE5__getB7v160006Ev, symObjAddr: 0x1CE60, symBinAddr: 0x100025F88, symSize: 0x14 }
  - { offsetInCU: 0x53F98, offset: 0x53F98, size: 0x8, addend: 0x0, symName: __ZN8nlohmann16json_abi_v3_11_210basic_jsonINSt3__13mapENS2_6vectorENS2_12basic_stringIcNS2_11char_traitsIcEENS2_9allocatorIcEEEEbxydS8_NS0_14adl_serializerENS4_IhNS8_IhEEEEE10json_valueC2ERKNS4_ISE_NS8_ISE_EEEE, symObjAddr: 0x1CE74, symBinAddr: 0x100025F9C, symSize: 0x3C }
  - { offsetInCU: 0x53FD0, offset: 0x53FD0, size: 0x8, addend: 0x0, symName: __ZN8nlohmann16json_abi_v3_11_210basic_jsonINSt3__13mapENS2_6vectorENS2_12basic_stringIcNS2_11char_traitsIcEENS2_9allocatorIcEEEEbxydS8_NS0_14adl_serializerENS4_IhNS8_IhEEEEE6createINS4_ISE_NS8_ISE_EEEEJRKSH_EEEPT_DpOT0_, symObjAddr: 0x1CEB0, symBinAddr: 0x100025FD8, symSize: 0xF4 }
  - { offsetInCU: 0x540C3, offset: 0x540C3, size: 0x8, addend: 0x0, symName: __ZNSt3__110unique_ptrINS_6vectorIN8nlohmann16json_abi_v3_11_210basic_jsonINS_3mapES1_NS_12basic_stringIcNS_11char_traitsIcEENS_9allocatorIcEEEEbxydS9_NS3_14adl_serializerENS1_IhNS9_IhEEEEEENS9_ISF_EEEEZNSF_6createISH_JRKSH_EEEPT_DpOT0_EUlPSH_E_EC1B7v160006ILb1EvEESQ_NS_16__dependent_typeINS_27__unique_ptr_deleter_sfinaeISR_EEXT_EE15__lval_ref_typeE, symObjAddr: 0x1CFA4, symBinAddr: 0x1000260CC, symSize: 0x3C }
  - { offsetInCU: 0x54114, offset: 0x54114, size: 0x8, addend: 0x0, symName: __ZNSt3__116allocator_traitsINS_9allocatorINS_6vectorIN8nlohmann16json_abi_v3_11_210basic_jsonINS_3mapES2_NS_12basic_stringIcNS_11char_traitsIcEENS1_IcEEEEbxydS1_NS4_14adl_serializerENS2_IhNS1_IhEEEEEENS1_ISF_EEEEEEE9constructB7v160006ISH_JRKSH_EvEEvRSI_PT_DpOT0_, symObjAddr: 0x1CFE0, symBinAddr: 0x100026108, symSize: 0x34 }
  - { offsetInCU: 0x5416B, offset: 0x5416B, size: 0x8, addend: 0x0, symName: __ZNKSt3__110unique_ptrINS_6vectorIN8nlohmann16json_abi_v3_11_210basic_jsonINS_3mapES1_NS_12basic_stringIcNS_11char_traitsIcEENS_9allocatorIcEEEEbxydS9_NS3_14adl_serializerENS1_IhNS9_IhEEEEEENS9_ISF_EEEEZNSF_6createISH_JRKSH_EEEPT_DpOT0_EUlPSH_E_E3getB7v160006Ev, symObjAddr: 0x1D014, symBinAddr: 0x10002613C, symSize: 0x28 }
  - { offsetInCU: 0x5418F, offset: 0x5418F, size: 0x8, addend: 0x0, symName: __ZNSt3__110unique_ptrINS_6vectorIN8nlohmann16json_abi_v3_11_210basic_jsonINS_3mapES1_NS_12basic_stringIcNS_11char_traitsIcEENS_9allocatorIcEEEEbxydS9_NS3_14adl_serializerENS1_IhNS9_IhEEEEEENS9_ISF_EEEEZNSF_6createISH_JRKSH_EEEPT_DpOT0_EUlPSH_E_E7releaseB7v160006Ev, symObjAddr: 0x1D068, symBinAddr: 0x100026190, symSize: 0x44 }
  - { offsetInCU: 0x541C3, offset: 0x541C3, size: 0x8, addend: 0x0, symName: __ZNSt3__110unique_ptrINS_6vectorIN8nlohmann16json_abi_v3_11_210basic_jsonINS_3mapES1_NS_12basic_stringIcNS_11char_traitsIcEENS_9allocatorIcEEEEbxydS9_NS3_14adl_serializerENS1_IhNS9_IhEEEEEENS9_ISF_EEEEZNSF_6createISH_JRKSH_EEEPT_DpOT0_EUlPSH_E_ED1B7v160006Ev, symObjAddr: 0x1D0AC, symBinAddr: 0x1000261D4, symSize: 0x2C }
  - { offsetInCU: 0x541EC, offset: 0x541EC, size: 0x8, addend: 0x0, symName: __ZNSt3__110unique_ptrINS_6vectorIN8nlohmann16json_abi_v3_11_210basic_jsonINS_3mapES1_NS_12basic_stringIcNS_11char_traitsIcEENS_9allocatorIcEEEEbxydS9_NS3_14adl_serializerENS1_IhNS9_IhEEEEEENS9_ISF_EEEEZNSF_6createISH_JRKSH_EEEPT_DpOT0_EUlPSH_E_EC2B7v160006ILb1EvEESQ_NS_16__dependent_typeINS_27__unique_ptr_deleter_sfinaeISR_EEXT_EE15__lval_ref_typeE, symObjAddr: 0x1D0D8, symBinAddr: 0x100026200, symSize: 0x48 }
  - { offsetInCU: 0x5423D, offset: 0x5423D, size: 0x8, addend: 0x0, symName: __ZNSt3__117__compressed_pairIPNS_6vectorIN8nlohmann16json_abi_v3_11_210basic_jsonINS_3mapES1_NS_12basic_stringIcNS_11char_traitsIcEENS_9allocatorIcEEEEbxydS9_NS3_14adl_serializerENS1_IhNS9_IhEEEEEENS9_ISF_EEEEZNSF_6createISH_JRKSH_EEEPT_DpOT0_EUlSI_E_EC1B7v160006IRSI_RKSR_EEOSM_OT0_, symObjAddr: 0x1D120, symBinAddr: 0x100026248, symSize: 0x3C }
  - { offsetInCU: 0x54294, offset: 0x54294, size: 0x8, addend: 0x0, symName: __ZNSt3__117__compressed_pairIPNS_6vectorIN8nlohmann16json_abi_v3_11_210basic_jsonINS_3mapES1_NS_12basic_stringIcNS_11char_traitsIcEENS_9allocatorIcEEEEbxydS9_NS3_14adl_serializerENS1_IhNS9_IhEEEEEENS9_ISF_EEEEZNSF_6createISH_JRKSH_EEEPT_DpOT0_EUlSI_E_EC2B7v160006IRSI_RKSR_EEOSM_OT0_, symObjAddr: 0x1D15C, symBinAddr: 0x100026284, symSize: 0x48 }
  - { offsetInCU: 0x542EB, offset: 0x542EB, size: 0x8, addend: 0x0, symName: __ZNSt3__122__compressed_pair_elemIZN8nlohmann16json_abi_v3_11_210basic_jsonINS_3mapENS_6vectorENS_12basic_stringIcNS_11char_traitsIcEENS_9allocatorIcEEEEbxydS9_NS2_14adl_serializerENS5_IhNS9_IhEEEEE6createINS5_ISF_NS9_ISF_EEEEJRKSI_EEEPT_DpOT0_EUlPSI_E_Li1ELb0EEC2B7v160006IRKSR_vEEOSL_, symObjAddr: 0x1D1A4, symBinAddr: 0x1000262CC, symSize: 0x24 }
  - { offsetInCU: 0x5432C, offset: 0x5432C, size: 0x8, addend: 0x0, symName: __ZNSt3__19allocatorINS_6vectorIN8nlohmann16json_abi_v3_11_210basic_jsonINS_3mapES1_NS_12basic_stringIcNS_11char_traitsIcEENS0_IcEEEEbxydS0_NS3_14adl_serializerENS1_IhNS0_IhEEEEEENS0_ISE_EEEEE9constructB7v160006ISG_JRKSG_EEEvPT_DpOT0_, symObjAddr: 0x1D1C8, symBinAddr: 0x1000262F0, symSize: 0x30 }
  - { offsetInCU: 0x54381, offset: 0x54381, size: 0x8, addend: 0x0, symName: __ZNSt3__16vectorIN8nlohmann16json_abi_v3_11_210basic_jsonINS_3mapES0_NS_12basic_stringIcNS_11char_traitsIcEENS_9allocatorIcEEEEbxydS8_NS2_14adl_serializerENS0_IhNS8_IhEEEEEENS8_ISE_EEEC1ERKSG_, symObjAddr: 0x1D1F8, symBinAddr: 0x100026320, symSize: 0x34 }
  - { offsetInCU: 0x543BB, offset: 0x543BB, size: 0x8, addend: 0x0, symName: __ZNSt3__16vectorIN8nlohmann16json_abi_v3_11_210basic_jsonINS_3mapES0_NS_12basic_stringIcNS_11char_traitsIcEENS_9allocatorIcEEEEbxydS8_NS2_14adl_serializerENS0_IhNS8_IhEEEEEENS8_ISE_EEEC2ERKSG_, symObjAddr: 0x1D22C, symBinAddr: 0x100026354, symSize: 0x110 }
  - { offsetInCU: 0x5441A, offset: 0x5441A, size: 0x8, addend: 0x0, symName: __ZNSt3__116allocator_traitsINS_9allocatorIN8nlohmann16json_abi_v3_11_210basic_jsonINS_3mapENS_6vectorENS_12basic_stringIcNS_11char_traitsIcEENS1_IcEEEEbxydS1_NS3_14adl_serializerENS6_IhNS1_IhEEEEEEEEE37select_on_container_copy_constructionB7v160006ISG_vvEESG_RKSG_, symObjAddr: 0x1D33C, symBinAddr: 0x100026464, symSize: 0x10 }
  - { offsetInCU: 0x54451, offset: 0x54451, size: 0x8, addend: 0x0, symName: __ZNSt3__117__compressed_pairIPN8nlohmann16json_abi_v3_11_210basic_jsonINS_3mapENS_6vectorENS_12basic_stringIcNS_11char_traitsIcEENS_9allocatorIcEEEEbxydS9_NS2_14adl_serializerENS5_IhNS9_IhEEEEEENS9_ISF_EEEC1B7v160006IDnSH_EEOT_OT0_, symObjAddr: 0x1D34C, symBinAddr: 0x100026474, symSize: 0x3C }
  - { offsetInCU: 0x544A8, offset: 0x544A8, size: 0x8, addend: 0x0, symName: __ZNSt3__16vectorIN8nlohmann16json_abi_v3_11_210basic_jsonINS_3mapES0_NS_12basic_stringIcNS_11char_traitsIcEENS_9allocatorIcEEEEbxydS8_NS2_14adl_serializerENS0_IhNS8_IhEEEEEENS8_ISE_EEE16__destroy_vectorC1ERSG_, symObjAddr: 0x1D3C8, symBinAddr: 0x1000264F0, symSize: 0x34 }
  - { offsetInCU: 0x544DF, offset: 0x544DF, size: 0x8, addend: 0x0, symName: __ZNSt3__16vectorIN8nlohmann16json_abi_v3_11_210basic_jsonINS_3mapES0_NS_12basic_stringIcNS_11char_traitsIcEENS_9allocatorIcEEEEbxydS8_NS2_14adl_serializerENS0_IhNS8_IhEEEEEENS8_ISE_EEE11__vallocateB7v160006Em, symObjAddr: 0x1D3FC, symBinAddr: 0x100026524, symSize: 0xAC }
  - { offsetInCU: 0x54522, offset: 0x54522, size: 0x8, addend: 0x0, symName: __ZNSt3__16vectorIN8nlohmann16json_abi_v3_11_210basic_jsonINS_3mapES0_NS_12basic_stringIcNS_11char_traitsIcEENS_9allocatorIcEEEEbxydS8_NS2_14adl_serializerENS0_IhNS8_IhEEEEEENS8_ISE_EEE18__construct_at_endIPSE_Li0EEEvT_SJ_m, symObjAddr: 0x1D4A8, symBinAddr: 0x1000265D0, symSize: 0x8C }
  - { offsetInCU: 0x54594, offset: 0x54594, size: 0x8, addend: 0x0, symName: __ZNSt3__128__exception_guard_exceptionsINS_6vectorIN8nlohmann16json_abi_v3_11_210basic_jsonINS_3mapES1_NS_12basic_stringIcNS_11char_traitsIcEENS_9allocatorIcEEEEbxydS9_NS3_14adl_serializerENS1_IhNS9_IhEEEEEENS9_ISF_EEE16__destroy_vectorEE10__completeB7v160006Ev, symObjAddr: 0x1D534, symBinAddr: 0x10002665C, symSize: 0x1C }
  - { offsetInCU: 0x545B9, offset: 0x545B9, size: 0x8, addend: 0x0, symName: __ZNSt3__128__exception_guard_exceptionsINS_6vectorIN8nlohmann16json_abi_v3_11_210basic_jsonINS_3mapES1_NS_12basic_stringIcNS_11char_traitsIcEENS_9allocatorIcEEEEbxydS9_NS3_14adl_serializerENS1_IhNS9_IhEEEEEENS9_ISF_EEE16__destroy_vectorEED1B7v160006Ev, symObjAddr: 0x1D550, symBinAddr: 0x100026678, symSize: 0x2C }
  - { offsetInCU: 0x545E2, offset: 0x545E2, size: 0x8, addend: 0x0, symName: __ZNSt3__117__compressed_pairIPN8nlohmann16json_abi_v3_11_210basic_jsonINS_3mapENS_6vectorENS_12basic_stringIcNS_11char_traitsIcEENS_9allocatorIcEEEEbxydS9_NS2_14adl_serializerENS5_IhNS9_IhEEEEEENS9_ISF_EEEC2B7v160006IDnSH_EEOT_OT0_, symObjAddr: 0x1D57C, symBinAddr: 0x1000266A4, symSize: 0x44 }
  - { offsetInCU: 0x54639, offset: 0x54639, size: 0x8, addend: 0x0, symName: __ZNSt3__122__compressed_pair_elemINS_9allocatorIN8nlohmann16json_abi_v3_11_210basic_jsonINS_3mapENS_6vectorENS_12basic_stringIcNS_11char_traitsIcEENS1_IcEEEEbxydS1_NS3_14adl_serializerENS6_IhNS1_IhEEEEEEEELi1ELb1EEC2B7v160006ISG_vEEOT_, symObjAddr: 0x1D5C0, symBinAddr: 0x1000266E8, symSize: 0x18 }
  - { offsetInCU: 0x5467B, offset: 0x5467B, size: 0x8, addend: 0x0, symName: __ZNSt3__128__exception_guard_exceptionsINS_6vectorIN8nlohmann16json_abi_v3_11_210basic_jsonINS_3mapES1_NS_12basic_stringIcNS_11char_traitsIcEENS_9allocatorIcEEEEbxydS9_NS3_14adl_serializerENS1_IhNS9_IhEEEEEENS9_ISF_EEE16__destroy_vectorEEC1B7v160006ESI_, symObjAddr: 0x1D5D8, symBinAddr: 0x100026700, symSize: 0x34 }
  - { offsetInCU: 0x546B2, offset: 0x546B2, size: 0x8, addend: 0x0, symName: __ZNSt3__128__exception_guard_exceptionsINS_6vectorIN8nlohmann16json_abi_v3_11_210basic_jsonINS_3mapES1_NS_12basic_stringIcNS_11char_traitsIcEENS_9allocatorIcEEEEbxydS9_NS3_14adl_serializerENS1_IhNS9_IhEEEEEENS9_ISF_EEE16__destroy_vectorEEC2B7v160006ESI_, symObjAddr: 0x1D60C, symBinAddr: 0x100026734, symSize: 0x24 }
  - { offsetInCU: 0x546E9, offset: 0x546E9, size: 0x8, addend: 0x0, symName: __ZNSt3__16vectorIN8nlohmann16json_abi_v3_11_210basic_jsonINS_3mapES0_NS_12basic_stringIcNS_11char_traitsIcEENS_9allocatorIcEEEEbxydS8_NS2_14adl_serializerENS0_IhNS8_IhEEEEEENS8_ISE_EEE16__destroy_vectorC2ERSG_, symObjAddr: 0x1D630, symBinAddr: 0x100026758, symSize: 0x20 }
  - { offsetInCU: 0x54721, offset: 0x54721, size: 0x8, addend: 0x0, symName: __ZNSt3__129_AllocatorDestroyRangeReverseINS_9allocatorIN8nlohmann16json_abi_v3_11_210basic_jsonINS_3mapENS_6vectorENS_12basic_stringIcNS_11char_traitsIcEENS1_IcEEEEbxydS1_NS3_14adl_serializerENS6_IhNS1_IhEEEEEEEEPSF_EC1B7v160006ERSG_RSH_SK_, symObjAddr: 0x1D790, symBinAddr: 0x1000268B8, symSize: 0x44 }
  - { offsetInCU: 0x54777, offset: 0x54777, size: 0x8, addend: 0x0, symName: __ZNSt3__116allocator_traitsINS_9allocatorIN8nlohmann16json_abi_v3_11_210basic_jsonINS_3mapENS_6vectorENS_12basic_stringIcNS_11char_traitsIcEENS1_IcEEEEbxydS1_NS3_14adl_serializerENS6_IhNS1_IhEEEEEEEEE9constructB7v160006ISF_JRSF_EvEEvRSG_PT_DpOT0_, symObjAddr: 0x1D7D4, symBinAddr: 0x1000268FC, symSize: 0x34 }
  - { offsetInCU: 0x547CF, offset: 0x547CF, size: 0x8, addend: 0x0, symName: __ZNSt3__128__exception_guard_exceptionsINS_29_AllocatorDestroyRangeReverseINS_9allocatorIN8nlohmann16json_abi_v3_11_210basic_jsonINS_3mapENS_6vectorENS_12basic_stringIcNS_11char_traitsIcEENS2_IcEEEEbxydS2_NS4_14adl_serializerENS7_IhNS2_IhEEEEEEEEPSG_EEE10__completeB7v160006Ev, symObjAddr: 0x1D808, symBinAddr: 0x100026930, symSize: 0x1C }
  - { offsetInCU: 0x547F4, offset: 0x547F4, size: 0x8, addend: 0x0, symName: __ZNSt3__128__exception_guard_exceptionsINS_29_AllocatorDestroyRangeReverseINS_9allocatorIN8nlohmann16json_abi_v3_11_210basic_jsonINS_3mapENS_6vectorENS_12basic_stringIcNS_11char_traitsIcEENS2_IcEEEEbxydS2_NS4_14adl_serializerENS7_IhNS2_IhEEEEEEEEPSG_EEED1B7v160006Ev, symObjAddr: 0x1D824, symBinAddr: 0x10002694C, symSize: 0x2C }
  - { offsetInCU: 0x5481D, offset: 0x5481D, size: 0x8, addend: 0x0, symName: __ZNSt3__128__exception_guard_exceptionsINS_29_AllocatorDestroyRangeReverseINS_9allocatorIN8nlohmann16json_abi_v3_11_210basic_jsonINS_3mapENS_6vectorENS_12basic_stringIcNS_11char_traitsIcEENS2_IcEEEEbxydS2_NS4_14adl_serializerENS7_IhNS2_IhEEEEEEEEPSG_EEEC1B7v160006ESJ_, symObjAddr: 0x1D850, symBinAddr: 0x100026978, symSize: 0x34 }
  - { offsetInCU: 0x54855, offset: 0x54855, size: 0x8, addend: 0x0, symName: __ZNSt3__128__exception_guard_exceptionsINS_29_AllocatorDestroyRangeReverseINS_9allocatorIN8nlohmann16json_abi_v3_11_210basic_jsonINS_3mapENS_6vectorENS_12basic_stringIcNS_11char_traitsIcEENS2_IcEEEEbxydS2_NS4_14adl_serializerENS7_IhNS2_IhEEEEEEEEPSG_EEEC2B7v160006ESJ_, symObjAddr: 0x1D884, symBinAddr: 0x1000269AC, symSize: 0x30 }
  - { offsetInCU: 0x5488D, offset: 0x5488D, size: 0x8, addend: 0x0, symName: __ZNSt3__129_AllocatorDestroyRangeReverseINS_9allocatorIN8nlohmann16json_abi_v3_11_210basic_jsonINS_3mapENS_6vectorENS_12basic_stringIcNS_11char_traitsIcEENS1_IcEEEEbxydS1_NS3_14adl_serializerENS6_IhNS1_IhEEEEEEEEPSF_EC2B7v160006ERSG_RSH_SK_, symObjAddr: 0x1D8B4, symBinAddr: 0x1000269DC, symSize: 0x38 }
  - { offsetInCU: 0x548E2, offset: 0x548E2, size: 0x8, addend: 0x0, symName: __ZNSt3__19allocatorIN8nlohmann16json_abi_v3_11_210basic_jsonINS_3mapENS_6vectorENS_12basic_stringIcNS_11char_traitsIcEENS0_IcEEEEbxydS0_NS2_14adl_serializerENS5_IhNS0_IhEEEEEEE9constructB7v160006ISE_JRSE_EEEvPT_DpOT0_, symObjAddr: 0x1D8EC, symBinAddr: 0x100026A14, symSize: 0x30 }
  - { offsetInCU: 0x54937, offset: 0x54937, size: 0x8, addend: 0x0, symName: __ZNSt3__128__exception_guard_exceptionsINS_29_AllocatorDestroyRangeReverseINS_9allocatorIN8nlohmann16json_abi_v3_11_210basic_jsonINS_3mapENS_6vectorENS_12basic_stringIcNS_11char_traitsIcEENS2_IcEEEEbxydS2_NS4_14adl_serializerENS7_IhNS2_IhEEEEEEEEPSG_EEED2B7v160006Ev, symObjAddr: 0x1D91C, symBinAddr: 0x100026A44, symSize: 0x50 }
  - { offsetInCU: 0x5495F, offset: 0x5495F, size: 0x8, addend: 0x0, symName: __ZNKSt3__129_AllocatorDestroyRangeReverseINS_9allocatorIN8nlohmann16json_abi_v3_11_210basic_jsonINS_3mapENS_6vectorENS_12basic_stringIcNS_11char_traitsIcEENS1_IcEEEEbxydS1_NS3_14adl_serializerENS6_IhNS1_IhEEEEEEEEPSF_EclB7v160006Ev, symObjAddr: 0x1D96C, symBinAddr: 0x100026A94, symSize: 0x68 }
  - { offsetInCU: 0x54984, offset: 0x54984, size: 0x8, addend: 0x0, symName: __ZNSt3__128__exception_guard_exceptionsINS_6vectorIN8nlohmann16json_abi_v3_11_210basic_jsonINS_3mapES1_NS_12basic_stringIcNS_11char_traitsIcEENS_9allocatorIcEEEEbxydS9_NS3_14adl_serializerENS1_IhNS9_IhEEEEEENS9_ISF_EEE16__destroy_vectorEED2B7v160006Ev, symObjAddr: 0x1DA44, symBinAddr: 0x100026B6C, symSize: 0x50 }
  - { offsetInCU: 0x549AC, offset: 0x549AC, size: 0x8, addend: 0x0, symName: __ZNSt3__16vectorIN8nlohmann16json_abi_v3_11_210basic_jsonINS_3mapES0_NS_12basic_stringIcNS_11char_traitsIcEENS_9allocatorIcEEEEbxydS8_NS2_14adl_serializerENS0_IhNS8_IhEEEEEENS8_ISE_EEE16__destroy_vectorclB7v160006Ev, symObjAddr: 0x1DA94, symBinAddr: 0x100026BBC, symSize: 0x9C }
  - { offsetInCU: 0x549D0, offset: 0x549D0, size: 0x8, addend: 0x0, symName: __ZNSt3__16vectorIN8nlohmann16json_abi_v3_11_210basic_jsonINS_3mapES0_NS_12basic_stringIcNS_11char_traitsIcEENS_9allocatorIcEEEEbxydS8_NS2_14adl_serializerENS0_IhNS8_IhEEEEEENS8_ISE_EEE7__clearB7v160006Ev, symObjAddr: 0x1DB40, symBinAddr: 0x100026C68, symSize: 0x28 }
  - { offsetInCU: 0x549F4, offset: 0x549F4, size: 0x8, addend: 0x0, symName: __ZNSt3__16vectorIN8nlohmann16json_abi_v3_11_210basic_jsonINS_3mapES0_NS_12basic_stringIcNS_11char_traitsIcEENS_9allocatorIcEEEEbxydS8_NS2_14adl_serializerENS0_IhNS8_IhEEEEEENS8_ISE_EEE22__base_destruct_at_endB7v160006EPSE_, symObjAddr: 0x1DB68, symBinAddr: 0x100026C90, symSize: 0x8C }
  - { offsetInCU: 0x54A36, offset: 0x54A36, size: 0x8, addend: 0x0, symName: __ZNKSt3__117__compressed_pairIPNS_6vectorIN8nlohmann16json_abi_v3_11_210basic_jsonINS_3mapES1_NS_12basic_stringIcNS_11char_traitsIcEENS_9allocatorIcEEEEbxydS9_NS3_14adl_serializerENS1_IhNS9_IhEEEEEENS9_ISF_EEEEZNSF_6createISH_JRKSH_EEEPT_DpOT0_EUlSI_E_E5firstB7v160006Ev, symObjAddr: 0x1DBF4, symBinAddr: 0x100026D1C, symSize: 0x24 }
  - { offsetInCU: 0x54A5A, offset: 0x54A5A, size: 0x8, addend: 0x0, symName: __ZNKSt3__110unique_ptrINS_6vectorIN8nlohmann16json_abi_v3_11_210basic_jsonINS_3mapES1_NS_12basic_stringIcNS_11char_traitsIcEENS_9allocatorIcEEEEbxydS9_NS3_14adl_serializerENS1_IhNS9_IhEEEEEENS9_ISF_EEEEZNSF_6createISH_JRKSH_EEEPT_DpOT0_EUlPSH_E_EcvbB7v160006Ev, symObjAddr: 0x1DC18, symBinAddr: 0x100026D40, symSize: 0x34 }
  - { offsetInCU: 0x54A7E, offset: 0x54A7E, size: 0x8, addend: 0x0, symName: __ZNSt3__117__compressed_pairIPNS_6vectorIN8nlohmann16json_abi_v3_11_210basic_jsonINS_3mapES1_NS_12basic_stringIcNS_11char_traitsIcEENS_9allocatorIcEEEEbxydS9_NS3_14adl_serializerENS1_IhNS9_IhEEEEEENS9_ISF_EEEEZNSF_6createISH_JRKSH_EEEPT_DpOT0_EUlSI_E_E5firstB7v160006Ev, symObjAddr: 0x1DC4C, symBinAddr: 0x100026D74, symSize: 0x24 }
  - { offsetInCU: 0x54AA3, offset: 0x54AA3, size: 0x8, addend: 0x0, symName: __ZNSt3__110unique_ptrINS_6vectorIN8nlohmann16json_abi_v3_11_210basic_jsonINS_3mapES1_NS_12basic_stringIcNS_11char_traitsIcEENS_9allocatorIcEEEEbxydS9_NS3_14adl_serializerENS1_IhNS9_IhEEEEEENS9_ISF_EEEEZNSF_6createISH_JRKSH_EEEPT_DpOT0_EUlPSH_E_ED2B7v160006Ev, symObjAddr: 0x1DC70, symBinAddr: 0x100026D98, symSize: 0x30 }
  - { offsetInCU: 0x54ACB, offset: 0x54ACB, size: 0x8, addend: 0x0, symName: __ZNSt3__110unique_ptrINS_6vectorIN8nlohmann16json_abi_v3_11_210basic_jsonINS_3mapES1_NS_12basic_stringIcNS_11char_traitsIcEENS_9allocatorIcEEEEbxydS9_NS3_14adl_serializerENS1_IhNS9_IhEEEEEENS9_ISF_EEEEZNSF_6createISH_JRKSH_EEEPT_DpOT0_EUlPSH_E_E5resetB7v160006ESQ_, symObjAddr: 0x1DCA0, symBinAddr: 0x100026DC8, symSize: 0x80 }
  - { offsetInCU: 0x54B0D, offset: 0x54B0D, size: 0x8, addend: 0x0, symName: __ZNSt3__117__compressed_pairIPNS_6vectorIN8nlohmann16json_abi_v3_11_210basic_jsonINS_3mapES1_NS_12basic_stringIcNS_11char_traitsIcEENS_9allocatorIcEEEEbxydS9_NS3_14adl_serializerENS1_IhNS9_IhEEEEEENS9_ISF_EEEEZNSF_6createISH_JRKSH_EEEPT_DpOT0_EUlSI_E_E6secondB7v160006Ev, symObjAddr: 0x1DD20, symBinAddr: 0x100026E48, symSize: 0x28 }
  - { offsetInCU: 0x54B37, offset: 0x54B37, size: 0x8, addend: 0x0, symName: __ZZN8nlohmann16json_abi_v3_11_210basic_jsonINSt3__13mapENS2_6vectorENS2_12basic_stringIcNS2_11char_traitsIcEENS2_9allocatorIcEEEEbxydS8_NS0_14adl_serializerENS4_IhNS8_IhEEEEE6createINS4_ISE_NS8_ISE_EEEEJRKSH_EEEPT_DpOT0_ENKUlPSH_E_clESP_, symObjAddr: 0x1DD48, symBinAddr: 0x100026E70, symSize: 0x34 }
  - { offsetInCU: 0x54B6F, offset: 0x54B6F, size: 0x8, addend: 0x0, symName: __ZNSt3__122__compressed_pair_elemIZN8nlohmann16json_abi_v3_11_210basic_jsonINS_3mapENS_6vectorENS_12basic_stringIcNS_11char_traitsIcEENS_9allocatorIcEEEEbxydS9_NS2_14adl_serializerENS5_IhNS9_IhEEEEE6createINS5_ISF_NS9_ISF_EEEEJRKSI_EEEPT_DpOT0_EUlPSI_E_Li1ELb0EE5__getB7v160006Ev, symObjAddr: 0x1DD7C, symBinAddr: 0x100026EA4, symSize: 0x14 }
  - { offsetInCU: 0x54B94, offset: 0x54B94, size: 0x8, addend: 0x0, symName: __ZN8nlohmann16json_abi_v3_11_210basic_jsonINSt3__13mapENS2_6vectorENS2_12basic_stringIcNS2_11char_traitsIcEENS2_9allocatorIcEEEEbxydS8_NS0_14adl_serializerENS4_IhNS8_IhEEEEE10json_valueC2ERKSA_, symObjAddr: 0x1DD90, symBinAddr: 0x100026EB8, symSize: 0x3C }
  - { offsetInCU: 0x54BCC, offset: 0x54BCC, size: 0x8, addend: 0x0, symName: __ZN8nlohmann16json_abi_v3_11_210basic_jsonINSt3__13mapENS2_6vectorENS2_12basic_stringIcNS2_11char_traitsIcEENS2_9allocatorIcEEEEbxydS8_NS0_14adl_serializerENS4_IhNS8_IhEEEEE6createISA_JRKSA_EEEPT_DpOT0_, symObjAddr: 0x1DDCC, symBinAddr: 0x100026EF4, symSize: 0xF4 }
  - { offsetInCU: 0x54CBF, offset: 0x54CBF, size: 0x8, addend: 0x0, symName: __ZNSt3__110unique_ptrINS_12basic_stringIcNS_11char_traitsIcEENS_9allocatorIcEEEEZN8nlohmann16json_abi_v3_11_210basic_jsonINS_3mapENS_6vectorES6_bxydS4_NS8_14adl_serializerENSB_IhNS4_IhEEEEE6createIS6_JRKS6_EEEPT_DpOT0_EUlPS6_E_EC1B7v160006ILb1EvEESO_NS_16__dependent_typeINS_27__unique_ptr_deleter_sfinaeISP_EEXT_EE15__lval_ref_typeE, symObjAddr: 0x1DEC0, symBinAddr: 0x100026FE8, symSize: 0x3C }
  - { offsetInCU: 0x54D10, offset: 0x54D10, size: 0x8, addend: 0x0, symName: __ZNSt3__116allocator_traitsINS_9allocatorINS_12basic_stringIcNS_11char_traitsIcEENS1_IcEEEEEEE9constructB7v160006IS6_JRKS6_EvEEvRS7_PT_DpOT0_, symObjAddr: 0x1DEFC, symBinAddr: 0x100027024, symSize: 0x34 }
  - { offsetInCU: 0x54D67, offset: 0x54D67, size: 0x8, addend: 0x0, symName: __ZNKSt3__110unique_ptrINS_12basic_stringIcNS_11char_traitsIcEENS_9allocatorIcEEEEZN8nlohmann16json_abi_v3_11_210basic_jsonINS_3mapENS_6vectorES6_bxydS4_NS8_14adl_serializerENSB_IhNS4_IhEEEEE6createIS6_JRKS6_EEEPT_DpOT0_EUlPS6_E_E3getB7v160006Ev, symObjAddr: 0x1DF30, symBinAddr: 0x100027058, symSize: 0x28 }
  - { offsetInCU: 0x54D8B, offset: 0x54D8B, size: 0x8, addend: 0x0, symName: __ZNSt3__110unique_ptrINS_12basic_stringIcNS_11char_traitsIcEENS_9allocatorIcEEEEZN8nlohmann16json_abi_v3_11_210basic_jsonINS_3mapENS_6vectorES6_bxydS4_NS8_14adl_serializerENSB_IhNS4_IhEEEEE6createIS6_JRKS6_EEEPT_DpOT0_EUlPS6_E_E7releaseB7v160006Ev, symObjAddr: 0x1DF84, symBinAddr: 0x1000270AC, symSize: 0x44 }
  - { offsetInCU: 0x54DBF, offset: 0x54DBF, size: 0x8, addend: 0x0, symName: __ZNSt3__110unique_ptrINS_12basic_stringIcNS_11char_traitsIcEENS_9allocatorIcEEEEZN8nlohmann16json_abi_v3_11_210basic_jsonINS_3mapENS_6vectorES6_bxydS4_NS8_14adl_serializerENSB_IhNS4_IhEEEEE6createIS6_JRKS6_EEEPT_DpOT0_EUlPS6_E_ED1B7v160006Ev, symObjAddr: 0x1DFC8, symBinAddr: 0x1000270F0, symSize: 0x2C }
  - { offsetInCU: 0x54DE8, offset: 0x54DE8, size: 0x8, addend: 0x0, symName: __ZNSt3__110unique_ptrINS_12basic_stringIcNS_11char_traitsIcEENS_9allocatorIcEEEEZN8nlohmann16json_abi_v3_11_210basic_jsonINS_3mapENS_6vectorES6_bxydS4_NS8_14adl_serializerENSB_IhNS4_IhEEEEE6createIS6_JRKS6_EEEPT_DpOT0_EUlPS6_E_EC2B7v160006ILb1EvEESO_NS_16__dependent_typeINS_27__unique_ptr_deleter_sfinaeISP_EEXT_EE15__lval_ref_typeE, symObjAddr: 0x1DFF4, symBinAddr: 0x10002711C, symSize: 0x48 }
  - { offsetInCU: 0x54E3E, offset: 0x54E3E, size: 0x8, addend: 0x0, symName: __ZNSt3__117__compressed_pairIPNS_12basic_stringIcNS_11char_traitsIcEENS_9allocatorIcEEEEZN8nlohmann16json_abi_v3_11_210basic_jsonINS_3mapENS_6vectorES6_bxydS4_NS9_14adl_serializerENSC_IhNS4_IhEEEEE6createIS6_JRKS6_EEEPT_DpOT0_EUlS7_E_EC1B7v160006IRS7_RKSP_EEOSK_OT0_, symObjAddr: 0x1E03C, symBinAddr: 0x100027164, symSize: 0x3C }
  - { offsetInCU: 0x54E95, offset: 0x54E95, size: 0x8, addend: 0x0, symName: __ZNSt3__117__compressed_pairIPNS_12basic_stringIcNS_11char_traitsIcEENS_9allocatorIcEEEEZN8nlohmann16json_abi_v3_11_210basic_jsonINS_3mapENS_6vectorES6_bxydS4_NS9_14adl_serializerENSC_IhNS4_IhEEEEE6createIS6_JRKS6_EEEPT_DpOT0_EUlS7_E_EC2B7v160006IRS7_RKSP_EEOSK_OT0_, symObjAddr: 0x1E078, symBinAddr: 0x1000271A0, symSize: 0x48 }
  - { offsetInCU: 0x54EEC, offset: 0x54EEC, size: 0x8, addend: 0x0, symName: __ZNSt3__122__compressed_pair_elemIZN8nlohmann16json_abi_v3_11_210basic_jsonINS_3mapENS_6vectorENS_12basic_stringIcNS_11char_traitsIcEENS_9allocatorIcEEEEbxydS9_NS2_14adl_serializerENS5_IhNS9_IhEEEEE6createISB_JRKSB_EEEPT_DpOT0_EUlPSB_E_Li1ELb0EEC2B7v160006IRKSP_vEEOSJ_, symObjAddr: 0x1E0C0, symBinAddr: 0x1000271E8, symSize: 0x24 }
  - { offsetInCU: 0x54F2D, offset: 0x54F2D, size: 0x8, addend: 0x0, symName: __ZNSt3__19allocatorINS_12basic_stringIcNS_11char_traitsIcEENS0_IcEEEEE9constructB7v160006IS5_JRKS5_EEEvPT_DpOT0_, symObjAddr: 0x1E0E4, symBinAddr: 0x10002720C, symSize: 0x30 }
  - { offsetInCU: 0x54F81, offset: 0x54F81, size: 0x8, addend: 0x0, symName: __ZNKSt3__117__compressed_pairIPNS_12basic_stringIcNS_11char_traitsIcEENS_9allocatorIcEEEEZN8nlohmann16json_abi_v3_11_210basic_jsonINS_3mapENS_6vectorES6_bxydS4_NS9_14adl_serializerENSC_IhNS4_IhEEEEE6createIS6_JRKS6_EEEPT_DpOT0_EUlS7_E_E5firstB7v160006Ev, symObjAddr: 0x1E114, symBinAddr: 0x10002723C, symSize: 0x24 }
  - { offsetInCU: 0x54FA5, offset: 0x54FA5, size: 0x8, addend: 0x0, symName: __ZNKSt3__110unique_ptrINS_12basic_stringIcNS_11char_traitsIcEENS_9allocatorIcEEEEZN8nlohmann16json_abi_v3_11_210basic_jsonINS_3mapENS_6vectorES6_bxydS4_NS8_14adl_serializerENSB_IhNS4_IhEEEEE6createIS6_JRKS6_EEEPT_DpOT0_EUlPS6_E_EcvbB7v160006Ev, symObjAddr: 0x1E138, symBinAddr: 0x100027260, symSize: 0x34 }
  - { offsetInCU: 0x54FC9, offset: 0x54FC9, size: 0x8, addend: 0x0, symName: __ZNSt3__117__compressed_pairIPNS_12basic_stringIcNS_11char_traitsIcEENS_9allocatorIcEEEEZN8nlohmann16json_abi_v3_11_210basic_jsonINS_3mapENS_6vectorES6_bxydS4_NS9_14adl_serializerENSC_IhNS4_IhEEEEE6createIS6_JRKS6_EEEPT_DpOT0_EUlS7_E_E5firstB7v160006Ev, symObjAddr: 0x1E16C, symBinAddr: 0x100027294, symSize: 0x24 }
  - { offsetInCU: 0x54FEE, offset: 0x54FEE, size: 0x8, addend: 0x0, symName: __ZNSt3__110unique_ptrINS_12basic_stringIcNS_11char_traitsIcEENS_9allocatorIcEEEEZN8nlohmann16json_abi_v3_11_210basic_jsonINS_3mapENS_6vectorES6_bxydS4_NS8_14adl_serializerENSB_IhNS4_IhEEEEE6createIS6_JRKS6_EEEPT_DpOT0_EUlPS6_E_ED2B7v160006Ev, symObjAddr: 0x1E190, symBinAddr: 0x1000272B8, symSize: 0x30 }
  - { offsetInCU: 0x55016, offset: 0x55016, size: 0x8, addend: 0x0, symName: __ZNSt3__110unique_ptrINS_12basic_stringIcNS_11char_traitsIcEENS_9allocatorIcEEEEZN8nlohmann16json_abi_v3_11_210basic_jsonINS_3mapENS_6vectorES6_bxydS4_NS8_14adl_serializerENSB_IhNS4_IhEEEEE6createIS6_JRKS6_EEEPT_DpOT0_EUlPS6_E_E5resetB7v160006ESO_, symObjAddr: 0x1E1C0, symBinAddr: 0x1000272E8, symSize: 0x80 }
  - { offsetInCU: 0x55058, offset: 0x55058, size: 0x8, addend: 0x0, symName: __ZNSt3__117__compressed_pairIPNS_12basic_stringIcNS_11char_traitsIcEENS_9allocatorIcEEEEZN8nlohmann16json_abi_v3_11_210basic_jsonINS_3mapENS_6vectorES6_bxydS4_NS9_14adl_serializerENSC_IhNS4_IhEEEEE6createIS6_JRKS6_EEEPT_DpOT0_EUlS7_E_E6secondB7v160006Ev, symObjAddr: 0x1E240, symBinAddr: 0x100027368, symSize: 0x28 }
  - { offsetInCU: 0x55082, offset: 0x55082, size: 0x8, addend: 0x0, symName: __ZZN8nlohmann16json_abi_v3_11_210basic_jsonINSt3__13mapENS2_6vectorENS2_12basic_stringIcNS2_11char_traitsIcEENS2_9allocatorIcEEEEbxydS8_NS0_14adl_serializerENS4_IhNS8_IhEEEEE6createISA_JRKSA_EEEPT_DpOT0_ENKUlPSA_E_clESN_, symObjAddr: 0x1E268, symBinAddr: 0x100027390, symSize: 0x34 }
  - { offsetInCU: 0x550BA, offset: 0x550BA, size: 0x8, addend: 0x0, symName: __ZNSt3__122__compressed_pair_elemIZN8nlohmann16json_abi_v3_11_210basic_jsonINS_3mapENS_6vectorENS_12basic_stringIcNS_11char_traitsIcEENS_9allocatorIcEEEEbxydS9_NS2_14adl_serializerENS5_IhNS9_IhEEEEE6createISB_JRKSB_EEEPT_DpOT0_EUlPSB_E_Li1ELb0EE5__getB7v160006Ev, symObjAddr: 0x1E29C, symBinAddr: 0x1000273C4, symSize: 0x14 }
  - { offsetInCU: 0x550DF, offset: 0x550DF, size: 0x8, addend: 0x0, symName: __ZN8nlohmann16json_abi_v3_11_210basic_jsonINSt3__13mapENS2_6vectorENS2_12basic_stringIcNS2_11char_traitsIcEENS2_9allocatorIcEEEEbxydS8_NS0_14adl_serializerENS4_IhNS8_IhEEEEE10json_valueC2Eb, symObjAddr: 0x1E2B0, symBinAddr: 0x1000273D8, symSize: 0x2C }
  - { offsetInCU: 0x55117, offset: 0x55117, size: 0x8, addend: 0x0, symName: __ZN8nlohmann16json_abi_v3_11_210basic_jsonINSt3__13mapENS2_6vectorENS2_12basic_stringIcNS2_11char_traitsIcEENS2_9allocatorIcEEEEbxydS8_NS0_14adl_serializerENS4_IhNS8_IhEEEEE10json_valueC2Ex, symObjAddr: 0x1E2DC, symBinAddr: 0x100027404, symSize: 0x20 }
  - { offsetInCU: 0x5514F, offset: 0x5514F, size: 0x8, addend: 0x0, symName: __ZN8nlohmann16json_abi_v3_11_210basic_jsonINSt3__13mapENS2_6vectorENS2_12basic_stringIcNS2_11char_traitsIcEENS2_9allocatorIcEEEEbxydS8_NS0_14adl_serializerENS4_IhNS8_IhEEEEE10json_valueC2Ey, symObjAddr: 0x1E2FC, symBinAddr: 0x100027424, symSize: 0x20 }
  - { offsetInCU: 0x55187, offset: 0x55187, size: 0x8, addend: 0x0, symName: __ZN8nlohmann16json_abi_v3_11_210basic_jsonINSt3__13mapENS2_6vectorENS2_12basic_stringIcNS2_11char_traitsIcEENS2_9allocatorIcEEEEbxydS8_NS0_14adl_serializerENS4_IhNS8_IhEEEEE10json_valueC2Ed, symObjAddr: 0x1E31C, symBinAddr: 0x100027444, symSize: 0x20 }
  - { offsetInCU: 0x551BF, offset: 0x551BF, size: 0x8, addend: 0x0, symName: __ZN8nlohmann16json_abi_v3_11_210basic_jsonINSt3__13mapENS2_6vectorENS2_12basic_stringIcNS2_11char_traitsIcEENS2_9allocatorIcEEEEbxydS8_NS0_14adl_serializerENS4_IhNS8_IhEEEEE10json_valueC2ERKNS0_27byte_container_with_subtypeISD_EE, symObjAddr: 0x1E33C, symBinAddr: 0x100027464, symSize: 0x3C }
  - { offsetInCU: 0x551F7, offset: 0x551F7, size: 0x8, addend: 0x0, symName: __ZN8nlohmann16json_abi_v3_11_210basic_jsonINSt3__13mapENS2_6vectorENS2_12basic_stringIcNS2_11char_traitsIcEENS2_9allocatorIcEEEEbxydS8_NS0_14adl_serializerENS4_IhNS8_IhEEEEE6createINS0_27byte_container_with_subtypeISD_EEJRKSH_EEEPT_DpOT0_, symObjAddr: 0x1E378, symBinAddr: 0x1000274A0, symSize: 0xF4 }
  - { offsetInCU: 0x552EA, offset: 0x552EA, size: 0x8, addend: 0x0, symName: __ZNSt3__110unique_ptrIN8nlohmann16json_abi_v3_11_227byte_container_with_subtypeINS_6vectorIhNS_9allocatorIhEEEEEEZNS2_10basic_jsonINS_3mapES4_NS_12basic_stringIcNS_11char_traitsIcEENS5_IcEEEEbxydS5_NS2_14adl_serializerES7_E6createIS8_JRKS8_EEEPT_DpOT0_EUlPS8_E_EC1B7v160006ILb1EvEESQ_NS_16__dependent_typeINS_27__unique_ptr_deleter_sfinaeISR_EEXT_EE15__lval_ref_typeE, symObjAddr: 0x1E46C, symBinAddr: 0x100027594, symSize: 0x3C }
  - { offsetInCU: 0x5533B, offset: 0x5533B, size: 0x8, addend: 0x0, symName: __ZNSt3__116allocator_traitsINS_9allocatorIN8nlohmann16json_abi_v3_11_227byte_container_with_subtypeINS_6vectorIhNS1_IhEEEEEEEEE9constructB7v160006IS8_JRKS8_EvEEvRS9_PT_DpOT0_, symObjAddr: 0x1E4A8, symBinAddr: 0x1000275D0, symSize: 0x34 }
  - { offsetInCU: 0x55392, offset: 0x55392, size: 0x8, addend: 0x0, symName: __ZNKSt3__110unique_ptrIN8nlohmann16json_abi_v3_11_227byte_container_with_subtypeINS_6vectorIhNS_9allocatorIhEEEEEEZNS2_10basic_jsonINS_3mapES4_NS_12basic_stringIcNS_11char_traitsIcEENS5_IcEEEEbxydS5_NS2_14adl_serializerES7_E6createIS8_JRKS8_EEEPT_DpOT0_EUlPS8_E_E3getB7v160006Ev, symObjAddr: 0x1E4DC, symBinAddr: 0x100027604, symSize: 0x28 }
  - { offsetInCU: 0x553B6, offset: 0x553B6, size: 0x8, addend: 0x0, symName: __ZNSt3__110unique_ptrIN8nlohmann16json_abi_v3_11_227byte_container_with_subtypeINS_6vectorIhNS_9allocatorIhEEEEEEZNS2_10basic_jsonINS_3mapES4_NS_12basic_stringIcNS_11char_traitsIcEENS5_IcEEEEbxydS5_NS2_14adl_serializerES7_E6createIS8_JRKS8_EEEPT_DpOT0_EUlPS8_E_E7releaseB7v160006Ev, symObjAddr: 0x1E530, symBinAddr: 0x100027658, symSize: 0x44 }
  - { offsetInCU: 0x553EA, offset: 0x553EA, size: 0x8, addend: 0x0, symName: __ZNSt3__110unique_ptrIN8nlohmann16json_abi_v3_11_227byte_container_with_subtypeINS_6vectorIhNS_9allocatorIhEEEEEEZNS2_10basic_jsonINS_3mapES4_NS_12basic_stringIcNS_11char_traitsIcEENS5_IcEEEEbxydS5_NS2_14adl_serializerES7_E6createIS8_JRKS8_EEEPT_DpOT0_EUlPS8_E_ED1B7v160006Ev, symObjAddr: 0x1E574, symBinAddr: 0x10002769C, symSize: 0x2C }
  - { offsetInCU: 0x55413, offset: 0x55413, size: 0x8, addend: 0x0, symName: __ZNSt3__110unique_ptrIN8nlohmann16json_abi_v3_11_227byte_container_with_subtypeINS_6vectorIhNS_9allocatorIhEEEEEEZNS2_10basic_jsonINS_3mapES4_NS_12basic_stringIcNS_11char_traitsIcEENS5_IcEEEEbxydS5_NS2_14adl_serializerES7_E6createIS8_JRKS8_EEEPT_DpOT0_EUlPS8_E_EC2B7v160006ILb1EvEESQ_NS_16__dependent_typeINS_27__unique_ptr_deleter_sfinaeISR_EEXT_EE15__lval_ref_typeE, symObjAddr: 0x1E5A0, symBinAddr: 0x1000276C8, symSize: 0x48 }
  - { offsetInCU: 0x55464, offset: 0x55464, size: 0x8, addend: 0x0, symName: __ZNSt3__117__compressed_pairIPN8nlohmann16json_abi_v3_11_227byte_container_with_subtypeINS_6vectorIhNS_9allocatorIhEEEEEEZNS2_10basic_jsonINS_3mapES4_NS_12basic_stringIcNS_11char_traitsIcEENS5_IcEEEEbxydS5_NS2_14adl_serializerES7_E6createIS8_JRKS8_EEEPT_DpOT0_EUlS9_E_EC1B7v160006IRS9_RKSR_EEOSM_OT0_, symObjAddr: 0x1E5E8, symBinAddr: 0x100027710, symSize: 0x3C }
  - { offsetInCU: 0x554BB, offset: 0x554BB, size: 0x8, addend: 0x0, symName: __ZNSt3__117__compressed_pairIPN8nlohmann16json_abi_v3_11_227byte_container_with_subtypeINS_6vectorIhNS_9allocatorIhEEEEEEZNS2_10basic_jsonINS_3mapES4_NS_12basic_stringIcNS_11char_traitsIcEENS5_IcEEEEbxydS5_NS2_14adl_serializerES7_E6createIS8_JRKS8_EEEPT_DpOT0_EUlS9_E_EC2B7v160006IRS9_RKSR_EEOSM_OT0_, symObjAddr: 0x1E624, symBinAddr: 0x10002774C, symSize: 0x48 }
  - { offsetInCU: 0x55512, offset: 0x55512, size: 0x8, addend: 0x0, symName: __ZNSt3__122__compressed_pair_elemIZN8nlohmann16json_abi_v3_11_210basic_jsonINS_3mapENS_6vectorENS_12basic_stringIcNS_11char_traitsIcEENS_9allocatorIcEEEEbxydS9_NS2_14adl_serializerENS5_IhNS9_IhEEEEE6createINS2_27byte_container_with_subtypeISE_EEJRKSI_EEEPT_DpOT0_EUlPSI_E_Li1ELb0EEC2B7v160006IRKSR_vEEOSL_, symObjAddr: 0x1E66C, symBinAddr: 0x100027794, symSize: 0x24 }
  - { offsetInCU: 0x55553, offset: 0x55553, size: 0x8, addend: 0x0, symName: __ZNSt3__19allocatorIN8nlohmann16json_abi_v3_11_227byte_container_with_subtypeINS_6vectorIhNS0_IhEEEEEEE9constructB7v160006IS7_JRKS7_EEEvPT_DpOT0_, symObjAddr: 0x1E690, symBinAddr: 0x1000277B8, symSize: 0x30 }
  - { offsetInCU: 0x555A8, offset: 0x555A8, size: 0x8, addend: 0x0, symName: __ZN8nlohmann16json_abi_v3_11_227byte_container_with_subtypeINSt3__16vectorIhNS2_9allocatorIhEEEEEC1ERKS7_, symObjAddr: 0x1E6C0, symBinAddr: 0x1000277E8, symSize: 0x34 }
  - { offsetInCU: 0x555DD, offset: 0x555DD, size: 0x8, addend: 0x0, symName: __ZN8nlohmann16json_abi_v3_11_227byte_container_with_subtypeINSt3__16vectorIhNS2_9allocatorIhEEEEEC2ERKS7_, symObjAddr: 0x1E6F4, symBinAddr: 0x10002781C, symSize: 0x48 }
  - { offsetInCU: 0x55612, offset: 0x55612, size: 0x8, addend: 0x0, symName: __ZNSt3__16vectorIhNS_9allocatorIhEEEC2ERKS3_, symObjAddr: 0x1E73C, symBinAddr: 0x100027864, symSize: 0x110 }
  - { offsetInCU: 0x5567B, offset: 0x5567B, size: 0x8, addend: 0x0, symName: __ZNSt3__116allocator_traitsINS_9allocatorIhEEE37select_on_container_copy_constructionB7v160006IS2_vvEES2_RKS2_, symObjAddr: 0x1E84C, symBinAddr: 0x100027974, symSize: 0x10 }
  - { offsetInCU: 0x556AB, offset: 0x556AB, size: 0x8, addend: 0x0, symName: __ZNKSt3__16vectorIhNS_9allocatorIhEEE7__allocB7v160006Ev, symObjAddr: 0x1E85C, symBinAddr: 0x100027984, symSize: 0x28 }
  - { offsetInCU: 0x556D6, offset: 0x556D6, size: 0x8, addend: 0x0, symName: __ZNSt3__117__compressed_pairIPhNS_9allocatorIhEEEC1B7v160006IDnS3_EEOT_OT0_, symObjAddr: 0x1E884, symBinAddr: 0x1000279AC, symSize: 0x3C }
  - { offsetInCU: 0x5572D, offset: 0x5572D, size: 0x8, addend: 0x0, symName: __ZNSt3__16vectorIhNS_9allocatorIhEEE16__destroy_vectorC1ERS3_, symObjAddr: 0x1E900, symBinAddr: 0x100027A28, symSize: 0x34 }
  - { offsetInCU: 0x55764, offset: 0x55764, size: 0x8, addend: 0x0, symName: __ZNSt3__16vectorIhNS_9allocatorIhEEE11__vallocateB7v160006Em, symObjAddr: 0x1E934, symBinAddr: 0x100027A5C, symSize: 0xAC }
  - { offsetInCU: 0x557A7, offset: 0x557A7, size: 0x8, addend: 0x0, symName: __ZNSt3__16vectorIhNS_9allocatorIhEEE18__construct_at_endIPhLi0EEEvT_S6_m, symObjAddr: 0x1E9E0, symBinAddr: 0x100027B08, symSize: 0x8C }
  - { offsetInCU: 0x55819, offset: 0x55819, size: 0x8, addend: 0x0, symName: __ZNSt3__128__exception_guard_exceptionsINS_6vectorIhNS_9allocatorIhEEE16__destroy_vectorEE10__completeB7v160006Ev, symObjAddr: 0x1EA6C, symBinAddr: 0x100027B94, symSize: 0x1C }
  - { offsetInCU: 0x5583E, offset: 0x5583E, size: 0x8, addend: 0x0, symName: __ZNSt3__128__exception_guard_exceptionsINS_6vectorIhNS_9allocatorIhEEE16__destroy_vectorEED1B7v160006Ev, symObjAddr: 0x1EA88, symBinAddr: 0x100027BB0, symSize: 0x2C }
  - { offsetInCU: 0x55866, offset: 0x55866, size: 0x8, addend: 0x0, symName: __ZNKSt3__117__compressed_pairIPhNS_9allocatorIhEEE6secondB7v160006Ev, symObjAddr: 0x1EAB4, symBinAddr: 0x100027BDC, symSize: 0x24 }
  - { offsetInCU: 0x5588B, offset: 0x5588B, size: 0x8, addend: 0x0, symName: __ZNKSt3__122__compressed_pair_elemINS_9allocatorIhEELi1ELb1EE5__getB7v160006Ev, symObjAddr: 0x1EAD8, symBinAddr: 0x100027C00, symSize: 0x14 }
  - { offsetInCU: 0x558B0, offset: 0x558B0, size: 0x8, addend: 0x0, symName: __ZNSt3__117__compressed_pairIPhNS_9allocatorIhEEEC2B7v160006IDnS3_EEOT_OT0_, symObjAddr: 0x1EAEC, symBinAddr: 0x100027C14, symSize: 0x44 }
  - { offsetInCU: 0x55907, offset: 0x55907, size: 0x8, addend: 0x0, symName: __ZNSt3__122__compressed_pair_elemINS_9allocatorIhEELi1ELb1EEC2B7v160006IS2_vEEOT_, symObjAddr: 0x1EB30, symBinAddr: 0x100027C58, symSize: 0x18 }
  - { offsetInCU: 0x55949, offset: 0x55949, size: 0x8, addend: 0x0, symName: __ZNSt3__128__exception_guard_exceptionsINS_6vectorIhNS_9allocatorIhEEE16__destroy_vectorEEC1B7v160006ES5_, symObjAddr: 0x1EB48, symBinAddr: 0x100027C70, symSize: 0x34 }
  - { offsetInCU: 0x55980, offset: 0x55980, size: 0x8, addend: 0x0, symName: __ZNSt3__128__exception_guard_exceptionsINS_6vectorIhNS_9allocatorIhEEE16__destroy_vectorEEC2B7v160006ES5_, symObjAddr: 0x1EB7C, symBinAddr: 0x100027CA4, symSize: 0x24 }
  - { offsetInCU: 0x559B7, offset: 0x559B7, size: 0x8, addend: 0x0, symName: __ZNSt3__16vectorIhNS_9allocatorIhEEE16__destroy_vectorC2ERS3_, symObjAddr: 0x1EBA0, symBinAddr: 0x100027CC8, symSize: 0x20 }
  - { offsetInCU: 0x559EF, offset: 0x559EF, size: 0x8, addend: 0x0, symName: __ZNKSt3__16vectorIhNS_9allocatorIhEEE8max_sizeEv, symObjAddr: 0x1EBC0, symBinAddr: 0x100027CE8, symSize: 0x60 }
  - { offsetInCU: 0x55A15, offset: 0x55A15, size: 0x8, addend: 0x0, symName: __ZNKSt3__16vectorIhNS_9allocatorIhEEE20__throw_length_errorB7v160006Ev, symObjAddr: 0x1EC20, symBinAddr: 0x100027D48, symSize: 0x1C }
  - { offsetInCU: 0x55A39, offset: 0x55A39, size: 0x8, addend: 0x0, symName: __ZNSt3__16vectorIhNS_9allocatorIhEEE7__allocB7v160006Ev, symObjAddr: 0x1EC7C, symBinAddr: 0x100027DA4, symSize: 0x28 }
  - { offsetInCU: 0x55A5D, offset: 0x55A5D, size: 0x8, addend: 0x0, symName: __ZNSt3__16vectorIhNS_9allocatorIhEEE9__end_capB7v160006Ev, symObjAddr: 0x1ECA4, symBinAddr: 0x100027DCC, symSize: 0x28 }
  - { offsetInCU: 0x55A81, offset: 0x55A81, size: 0x8, addend: 0x0, symName: __ZNKSt3__16vectorIhNS_9allocatorIhEEE14__annotate_newB7v160006Em, symObjAddr: 0x1ECCC, symBinAddr: 0x100027DF4, symSize: 0xAC }
  - { offsetInCU: 0x55AB5, offset: 0x55AB5, size: 0x8, addend: 0x0, symName: __ZNSt3__116allocator_traitsINS_9allocatorIhEEE8max_sizeB7v160006IS2_vEEmRKS2_, symObjAddr: 0x1ED78, symBinAddr: 0x100027EA0, symSize: 0x24 }
  - { offsetInCU: 0x55AE4, offset: 0x55AE4, size: 0x8, addend: 0x0, symName: __ZNKSt3__19allocatorIhE8max_sizeB7v160006Ev, symObjAddr: 0x1ED9C, symBinAddr: 0x100027EC4, symSize: 0x14 }
  - { offsetInCU: 0x55B08, offset: 0x55B08, size: 0x8, addend: 0x0, symName: __ZNSt3__19allocatorIhE8allocateB7v160006Em, symObjAddr: 0x1EDB0, symBinAddr: 0x100027ED8, symSize: 0x58 }
  - { offsetInCU: 0x55B3A, offset: 0x55B3A, size: 0x8, addend: 0x0, symName: __ZNSt3__117__compressed_pairIPhNS_9allocatorIhEEE6secondB7v160006Ev, symObjAddr: 0x1EE08, symBinAddr: 0x100027F30, symSize: 0x24 }
  - { offsetInCU: 0x55B5F, offset: 0x55B5F, size: 0x8, addend: 0x0, symName: __ZNSt3__122__compressed_pair_elemINS_9allocatorIhEELi1ELb1EE5__getB7v160006Ev, symObjAddr: 0x1EE2C, symBinAddr: 0x100027F54, symSize: 0x14 }
  - { offsetInCU: 0x55B83, offset: 0x55B83, size: 0x8, addend: 0x0, symName: __ZNSt3__117__compressed_pairIPhNS_9allocatorIhEEE5firstB7v160006Ev, symObjAddr: 0x1EE40, symBinAddr: 0x100027F68, symSize: 0x24 }
  - { offsetInCU: 0x55BA8, offset: 0x55BA8, size: 0x8, addend: 0x0, symName: __ZNSt3__122__compressed_pair_elemIPhLi0ELb0EE5__getB7v160006Ev, symObjAddr: 0x1EE64, symBinAddr: 0x100027F8C, symSize: 0x14 }
  - { offsetInCU: 0x55BCD, offset: 0x55BCD, size: 0x8, addend: 0x0, symName: __ZNKSt3__16vectorIhNS_9allocatorIhEEE31__annotate_contiguous_containerB7v160006EPKvS5_S5_S5_, symObjAddr: 0x1EE78, symBinAddr: 0x100027FA0, symSize: 0x20 }
  - { offsetInCU: 0x55C1D, offset: 0x55C1D, size: 0x8, addend: 0x0, symName: __ZNKSt3__16vectorIhNS_9allocatorIhEEE4dataB7v160006Ev, symObjAddr: 0x1EE98, symBinAddr: 0x100027FC0, symSize: 0x28 }
  - { offsetInCU: 0x55C41, offset: 0x55C41, size: 0x8, addend: 0x0, symName: __ZNKSt3__16vectorIhNS_9allocatorIhEEE8capacityB7v160006Ev, symObjAddr: 0x1EEC0, symBinAddr: 0x100027FE8, symSize: 0x38 }
  - { offsetInCU: 0x55C65, offset: 0x55C65, size: 0x8, addend: 0x0, symName: __ZNKSt3__16vectorIhNS_9allocatorIhEEE9__end_capB7v160006Ev, symObjAddr: 0x1EF0C, symBinAddr: 0x100028034, symSize: 0x28 }
  - { offsetInCU: 0x55C89, offset: 0x55C89, size: 0x8, addend: 0x0, symName: __ZNKSt3__117__compressed_pairIPhNS_9allocatorIhEEE5firstB7v160006Ev, symObjAddr: 0x1EF34, symBinAddr: 0x10002805C, symSize: 0x24 }
  - { offsetInCU: 0x55CAE, offset: 0x55CAE, size: 0x8, addend: 0x0, symName: __ZNKSt3__122__compressed_pair_elemIPhLi0ELb0EE5__getB7v160006Ev, symObjAddr: 0x1EF58, symBinAddr: 0x100028080, symSize: 0x14 }
  - { offsetInCU: 0x55CEC, offset: 0x55CEC, size: 0x8, addend: 0x0, symName: __ZNSt3__16vectorIhNS_9allocatorIhEEE21_ConstructTransactionC1B7v160006ERS3_m, symObjAddr: 0x1EF6C, symBinAddr: 0x100028094, symSize: 0x3C }
  - { offsetInCU: 0x55D33, offset: 0x55D33, size: 0x8, addend: 0x0, symName: __ZNSt3__16vectorIhNS_9allocatorIhEEE21_ConstructTransactionD1B7v160006Ev, symObjAddr: 0x1F09C, symBinAddr: 0x1000281C4, symSize: 0x2C }
  - { offsetInCU: 0x55D5C, offset: 0x55D5C, size: 0x8, addend: 0x0, symName: __ZNSt3__16vectorIhNS_9allocatorIhEEE21_ConstructTransactionC2B7v160006ERS3_m, symObjAddr: 0x1F0C8, symBinAddr: 0x1000281F0, symSize: 0x44 }
  - { offsetInCU: 0x55DA3, offset: 0x55DA3, size: 0x8, addend: 0x0, symName: __ZNSt3__129_AllocatorDestroyRangeReverseINS_9allocatorIhEEPhEC1B7v160006ERS2_RS3_S6_, symObjAddr: 0x1F158, symBinAddr: 0x100028280, symSize: 0x44 }
  - { offsetInCU: 0x55DF9, offset: 0x55DF9, size: 0x8, addend: 0x0, symName: __ZNSt3__116allocator_traitsINS_9allocatorIhEEE9constructB7v160006IhJRhEvEEvRS2_PT_DpOT0_, symObjAddr: 0x1F19C, symBinAddr: 0x1000282C4, symSize: 0x34 }
  - { offsetInCU: 0x55E51, offset: 0x55E51, size: 0x8, addend: 0x0, symName: __ZNSt3__128__exception_guard_exceptionsINS_29_AllocatorDestroyRangeReverseINS_9allocatorIhEEPhEEE10__completeB7v160006Ev, symObjAddr: 0x1F1D0, symBinAddr: 0x1000282F8, symSize: 0x1C }
  - { offsetInCU: 0x55E76, offset: 0x55E76, size: 0x8, addend: 0x0, symName: __ZNSt3__128__exception_guard_exceptionsINS_29_AllocatorDestroyRangeReverseINS_9allocatorIhEEPhEEED1B7v160006Ev, symObjAddr: 0x1F1EC, symBinAddr: 0x100028314, symSize: 0x2C }
  - { offsetInCU: 0x55E9F, offset: 0x55E9F, size: 0x8, addend: 0x0, symName: __ZNSt3__128__exception_guard_exceptionsINS_29_AllocatorDestroyRangeReverseINS_9allocatorIhEEPhEEEC1B7v160006ES5_, symObjAddr: 0x1F218, symBinAddr: 0x100028340, symSize: 0x34 }
  - { offsetInCU: 0x55ED7, offset: 0x55ED7, size: 0x8, addend: 0x0, symName: __ZNSt3__128__exception_guard_exceptionsINS_29_AllocatorDestroyRangeReverseINS_9allocatorIhEEPhEEEC2B7v160006ES5_, symObjAddr: 0x1F24C, symBinAddr: 0x100028374, symSize: 0x30 }
  - { offsetInCU: 0x55F0F, offset: 0x55F0F, size: 0x8, addend: 0x0, symName: __ZNSt3__129_AllocatorDestroyRangeReverseINS_9allocatorIhEEPhEC2B7v160006ERS2_RS3_S6_, symObjAddr: 0x1F27C, symBinAddr: 0x1000283A4, symSize: 0x38 }
  - { offsetInCU: 0x55F65, offset: 0x55F65, size: 0x8, addend: 0x0, symName: __ZNSt3__19allocatorIhE9constructB7v160006IhJRhEEEvPT_DpOT0_, symObjAddr: 0x1F2B4, symBinAddr: 0x1000283DC, symSize: 0x28 }
  - { offsetInCU: 0x55FBA, offset: 0x55FBA, size: 0x8, addend: 0x0, symName: __ZNSt3__128__exception_guard_exceptionsINS_29_AllocatorDestroyRangeReverseINS_9allocatorIhEEPhEEED2B7v160006Ev, symObjAddr: 0x1F2DC, symBinAddr: 0x100028404, symSize: 0x50 }
  - { offsetInCU: 0x55FE2, offset: 0x55FE2, size: 0x8, addend: 0x0, symName: __ZNKSt3__129_AllocatorDestroyRangeReverseINS_9allocatorIhEEPhEclB7v160006Ev, symObjAddr: 0x1F32C, symBinAddr: 0x100028454, symSize: 0x68 }
  - { offsetInCU: 0x56007, offset: 0x56007, size: 0x8, addend: 0x0, symName: __ZNSt3__116reverse_iteratorIPhEC1B7v160006ES1_, symObjAddr: 0x1F404, symBinAddr: 0x10002852C, symSize: 0x34 }
  - { offsetInCU: 0x5603E, offset: 0x5603E, size: 0x8, addend: 0x0, symName: __ZNSt3__116allocator_traitsINS_9allocatorIhEEE7destroyB7v160006IhvEEvRS2_PT_, symObjAddr: 0x1F480, symBinAddr: 0x1000285A8, symSize: 0x2C }
  - { offsetInCU: 0x5607C, offset: 0x5607C, size: 0x8, addend: 0x0, symName: __ZNSt3__116reverse_iteratorIPhEppB7v160006Ev, symObjAddr: 0x1F4D0, symBinAddr: 0x1000285F8, symSize: 0x20 }
  - { offsetInCU: 0x560A1, offset: 0x560A1, size: 0x8, addend: 0x0, symName: __ZNKSt3__116reverse_iteratorIPhE4baseB7v160006Ev, symObjAddr: 0x1F4F0, symBinAddr: 0x100028618, symSize: 0x18 }
  - { offsetInCU: 0x560C6, offset: 0x560C6, size: 0x8, addend: 0x0, symName: __ZNSt3__19allocatorIhE7destroyB7v160006EPh, symObjAddr: 0x1F508, symBinAddr: 0x100028630, symSize: 0x14 }
  - { offsetInCU: 0x560FE, offset: 0x560FE, size: 0x8, addend: 0x0, symName: __ZNSt3__119__to_address_helperINS_16reverse_iteratorIPhEEvE6__callB7v160006ERKS3_, symObjAddr: 0x1F51C, symBinAddr: 0x100028644, symSize: 0x38 }
  - { offsetInCU: 0x56120, offset: 0x56120, size: 0x8, addend: 0x0, symName: __ZNKSt3__116reverse_iteratorIPhEptB7v160006Ev, symObjAddr: 0x1F554, symBinAddr: 0x10002867C, symSize: 0x24 }
  - { offsetInCU: 0x56145, offset: 0x56145, size: 0x8, addend: 0x0, symName: __ZNKSt3__116reverse_iteratorIPhEdeB7v160006Ev, symObjAddr: 0x1F578, symBinAddr: 0x1000286A0, symSize: 0x28 }
  - { offsetInCU: 0x56179, offset: 0x56179, size: 0x8, addend: 0x0, symName: __ZNSt3__116reverse_iteratorIPhEC2B7v160006ES1_, symObjAddr: 0x1F5A0, symBinAddr: 0x1000286C8, symSize: 0x28 }
  - { offsetInCU: 0x561B0, offset: 0x561B0, size: 0x8, addend: 0x0, symName: __ZNSt3__16vectorIhNS_9allocatorIhEEE21_ConstructTransactionD2B7v160006Ev, symObjAddr: 0x1F5C8, symBinAddr: 0x1000286F0, symSize: 0x20 }
  - { offsetInCU: 0x561D9, offset: 0x561D9, size: 0x8, addend: 0x0, symName: __ZNSt3__128__exception_guard_exceptionsINS_6vectorIhNS_9allocatorIhEEE16__destroy_vectorEED2B7v160006Ev, symObjAddr: 0x1F5E8, symBinAddr: 0x100028710, symSize: 0x50 }
  - { offsetInCU: 0x56201, offset: 0x56201, size: 0x8, addend: 0x0, symName: __ZNSt3__16vectorIhNS_9allocatorIhEEE16__destroy_vectorclB7v160006Ev, symObjAddr: 0x1F638, symBinAddr: 0x100028760, symSize: 0x9C }
  - { offsetInCU: 0x56225, offset: 0x56225, size: 0x8, addend: 0x0, symName: __ZNKSt3__16vectorIhNS_9allocatorIhEEE17__annotate_deleteB7v160006Ev, symObjAddr: 0x1F6D4, symBinAddr: 0x1000287FC, symSize: 0xB8 }
  - { offsetInCU: 0x56249, offset: 0x56249, size: 0x8, addend: 0x0, symName: __ZNSt3__16vectorIhNS_9allocatorIhEEE7__clearB7v160006Ev, symObjAddr: 0x1F79C, symBinAddr: 0x1000288C4, symSize: 0x28 }
  - { offsetInCU: 0x5626E, offset: 0x5626E, size: 0x8, addend: 0x0, symName: __ZNSt3__116allocator_traitsINS_9allocatorIhEEE10deallocateB7v160006ERS2_Phm, symObjAddr: 0x1F7C4, symBinAddr: 0x1000288EC, symSize: 0x34 }
  - { offsetInCU: 0x562AF, offset: 0x562AF, size: 0x8, addend: 0x0, symName: __ZNSt3__16vectorIhNS_9allocatorIhEEE22__base_destruct_at_endB7v160006EPh, symObjAddr: 0x1F7F8, symBinAddr: 0x100028920, symSize: 0x8C }
  - { offsetInCU: 0x562F1, offset: 0x562F1, size: 0x8, addend: 0x0, symName: __ZNSt3__19allocatorIhE10deallocateB7v160006EPhm, symObjAddr: 0x1F884, symBinAddr: 0x1000289AC, symSize: 0x40 }
  - { offsetInCU: 0x56331, offset: 0x56331, size: 0x8, addend: 0x0, symName: __ZNKSt3__117__compressed_pairIPN8nlohmann16json_abi_v3_11_227byte_container_with_subtypeINS_6vectorIhNS_9allocatorIhEEEEEEZNS2_10basic_jsonINS_3mapES4_NS_12basic_stringIcNS_11char_traitsIcEENS5_IcEEEEbxydS5_NS2_14adl_serializerES7_E6createIS8_JRKS8_EEEPT_DpOT0_EUlS9_E_E5firstB7v160006Ev, symObjAddr: 0x1F8C4, symBinAddr: 0x1000289EC, symSize: 0x24 }
  - { offsetInCU: 0x56355, offset: 0x56355, size: 0x8, addend: 0x0, symName: __ZNKSt3__110unique_ptrIN8nlohmann16json_abi_v3_11_227byte_container_with_subtypeINS_6vectorIhNS_9allocatorIhEEEEEEZNS2_10basic_jsonINS_3mapES4_NS_12basic_stringIcNS_11char_traitsIcEENS5_IcEEEEbxydS5_NS2_14adl_serializerES7_E6createIS8_JRKS8_EEEPT_DpOT0_EUlPS8_E_EcvbB7v160006Ev, symObjAddr: 0x1F8E8, symBinAddr: 0x100028A10, symSize: 0x34 }
  - { offsetInCU: 0x56379, offset: 0x56379, size: 0x8, addend: 0x0, symName: __ZNSt3__117__compressed_pairIPN8nlohmann16json_abi_v3_11_227byte_container_with_subtypeINS_6vectorIhNS_9allocatorIhEEEEEEZNS2_10basic_jsonINS_3mapES4_NS_12basic_stringIcNS_11char_traitsIcEENS5_IcEEEEbxydS5_NS2_14adl_serializerES7_E6createIS8_JRKS8_EEEPT_DpOT0_EUlS9_E_E5firstB7v160006Ev, symObjAddr: 0x1F91C, symBinAddr: 0x100028A44, symSize: 0x24 }
  - { offsetInCU: 0x5639E, offset: 0x5639E, size: 0x8, addend: 0x0, symName: __ZNSt3__110unique_ptrIN8nlohmann16json_abi_v3_11_227byte_container_with_subtypeINS_6vectorIhNS_9allocatorIhEEEEEEZNS2_10basic_jsonINS_3mapES4_NS_12basic_stringIcNS_11char_traitsIcEENS5_IcEEEEbxydS5_NS2_14adl_serializerES7_E6createIS8_JRKS8_EEEPT_DpOT0_EUlPS8_E_ED2B7v160006Ev, symObjAddr: 0x1F940, symBinAddr: 0x100028A68, symSize: 0x30 }
  - { offsetInCU: 0x563C6, offset: 0x563C6, size: 0x8, addend: 0x0, symName: __ZNSt3__110unique_ptrIN8nlohmann16json_abi_v3_11_227byte_container_with_subtypeINS_6vectorIhNS_9allocatorIhEEEEEEZNS2_10basic_jsonINS_3mapES4_NS_12basic_stringIcNS_11char_traitsIcEENS5_IcEEEEbxydS5_NS2_14adl_serializerES7_E6createIS8_JRKS8_EEEPT_DpOT0_EUlPS8_E_E5resetB7v160006ESQ_, symObjAddr: 0x1F970, symBinAddr: 0x100028A98, symSize: 0x80 }
  - { offsetInCU: 0x56408, offset: 0x56408, size: 0x8, addend: 0x0, symName: __ZNSt3__117__compressed_pairIPN8nlohmann16json_abi_v3_11_227byte_container_with_subtypeINS_6vectorIhNS_9allocatorIhEEEEEEZNS2_10basic_jsonINS_3mapES4_NS_12basic_stringIcNS_11char_traitsIcEENS5_IcEEEEbxydS5_NS2_14adl_serializerES7_E6createIS8_JRKS8_EEEPT_DpOT0_EUlS9_E_E6secondB7v160006Ev, symObjAddr: 0x1F9F0, symBinAddr: 0x100028B18, symSize: 0x28 }
  - { offsetInCU: 0x56432, offset: 0x56432, size: 0x8, addend: 0x0, symName: __ZZN8nlohmann16json_abi_v3_11_210basic_jsonINSt3__13mapENS2_6vectorENS2_12basic_stringIcNS2_11char_traitsIcEENS2_9allocatorIcEEEEbxydS8_NS0_14adl_serializerENS4_IhNS8_IhEEEEE6createINS0_27byte_container_with_subtypeISD_EEJRKSH_EEEPT_DpOT0_ENKUlPSH_E_clESP_, symObjAddr: 0x1FA18, symBinAddr: 0x100028B40, symSize: 0x34 }
  - { offsetInCU: 0x5646A, offset: 0x5646A, size: 0x8, addend: 0x0, symName: __ZNSt3__122__compressed_pair_elemIZN8nlohmann16json_abi_v3_11_210basic_jsonINS_3mapENS_6vectorENS_12basic_stringIcNS_11char_traitsIcEENS_9allocatorIcEEEEbxydS9_NS2_14adl_serializerENS5_IhNS9_IhEEEEE6createINS2_27byte_container_with_subtypeISE_EEJRKSI_EEEPT_DpOT0_EUlPSI_E_Li1ELb0EE5__getB7v160006Ev, symObjAddr: 0x1FA4C, symBinAddr: 0x100028B74, symSize: 0x14 }
  - { offsetInCU: 0x5648E, offset: 0x5648E, size: 0x8, addend: 0x0, symName: __ZNSt3__16vectorIPN8nlohmann16json_abi_v3_11_210basic_jsonINS_3mapES0_NS_12basic_stringIcNS_11char_traitsIcEENS_9allocatorIcEEEEbxydS8_NS2_14adl_serializerENS0_IhNS8_IhEEEEEENS8_ISF_EEE17__destruct_at_endB7v160006EPSF_, symObjAddr: 0x1FA60, symBinAddr: 0x100028B88, symSize: 0x60 }
  - { offsetInCU: 0x564D1, offset: 0x564D1, size: 0x8, addend: 0x0, symName: __ZNSt3__16vectorIPN8nlohmann16json_abi_v3_11_210basic_jsonINS_3mapES0_NS_12basic_stringIcNS_11char_traitsIcEENS_9allocatorIcEEEEbxydS8_NS2_14adl_serializerENS0_IhNS8_IhEEEEEENS8_ISF_EEE27__invalidate_iterators_pastB7v160006EPSF_, symObjAddr: 0x1FAC0, symBinAddr: 0x100028BE8, symSize: 0x14 }
  - { offsetInCU: 0x56506, offset: 0x56506, size: 0x8, addend: 0x0, symName: __ZNKSt3__16vectorIPN8nlohmann16json_abi_v3_11_210basic_jsonINS_3mapES0_NS_12basic_stringIcNS_11char_traitsIcEENS_9allocatorIcEEEEbxydS8_NS2_14adl_serializerENS0_IhNS8_IhEEEEEENS8_ISF_EEE17__annotate_shrinkB7v160006Em, symObjAddr: 0x1FAD4, symBinAddr: 0x100028BFC, symSize: 0xB4 }
  - { offsetInCU: 0x5653A, offset: 0x5653A, size: 0x8, addend: 0x0, symName: __ZN8nlohmann16json_abi_v3_11_26detail9iter_implINS0_10basic_jsonINSt3__13mapENS4_6vectorENS4_12basic_stringIcNS4_11char_traitsIcEENS4_9allocatorIcEEEEbxydSA_NS0_14adl_serializerENS6_IhNSA_IhEEEEEEEC1EPSG_, symObjAddr: 0x1FB88, symBinAddr: 0x100028CB0, symSize: 0x34 }
  - { offsetInCU: 0x56571, offset: 0x56571, size: 0x8, addend: 0x0, symName: __ZN8nlohmann16json_abi_v3_11_26detail9iter_implINS0_10basic_jsonINSt3__13mapENS4_6vectorENS4_12basic_stringIcNS4_11char_traitsIcEENS4_9allocatorIcEEEEbxydSA_NS0_14adl_serializerENS6_IhNSA_IhEEEEEEE9set_beginEv, symObjAddr: 0x1FBBC, symBinAddr: 0x100028CE4, symSize: 0x118 }
  - { offsetInCU: 0x56596, offset: 0x56596, size: 0x8, addend: 0x0, symName: __ZN8nlohmann16json_abi_v3_11_26detail9iter_implINS0_10basic_jsonINSt3__13mapENS4_6vectorENS4_12basic_stringIcNS4_11char_traitsIcEENS4_9allocatorIcEEEEbxydSA_NS0_14adl_serializerENS6_IhNSA_IhEEEEEEEC2EPSG_, symObjAddr: 0x1FCFC, symBinAddr: 0x100028E24, symSize: 0x13C }
  - { offsetInCU: 0x565CE, offset: 0x565CE, size: 0x8, addend: 0x0, symName: __ZNSt3__114__map_iteratorINS_15__tree_iteratorINS_12__value_typeINS_12basic_stringIcNS_11char_traitsIcEENS_9allocatorIcEEEEN8nlohmann16json_abi_v3_11_210basic_jsonINS_3mapENS_6vectorES8_bxydS6_NSA_14adl_serializerENSD_IhNS6_IhEEEEEEEEPNS_11__tree_nodeISI_PvEElEEEC1B7v160006Ev, symObjAddr: 0x1FE60, symBinAddr: 0x100028F88, symSize: 0x2C }
  - { offsetInCU: 0x565F7, offset: 0x565F7, size: 0x8, addend: 0x0, symName: __ZNSt3__111__wrap_iterIPN8nlohmann16json_abi_v3_11_210basic_jsonINS_3mapENS_6vectorENS_12basic_stringIcNS_11char_traitsIcEENS_9allocatorIcEEEEbxydS9_NS2_14adl_serializerENS5_IhNS9_IhEEEEEEEC1B7v160006Ev, symObjAddr: 0x1FE8C, symBinAddr: 0x100028FB4, symSize: 0x2C }
  - { offsetInCU: 0x56620, offset: 0x56620, size: 0x8, addend: 0x0, symName: __ZN8nlohmann16json_abi_v3_11_26detail20primitive_iterator_tC1Ev, symObjAddr: 0x1FEB8, symBinAddr: 0x100028FE0, symSize: 0x2C }
  - { offsetInCU: 0x5664C, offset: 0x5664C, size: 0x8, addend: 0x0, symName: __ZNSt3__114__map_iteratorINS_15__tree_iteratorINS_12__value_typeINS_12basic_stringIcNS_11char_traitsIcEENS_9allocatorIcEEEEN8nlohmann16json_abi_v3_11_210basic_jsonINS_3mapENS_6vectorES8_bxydS6_NSA_14adl_serializerENSD_IhNS6_IhEEEEEEEEPNS_11__tree_nodeISI_PvEElEEEC2B7v160006Ev, symObjAddr: 0x1FEE4, symBinAddr: 0x10002900C, symSize: 0x2C }
  - { offsetInCU: 0x56675, offset: 0x56675, size: 0x8, addend: 0x0, symName: __ZNSt3__115__tree_iteratorINS_12__value_typeINS_12basic_stringIcNS_11char_traitsIcEENS_9allocatorIcEEEEN8nlohmann16json_abi_v3_11_210basic_jsonINS_3mapENS_6vectorES7_bxydS5_NS9_14adl_serializerENSC_IhNS5_IhEEEEEEEEPNS_11__tree_nodeISH_PvEElEC1B7v160006Ev, symObjAddr: 0x1FF10, symBinAddr: 0x100029038, symSize: 0x2C }
  - { offsetInCU: 0x5669E, offset: 0x5669E, size: 0x8, addend: 0x0, symName: __ZNSt3__115__tree_iteratorINS_12__value_typeINS_12basic_stringIcNS_11char_traitsIcEENS_9allocatorIcEEEEN8nlohmann16json_abi_v3_11_210basic_jsonINS_3mapENS_6vectorES7_bxydS5_NS9_14adl_serializerENSC_IhNS5_IhEEEEEEEEPNS_11__tree_nodeISH_PvEElEC2B7v160006Ev, symObjAddr: 0x1FF3C, symBinAddr: 0x100029064, symSize: 0x18 }
  - { offsetInCU: 0x566C7, offset: 0x566C7, size: 0x8, addend: 0x0, symName: __ZNSt3__111__wrap_iterIPN8nlohmann16json_abi_v3_11_210basic_jsonINS_3mapENS_6vectorENS_12basic_stringIcNS_11char_traitsIcEENS_9allocatorIcEEEEbxydS9_NS2_14adl_serializerENS5_IhNS9_IhEEEEEEEC2B7v160006Ev, symObjAddr: 0x1FF54, symBinAddr: 0x10002907C, symSize: 0x38 }
  - { offsetInCU: 0x566F0, offset: 0x566F0, size: 0x8, addend: 0x0, symName: __ZN8nlohmann16json_abi_v3_11_26detail20primitive_iterator_tC2Ev, symObjAddr: 0x1FF9C, symBinAddr: 0x1000290C4, symSize: 0x34 }
  - { offsetInCU: 0x5671C, offset: 0x5671C, size: 0x8, addend: 0x0, symName: __ZNSt3__114numeric_limitsIlE3minB7v160006Ev, symObjAddr: 0x1FFD0, symBinAddr: 0x1000290F8, symSize: 0x14 }
  - { offsetInCU: 0x56730, offset: 0x56730, size: 0x8, addend: 0x0, symName: __ZNSt3__123__libcpp_numeric_limitsIlLb1EE3minB7v160006Ev, symObjAddr: 0x1FFE4, symBinAddr: 0x10002910C, symSize: 0x8 }
  - { offsetInCU: 0x56743, offset: 0x56743, size: 0x8, addend: 0x0, symName: __ZNSt3__13mapINS_12basic_stringIcNS_11char_traitsIcEENS_9allocatorIcEEEEN8nlohmann16json_abi_v3_11_210basic_jsonIS0_NS_6vectorES6_bxydS4_NS8_14adl_serializerENSA_IhNS4_IhEEEEEENS_4lessIvEENS4_INS_4pairIKS6_SE_EEEEE5beginB7v160006Ev, symObjAddr: 0x1FFEC, symBinAddr: 0x100029114, symSize: 0x38 }
  - { offsetInCU: 0x56768, offset: 0x56768, size: 0x8, addend: 0x0, symName: __ZNSt3__16vectorIN8nlohmann16json_abi_v3_11_210basic_jsonINS_3mapES0_NS_12basic_stringIcNS_11char_traitsIcEENS_9allocatorIcEEEEbxydS8_NS2_14adl_serializerENS0_IhNS8_IhEEEEEENS8_ISE_EEE5beginB7v160006Ev, symObjAddr: 0x20024, symBinAddr: 0x10002914C, symSize: 0x30 }
  - { offsetInCU: 0x5678F, offset: 0x5678F, size: 0x8, addend: 0x0, symName: __ZN8nlohmann16json_abi_v3_11_26detail20primitive_iterator_t7set_endEv, symObjAddr: 0x20054, symBinAddr: 0x10002917C, symSize: 0x1C }
  - { offsetInCU: 0x567B4, offset: 0x567B4, size: 0x8, addend: 0x0, symName: __ZN8nlohmann16json_abi_v3_11_26detail20primitive_iterator_t9set_beginEv, symObjAddr: 0x20070, symBinAddr: 0x100029198, symSize: 0x18 }
  - { offsetInCU: 0x567D8, offset: 0x567D8, size: 0x8, addend: 0x0, symName: __ZNSt3__16vectorIN8nlohmann16json_abi_v3_11_210basic_jsonINS_3mapES0_NS_12basic_stringIcNS_11char_traitsIcEENS_9allocatorIcEEEEbxydS8_NS2_14adl_serializerENS0_IhNS8_IhEEEEEENS8_ISE_EEE11__make_iterB7v160006EPSE_, symObjAddr: 0x20088, symBinAddr: 0x1000291B0, symSize: 0x34 }
  - { offsetInCU: 0x5680C, offset: 0x5680C, size: 0x8, addend: 0x0, symName: __ZNSt3__111__wrap_iterIPN8nlohmann16json_abi_v3_11_210basic_jsonINS_3mapENS_6vectorENS_12basic_stringIcNS_11char_traitsIcEENS_9allocatorIcEEEEbxydS9_NS2_14adl_serializerENS5_IhNS9_IhEEEEEEEC1B7v160006EPKvSG_, symObjAddr: 0x200BC, symBinAddr: 0x1000291E4, symSize: 0x3C }
  - { offsetInCU: 0x56851, offset: 0x56851, size: 0x8, addend: 0x0, symName: __ZNSt3__111__wrap_iterIPN8nlohmann16json_abi_v3_11_210basic_jsonINS_3mapENS_6vectorENS_12basic_stringIcNS_11char_traitsIcEENS_9allocatorIcEEEEbxydS9_NS2_14adl_serializerENS5_IhNS9_IhEEEEEEEC2B7v160006EPKvSG_, symObjAddr: 0x200F8, symBinAddr: 0x100029220, symSize: 0x24 }
  - { offsetInCU: 0x56895, offset: 0x56895, size: 0x8, addend: 0x0, symName: __ZNK8nlohmann16json_abi_v3_11_26detail9iter_implINS0_10basic_jsonINSt3__13mapENS4_6vectorENS4_12basic_stringIcNS4_11char_traitsIcEENS4_9allocatorIcEEEEbxydSA_NS0_14adl_serializerENS6_IhNSA_IhEEEEEEEeqISH_LDn0EEEbRKT_, symObjAddr: 0x2011C, symBinAddr: 0x100029244, symSize: 0x214 }
  - { offsetInCU: 0x568DD, offset: 0x568DD, size: 0x8, addend: 0x0, symName: __ZN8nlohmann16json_abi_v3_11_26detail16invalid_iterator6createIPNS0_10basic_jsonINSt3__13mapENS5_6vectorENS5_12basic_stringIcNS5_11char_traitsIcEENS5_9allocatorIcEEEEbxydSB_NS0_14adl_serializerENS7_IhNSB_IhEEEEEELi0EEES2_iRKSD_T_, symObjAddr: 0x20358, symBinAddr: 0x100029480, symSize: 0x130 }
  - { offsetInCU: 0x5693D, offset: 0x5693D, size: 0x8, addend: 0x0, symName: __ZN8nlohmann16json_abi_v3_11_26detail16invalid_iteratorD1Ev, symObjAddr: 0x20488, symBinAddr: 0x1000295B0, symSize: 0x2C }
  - { offsetInCU: 0x56969, offset: 0x56969, size: 0x8, addend: 0x0, symName: __ZN8nlohmann16json_abi_v3_11_26detail16invalid_iteratorC1EiPKc, symObjAddr: 0x20554, symBinAddr: 0x10002967C, symSize: 0x3C }
  - { offsetInCU: 0x569B0, offset: 0x569B0, size: 0x8, addend: 0x0, symName: __ZN8nlohmann16json_abi_v3_11_26detail16invalid_iteratorC2EiPKc, symObjAddr: 0x20590, symBinAddr: 0x1000296B8, symSize: 0x54 }
  - { offsetInCU: 0x569F7, offset: 0x569F7, size: 0x8, addend: 0x0, symName: __ZN8nlohmann16json_abi_v3_11_26detail16invalid_iteratorD0Ev, symObjAddr: 0x205E4, symBinAddr: 0x10002970C, symSize: 0x30 }
  - { offsetInCU: 0x56A23, offset: 0x56A23, size: 0x8, addend: 0x0, symName: __ZN8nlohmann16json_abi_v3_11_26detail16invalid_iteratorD2Ev, symObjAddr: 0x20614, symBinAddr: 0x10002973C, symSize: 0x2C }
  - { offsetInCU: 0x56A4F, offset: 0x56A4F, size: 0x8, addend: 0x0, symName: __ZNKSt3__111__wrap_iterIPN8nlohmann16json_abi_v3_11_210basic_jsonINS_3mapENS_6vectorENS_12basic_stringIcNS_11char_traitsIcEENS_9allocatorIcEEEEbxydS9_NS2_14adl_serializerENS5_IhNS9_IhEEEEEEE4baseB7v160006Ev, symObjAddr: 0x20670, symBinAddr: 0x100029798, symSize: 0x18 }
  - { offsetInCU: 0x56A73, offset: 0x56A73, size: 0x8, addend: 0x0, symName: __ZN8nlohmann16json_abi_v3_11_26detail9iter_implINS0_10basic_jsonINSt3__13mapENS4_6vectorENS4_12basic_stringIcNS4_11char_traitsIcEENS4_9allocatorIcEEEEbxydSA_NS0_14adl_serializerENS6_IhNSA_IhEEEEEEE7set_endEv, symObjAddr: 0x20688, symBinAddr: 0x1000297B0, symSize: 0x108 }
  - { offsetInCU: 0x56A97, offset: 0x56A97, size: 0x8, addend: 0x0, symName: __ZNSt3__13mapINS_12basic_stringIcNS_11char_traitsIcEENS_9allocatorIcEEEEN8nlohmann16json_abi_v3_11_210basic_jsonIS0_NS_6vectorES6_bxydS4_NS8_14adl_serializerENSA_IhNS4_IhEEEEEENS_4lessIvEENS4_INS_4pairIKS6_SE_EEEEE3endB7v160006Ev, symObjAddr: 0x207B8, symBinAddr: 0x1000298E0, symSize: 0x38 }
  - { offsetInCU: 0x56ABC, offset: 0x56ABC, size: 0x8, addend: 0x0, symName: __ZNSt3__16vectorIN8nlohmann16json_abi_v3_11_210basic_jsonINS_3mapES0_NS_12basic_stringIcNS_11char_traitsIcEENS_9allocatorIcEEEEbxydS8_NS2_14adl_serializerENS0_IhNS8_IhEEEEEENS8_ISE_EEE3endB7v160006Ev, symObjAddr: 0x207F0, symBinAddr: 0x100029918, symSize: 0x30 }
  - { offsetInCU: 0x56AE2, offset: 0x56AE2, size: 0x8, addend: 0x0, symName: __ZNKSt3__114__map_iteratorINS_15__tree_iteratorINS_12__value_typeINS_12basic_stringIcNS_11char_traitsIcEENS_9allocatorIcEEEEN8nlohmann16json_abi_v3_11_210basic_jsonINS_3mapENS_6vectorES8_bxydS6_NSA_14adl_serializerENSD_IhNS6_IhEEEEEEEEPNS_11__tree_nodeISI_PvEElEEEptB7v160006Ev, symObjAddr: 0x20850, symBinAddr: 0x100029978, symSize: 0x2C }
  - { offsetInCU: 0x56B07, offset: 0x56B07, size: 0x8, addend: 0x0, symName: __ZNKSt3__111__wrap_iterIPN8nlohmann16json_abi_v3_11_210basic_jsonINS_3mapENS_6vectorENS_12basic_stringIcNS_11char_traitsIcEENS_9allocatorIcEEEEbxydS9_NS2_14adl_serializerENS5_IhNS9_IhEEEEEEEdeB7v160006Ev, symObjAddr: 0x208B0, symBinAddr: 0x1000299D8, symSize: 0x18 }
  - { offsetInCU: 0x56B2C, offset: 0x56B2C, size: 0x8, addend: 0x0, symName: __ZNK8nlohmann16json_abi_v3_11_26detail20primitive_iterator_t8is_beginEv, symObjAddr: 0x208C8, symBinAddr: 0x1000299F0, symSize: 0x24 }
  - { offsetInCU: 0x56B51, offset: 0x56B51, size: 0x8, addend: 0x0, symName: __ZNSt3__114pointer_traitsIPNS_4pairIKNS_12basic_stringIcNS_11char_traitsIcEENS_9allocatorIcEEEEN8nlohmann16json_abi_v3_11_210basic_jsonINS_3mapENS_6vectorES7_bxydS5_NSA_14adl_serializerENSD_IhNS5_IhEEEEEEEEE10pointer_toB7v160006ERSI_, symObjAddr: 0x20920, symBinAddr: 0x100029A48, symSize: 0x14 }
  - { offsetInCU: 0x56B73, offset: 0x56B73, size: 0x8, addend: 0x0, symName: __ZNKSt3__115__tree_iteratorINS_12__value_typeINS_12basic_stringIcNS_11char_traitsIcEENS_9allocatorIcEEEEN8nlohmann16json_abi_v3_11_210basic_jsonINS_3mapENS_6vectorES7_bxydS5_NS9_14adl_serializerENSC_IhNS5_IhEEEEEEEEPNS_11__tree_nodeISH_PvEElEptB7v160006Ev, symObjAddr: 0x20934, symBinAddr: 0x100029A5C, symSize: 0x2C }
  - { offsetInCU: 0x56B98, offset: 0x56B98, size: 0x8, addend: 0x0, symName: __ZNSt3__114pointer_traitsIPNS_12__value_typeINS_12basic_stringIcNS_11char_traitsIcEENS_9allocatorIcEEEEN8nlohmann16json_abi_v3_11_210basic_jsonINS_3mapENS_6vectorES7_bxydS5_NS9_14adl_serializerENSC_IhNS5_IhEEEEEEEEE10pointer_toB7v160006ERSH_, symObjAddr: 0x20960, symBinAddr: 0x100029A88, symSize: 0x14 }
  - { offsetInCU: 0x56BBB, offset: 0x56BBB, size: 0x8, addend: 0x0, symName: __ZNKSt3__115__tree_iteratorINS_12__value_typeINS_12basic_stringIcNS_11char_traitsIcEENS_9allocatorIcEEEEN8nlohmann16json_abi_v3_11_210basic_jsonINS_3mapENS_6vectorES7_bxydS5_NS9_14adl_serializerENSC_IhNS5_IhEEEEEEEEPNS_11__tree_nodeISH_PvEElE8__get_npB7v160006Ev, symObjAddr: 0x20974, symBinAddr: 0x100029A9C, symSize: 0x18 }
  - { offsetInCU: 0x56BE0, offset: 0x56BE0, size: 0x8, addend: 0x0, symName: __ZNSt3__116allocator_traitsINS_9allocatorINS_12basic_stringIcNS_11char_traitsIcEENS1_IcEEEEEEE7destroyB7v160006IS6_vEEvRS7_PT_, symObjAddr: 0x2098C, symBinAddr: 0x100029AB4, symSize: 0x2C }
  - { offsetInCU: 0x56C1E, offset: 0x56C1E, size: 0x8, addend: 0x0, symName: __ZNK8nlohmann16json_abi_v3_11_210basic_jsonINSt3__13mapENS2_6vectorENS2_12basic_stringIcNS2_11char_traitsIcEENS2_9allocatorIcEEEEbxydS8_NS0_14adl_serializerENS4_IhNS8_IhEEEEE9is_binaryEv, symObjAddr: 0x209B8, symBinAddr: 0x100029AE0, symSize: 0x24 }
  - { offsetInCU: 0x56C43, offset: 0x56C43, size: 0x8, addend: 0x0, symName: __ZNSt3__116allocator_traitsINS_9allocatorIN8nlohmann16json_abi_v3_11_227byte_container_with_subtypeINS_6vectorIhNS1_IhEEEEEEEEE7destroyB7v160006IS8_vEEvRS9_PT_, symObjAddr: 0x209DC, symBinAddr: 0x100029B04, symSize: 0x2C }
  - { offsetInCU: 0x56C80, offset: 0x56C80, size: 0x8, addend: 0x0, symName: __ZNSt3__13mapINS_12basic_stringIcNS_11char_traitsIcEENS_9allocatorIcEEEEN8nlohmann16json_abi_v3_11_210basic_jsonIS0_NS_6vectorES6_bxydS4_NS8_14adl_serializerENSA_IhNS4_IhEEEEEENS_4lessIvEENS4_INS_4pairIKS6_SE_EEEEE5eraseB7v160006ENS_14__map_iteratorINS_15__tree_iteratorINS_12__value_typeIS6_SE_EEPNS_11__tree_nodeISP_PvEElEEEE, symObjAddr: 0x20A08, symBinAddr: 0x100029B30, symSize: 0x5C }
  - { offsetInCU: 0x56CB4, offset: 0x56CB4, size: 0x8, addend: 0x0, symName: __ZNSt3__16vectorIN8nlohmann16json_abi_v3_11_210basic_jsonINS_3mapES0_NS_12basic_stringIcNS_11char_traitsIcEENS_9allocatorIcEEEEbxydS8_NS2_14adl_serializerENS0_IhNS8_IhEEEEEENS8_ISE_EEE5eraseB7v160006ENS_11__wrap_iterIPKSE_EE, symObjAddr: 0x20A64, symBinAddr: 0x100029B8C, symSize: 0xA4 }
  - { offsetInCU: 0x56D12, offset: 0x56D12, size: 0x8, addend: 0x0, symName: __ZNSt3__111__wrap_iterIPKN8nlohmann16json_abi_v3_11_210basic_jsonINS_3mapENS_6vectorENS_12basic_stringIcNS_11char_traitsIcEENS_9allocatorIcEEEEbxydS9_NS2_14adl_serializerENS5_IhNS9_IhEEEEEEEC1B7v160006IPSF_EERKNS0_IT_EEPNS_9enable_ifIXsr14is_convertibleISL_SH_EE5valueEvE4typeE, symObjAddr: 0x20B08, symBinAddr: 0x100029C30, symSize: 0x3C }
  - { offsetInCU: 0x56D62, offset: 0x56D62, size: 0x8, addend: 0x0, symName: __ZN8nlohmann16json_abi_v3_11_26detail10type_error6createIPNS0_10basic_jsonINSt3__13mapENS5_6vectorENS5_12basic_stringIcNS5_11char_traitsIcEENS5_9allocatorIcEEEEbxydSB_NS0_14adl_serializerENS7_IhNSB_IhEEEEEELi0EEES2_iRKSD_T_, symObjAddr: 0x20B44, symBinAddr: 0x100029C6C, symSize: 0x130 }
  - { offsetInCU: 0x56DC2, offset: 0x56DC2, size: 0x8, addend: 0x0, symName: __ZNK8nlohmann16json_abi_v3_11_210basic_jsonINSt3__13mapENS2_6vectorENS2_12basic_stringIcNS2_11char_traitsIcEENS2_9allocatorIcEEEEbxydS8_NS0_14adl_serializerENS4_IhNS8_IhEEEEE9type_nameEv, symObjAddr: 0x20D40, symBinAddr: 0x100029E68, symSize: 0xD8 }
  - { offsetInCU: 0x56DE7, offset: 0x56DE7, size: 0x8, addend: 0x0, symName: __ZN8nlohmann16json_abi_v3_11_26detail10type_errorD1Ev, symObjAddr: 0x20E40, symBinAddr: 0x100029F68, symSize: 0x2C }
  - { offsetInCU: 0x56E12, offset: 0x56E12, size: 0x8, addend: 0x0, symName: __ZNSt3__19allocatorINS_12basic_stringIcNS_11char_traitsIcEENS0_IcEEEEE7destroyB7v160006EPS5_, symObjAddr: 0x20E6C, symBinAddr: 0x100029F94, symSize: 0x28 }
  - { offsetInCU: 0x56E44, offset: 0x56E44, size: 0x8, addend: 0x0, symName: __ZNSt3__19allocatorIN8nlohmann16json_abi_v3_11_227byte_container_with_subtypeINS_6vectorIhNS0_IhEEEEEEE7destroyB7v160006EPS7_, symObjAddr: 0x20E94, symBinAddr: 0x100029FBC, symSize: 0x28 }
  - { offsetInCU: 0x56E77, offset: 0x56E77, size: 0x8, addend: 0x0, symName: __ZN8nlohmann16json_abi_v3_11_227byte_container_with_subtypeINSt3__16vectorIhNS2_9allocatorIhEEEEED1Ev, symObjAddr: 0x20EBC, symBinAddr: 0x100029FE4, symSize: 0x2C }
  - { offsetInCU: 0x56EA3, offset: 0x56EA3, size: 0x8, addend: 0x0, symName: __ZN8nlohmann16json_abi_v3_11_227byte_container_with_subtypeINSt3__16vectorIhNS2_9allocatorIhEEEEED2Ev, symObjAddr: 0x20EE8, symBinAddr: 0x10002A010, symSize: 0x2C }
  - { offsetInCU: 0x56ECF, offset: 0x56ECF, size: 0x8, addend: 0x0, symName: __ZNSt3__16vectorIhNS_9allocatorIhEEED2B7v160006Ev, symObjAddr: 0x20F14, symBinAddr: 0x10002A03C, symSize: 0x44 }
  - { offsetInCU: 0x56EF8, offset: 0x56EF8, size: 0x8, addend: 0x0, symName: __ZNSt3__16__treeINS_12__value_typeINS_12basic_stringIcNS_11char_traitsIcEENS_9allocatorIcEEEEN8nlohmann16json_abi_v3_11_210basic_jsonINS_3mapENS_6vectorES7_bxydS5_NS9_14adl_serializerENSC_IhNS5_IhEEEEEEEENS_19__map_value_compareIS7_SH_NS_4lessIvEELb1EEENS5_ISH_EEE5eraseENS_21__tree_const_iteratorISH_PNS_11__tree_nodeISH_PvEElEE, symObjAddr: 0x20F58, symBinAddr: 0x10002A080, symSize: 0x98 }
  - { offsetInCU: 0x56F5B, offset: 0x56F5B, size: 0x8, addend: 0x0, symName: __ZNSt3__16__treeINS_12__value_typeINS_12basic_stringIcNS_11char_traitsIcEENS_9allocatorIcEEEEN8nlohmann16json_abi_v3_11_210basic_jsonINS_3mapENS_6vectorES7_bxydS5_NS9_14adl_serializerENSC_IhNS5_IhEEEEEEEENS_19__map_value_compareIS7_SH_NS_4lessIvEELb1EEENS5_ISH_EEE21__remove_node_pointerEPNS_11__tree_nodeISH_PvEE, symObjAddr: 0x20FF0, symBinAddr: 0x10002A118, symSize: 0xB4 }
  - { offsetInCU: 0x56F9F, offset: 0x56F9F, size: 0x8, addend: 0x0, symName: __ZNSt3__115__tree_iteratorINS_12__value_typeINS_12basic_stringIcNS_11char_traitsIcEENS_9allocatorIcEEEEN8nlohmann16json_abi_v3_11_210basic_jsonINS_3mapENS_6vectorES7_bxydS5_NS9_14adl_serializerENSC_IhNS5_IhEEEEEEEEPNS_11__tree_nodeISH_PvEElEppB7v160006Ev, symObjAddr: 0x210A4, symBinAddr: 0x10002A1CC, symSize: 0x38 }
  - { offsetInCU: 0x56FC3, offset: 0x56FC3, size: 0x8, addend: 0x0, symName: __ZNKSt3__16vectorIN8nlohmann16json_abi_v3_11_210basic_jsonINS_3mapES0_NS_12basic_stringIcNS_11char_traitsIcEENS_9allocatorIcEEEEbxydS8_NS2_14adl_serializerENS0_IhNS8_IhEEEEEENS8_ISE_EEE6cbeginB7v160006Ev, symObjAddr: 0x21884, symBinAddr: 0x10002A9AC, symSize: 0x2C }
  - { offsetInCU: 0x56FE7, offset: 0x56FE7, size: 0x8, addend: 0x0, symName: __ZNSt3__16vectorIN8nlohmann16json_abi_v3_11_210basic_jsonINS_3mapES0_NS_12basic_stringIcNS_11char_traitsIcEENS_9allocatorIcEEEEbxydS8_NS2_14adl_serializerENS0_IhNS8_IhEEEEEENS8_ISE_EEE17__destruct_at_endB7v160006EPSE_, symObjAddr: 0x218B0, symBinAddr: 0x10002A9D8, symSize: 0x60 }
  - { offsetInCU: 0x5702A, offset: 0x5702A, size: 0x8, addend: 0x0, symName: __ZNSt3__16vectorIN8nlohmann16json_abi_v3_11_210basic_jsonINS_3mapES0_NS_12basic_stringIcNS_11char_traitsIcEENS_9allocatorIcEEEEbxydS8_NS2_14adl_serializerENS0_IhNS8_IhEEEEEENS8_ISE_EEE27__invalidate_iterators_pastB7v160006EPSE_, symObjAddr: 0x21950, symBinAddr: 0x10002AA78, symSize: 0x14 }
  - { offsetInCU: 0x57060, offset: 0x57060, size: 0x8, addend: 0x0, symName: __ZNKSt3__111__wrap_iterIPKN8nlohmann16json_abi_v3_11_210basic_jsonINS_3mapENS_6vectorENS_12basic_stringIcNS_11char_traitsIcEENS_9allocatorIcEEEEbxydS9_NS2_14adl_serializerENS5_IhNS9_IhEEEEEEE4baseB7v160006Ev, symObjAddr: 0x21964, symBinAddr: 0x10002AA8C, symSize: 0x18 }
  - { offsetInCU: 0x57085, offset: 0x57085, size: 0x8, addend: 0x0, symName: __ZNKSt3__16vectorIN8nlohmann16json_abi_v3_11_210basic_jsonINS_3mapES0_NS_12basic_stringIcNS_11char_traitsIcEENS_9allocatorIcEEEEbxydS8_NS2_14adl_serializerENS0_IhNS8_IhEEEEEENS8_ISE_EEE5beginB7v160006Ev, symObjAddr: 0x2197C, symBinAddr: 0x10002AAA4, symSize: 0x30 }
  - { offsetInCU: 0x570AB, offset: 0x570AB, size: 0x8, addend: 0x0, symName: __ZNKSt3__16vectorIN8nlohmann16json_abi_v3_11_210basic_jsonINS_3mapES0_NS_12basic_stringIcNS_11char_traitsIcEENS_9allocatorIcEEEEbxydS8_NS2_14adl_serializerENS0_IhNS8_IhEEEEEENS8_ISE_EEE11__make_iterB7v160006EPKSE_, symObjAddr: 0x219AC, symBinAddr: 0x10002AAD4, symSize: 0x34 }
  - { offsetInCU: 0x570DF, offset: 0x570DF, size: 0x8, addend: 0x0, symName: __ZNSt3__111__wrap_iterIPKN8nlohmann16json_abi_v3_11_210basic_jsonINS_3mapENS_6vectorENS_12basic_stringIcNS_11char_traitsIcEENS_9allocatorIcEEEEbxydS9_NS2_14adl_serializerENS5_IhNS9_IhEEEEEEEC1B7v160006EPKvSH_, symObjAddr: 0x219E0, symBinAddr: 0x10002AB08, symSize: 0x3C }
  - { offsetInCU: 0x57124, offset: 0x57124, size: 0x8, addend: 0x0, symName: __ZNSt3__111__wrap_iterIPKN8nlohmann16json_abi_v3_11_210basic_jsonINS_3mapENS_6vectorENS_12basic_stringIcNS_11char_traitsIcEENS_9allocatorIcEEEEbxydS9_NS2_14adl_serializerENS5_IhNS9_IhEEEEEEEC2B7v160006EPKvSH_, symObjAddr: 0x21A1C, symBinAddr: 0x10002AB44, symSize: 0x24 }
  - { offsetInCU: 0x57168, offset: 0x57168, size: 0x8, addend: 0x0, symName: __ZNKSt3__16vectorIN8nlohmann16json_abi_v3_11_210basic_jsonINS_3mapES0_NS_12basic_stringIcNS_11char_traitsIcEENS_9allocatorIcEEEEbxydS8_NS2_14adl_serializerENS0_IhNS8_IhEEEEEENS8_ISE_EEE17__annotate_shrinkB7v160006Em, symObjAddr: 0x21A40, symBinAddr: 0x10002AB68, symSize: 0xB4 }
  - { offsetInCU: 0x571B5, offset: 0x571B5, size: 0x8, addend: 0x0, symName: __ZNKSt3__111__move_loopINS_17_ClassicAlgPolicyEEclB7v160006IPN8nlohmann16json_abi_v3_11_210basic_jsonINS_3mapENS_6vectorENS_12basic_stringIcNS_11char_traitsIcEENS_9allocatorIcEEEEbxydSC_NS5_14adl_serializerENS8_IhNSC_IhEEEEEESJ_SJ_EENS_4pairIT_T1_EESL_T0_SM_, symObjAddr: 0x21C90, symBinAddr: 0x10002ADB8, symSize: 0xA8 }
  - { offsetInCU: 0x5721F, offset: 0x5721F, size: 0x8, addend: 0x0, symName: __ZNSt3__18_IterOpsINS_17_ClassicAlgPolicyEE11__iter_moveB7v160006IRPN8nlohmann16json_abi_v3_11_210basic_jsonINS_3mapENS_6vectorENS_12basic_stringIcNS_11char_traitsIcEENS_9allocatorIcEEEEbxydSC_NS5_14adl_serializerENS8_IhNSC_IhEEEEEEEENS_9enable_ifIXsr12is_referenceIDTdeclsr3stdE7declvalIRT_EEEEE5valueEDTclsr3stdE4movedeclsr3stdE7declvalISN_EEEEE4typeEOSM_, symObjAddr: 0x21DFC, symBinAddr: 0x10002AF24, symSize: 0x28 }
  - { offsetInCU: 0x5724B, offset: 0x5724B, size: 0x8, addend: 0x0, symName: __ZNSt3__18_IterOpsINS_17_ClassicAlgPolicyEE25__validate_iter_referenceB7v160006IRPN8nlohmann16json_abi_v3_11_210basic_jsonINS_3mapENS_6vectorENS_12basic_stringIcNS_11char_traitsIcEENS_9allocatorIcEEEEbxydSC_NS5_14adl_serializerENS8_IhNSC_IhEEEEEEEEvv, symObjAddr: 0x21E24, symBinAddr: 0x10002AF4C, symSize: 0x4 }
  - { offsetInCU: 0x57269, offset: 0x57269, size: 0x8, addend: 0x0, symName: __ZNSt3__118__unwrap_iter_implIPN8nlohmann16json_abi_v3_11_210basic_jsonINS_3mapENS_6vectorENS_12basic_stringIcNS_11char_traitsIcEENS_9allocatorIcEEEEbxydS9_NS2_14adl_serializerENS5_IhNS9_IhEEEEEELb1EE8__unwrapB7v160006ESG_, symObjAddr: 0x21E28, symBinAddr: 0x10002AF50, symSize: 0x24 }
  - { offsetInCU: 0x5728C, offset: 0x5728C, size: 0x8, addend: 0x0, symName: __ZNSt3__14pairIPN8nlohmann16json_abi_v3_11_210basic_jsonINS_3mapENS_6vectorENS_12basic_stringIcNS_11char_traitsIcEENS_9allocatorIcEEEEbxydS9_NS2_14adl_serializerENS5_IhNS9_IhEEEEEESG_EC1B7v160006ISG_SG_LPv0EEEOT_OT0_, symObjAddr: 0x21E4C, symBinAddr: 0x10002AF74, symSize: 0x3C }
  - { offsetInCU: 0x572E9, offset: 0x572E9, size: 0x8, addend: 0x0, symName: __ZNSt3__14pairIPN8nlohmann16json_abi_v3_11_210basic_jsonINS_3mapENS_6vectorENS_12basic_stringIcNS_11char_traitsIcEENS_9allocatorIcEEEEbxydS9_NS2_14adl_serializerENS5_IhNS9_IhEEEEEESG_EC2B7v160006ISG_SG_LPv0EEEOT_OT0_, symObjAddr: 0x21E88, symBinAddr: 0x10002AFB0, symSize: 0x34 }
  - { offsetInCU: 0x57346, offset: 0x57346, size: 0x8, addend: 0x0, symName: __ZNSt3__118__unwrap_iter_implIPN8nlohmann16json_abi_v3_11_210basic_jsonINS_3mapENS_6vectorENS_12basic_stringIcNS_11char_traitsIcEENS_9allocatorIcEEEEbxydS9_NS2_14adl_serializerENS5_IhNS9_IhEEEEEELb1EE8__rewrapB7v160006ESG_SG_, symObjAddr: 0x21EBC, symBinAddr: 0x10002AFE4, symSize: 0x50 }
  - { offsetInCU: 0x57377, offset: 0x57377, size: 0x8, addend: 0x0, symName: __ZNSt3__111__wrap_iterIPKN8nlohmann16json_abi_v3_11_210basic_jsonINS_3mapENS_6vectorENS_12basic_stringIcNS_11char_traitsIcEENS_9allocatorIcEEEEbxydS9_NS2_14adl_serializerENS5_IhNS9_IhEEEEEEEC2B7v160006IPSF_EERKNS0_IT_EEPNS_9enable_ifIXsr14is_convertibleISL_SH_EE5valueEvE4typeE, symObjAddr: 0x21F0C, symBinAddr: 0x10002B034, symSize: 0x40 }
  - { offsetInCU: 0x573C2, offset: 0x573C2, size: 0x8, addend: 0x0, symName: __ZN8nlohmann16json_abi_v3_11_26detail10type_errorC1EiPKc, symObjAddr: 0x21F4C, symBinAddr: 0x10002B074, symSize: 0x3C }
  - { offsetInCU: 0x57409, offset: 0x57409, size: 0x8, addend: 0x0, symName: __ZN8nlohmann16json_abi_v3_11_26detail10type_errorC2EiPKc, symObjAddr: 0x21F88, symBinAddr: 0x10002B0B0, symSize: 0x54 }
  - { offsetInCU: 0x57450, offset: 0x57450, size: 0x8, addend: 0x0, symName: __ZN8nlohmann16json_abi_v3_11_26detail10type_errorD0Ev, symObjAddr: 0x21FDC, symBinAddr: 0x10002B104, symSize: 0x30 }
  - { offsetInCU: 0x5747C, offset: 0x5747C, size: 0x8, addend: 0x0, symName: __ZN8nlohmann16json_abi_v3_11_26detail10type_errorD2Ev, symObjAddr: 0x220C4, symBinAddr: 0x10002B1EC, symSize: 0x2C }
  - { offsetInCU: 0x574A8, offset: 0x574A8, size: 0x8, addend: 0x0, symName: __ZN8nlohmann16json_abi_v3_11_26detail9iter_implINS0_10basic_jsonINSt3__13mapENS4_6vectorENS4_12basic_stringIcNS4_11char_traitsIcEENS4_9allocatorIcEEEEbxydSA_NS0_14adl_serializerENS6_IhNSA_IhEEEEEEEC2ERKSH_, symObjAddr: 0x220F0, symBinAddr: 0x10002B218, symSize: 0x38 }
  - { offsetInCU: 0x574E0, offset: 0x574E0, size: 0x8, addend: 0x0, symName: __ZN8nlohmann16json_abi_v3_11_26detail20primitive_iterator_tppEv, symObjAddr: 0x221D8, symBinAddr: 0x10002B300, symSize: 0x20 }
